Archive member included to satisfy reference by file (symbol)

e:/quartus_fpga_design/nios2eds/bin/gnu/h-x86_64-mingw32/bin/../lib/gcc/nios2-elf/5.3.0/mno-hw-mul\libgcc.a(_fixunsdfsi.o)
                              obj/default/game.o (__fixunsdfsi)
e:/quartus_fpga_design/nios2eds/bin/gnu/h-x86_64-mingw32/bin/../lib/gcc/nios2-elf/5.3.0/mno-hw-mul\libgcc.a(lib2-divmod.o)
                              obj/default/game.o (__divsi3)
e:/quartus_fpga_design/nios2eds/bin/gnu/h-x86_64-mingw32/bin/../lib/gcc/nios2-elf/5.3.0/mno-hw-mul\libgcc.a(lib2-mul.o)
                              obj/default/INIT.o (__mulsi3)
e:/quartus_fpga_design/nios2eds/bin/gnu/h-x86_64-mingw32/bin/../lib/gcc/nios2-elf/5.3.0/mno-hw-mul\libgcc.a(divdf3.o)
                              obj/default/game.o (__divdf3)
e:/quartus_fpga_design/nios2eds/bin/gnu/h-x86_64-mingw32/bin/../lib/gcc/nios2-elf/5.3.0/mno-hw-mul\libgcc.a(gedf2.o)
                              e:/quartus_fpga_design/nios2eds/bin/gnu/h-x86_64-mingw32/bin/../lib/gcc/nios2-elf/5.3.0/mno-hw-mul\libgcc.a(_fixunsdfsi.o) (__gedf2)
e:/quartus_fpga_design/nios2eds/bin/gnu/h-x86_64-mingw32/bin/../lib/gcc/nios2-elf/5.3.0/mno-hw-mul\libgcc.a(subdf3.o)
                              e:/quartus_fpga_design/nios2eds/bin/gnu/h-x86_64-mingw32/bin/../lib/gcc/nios2-elf/5.3.0/mno-hw-mul\libgcc.a(_fixunsdfsi.o) (__subdf3)
e:/quartus_fpga_design/nios2eds/bin/gnu/h-x86_64-mingw32/bin/../lib/gcc/nios2-elf/5.3.0/mno-hw-mul\libgcc.a(fixdfsi.o)
                              e:/quartus_fpga_design/nios2eds/bin/gnu/h-x86_64-mingw32/bin/../lib/gcc/nios2-elf/5.3.0/mno-hw-mul\libgcc.a(_fixunsdfsi.o) (__fixdfsi)
e:/quartus_fpga_design/nios2eds/bin/gnu/h-x86_64-mingw32/bin/../lib/gcc/nios2-elf/5.3.0/mno-hw-mul\libgcc.a(floatunsidf.o)
                              obj/default/game.o (__floatunsidf)
e:/quartus_fpga_design/nios2eds/bin/gnu/h-x86_64-mingw32/bin/../lib/gcc/nios2-elf/5.3.0/mno-hw-mul\libgcc.a(_clzsi2.o)
                              e:/quartus_fpga_design/nios2eds/bin/gnu/h-x86_64-mingw32/bin/../lib/gcc/nios2-elf/5.3.0/mno-hw-mul\libgcc.a(divdf3.o) (__clzsi2)
e:/quartus_fpga_design/nios2eds/bin/gnu/h-x86_64-mingw32/bin/../lib/gcc/nios2-elf/5.3.0/mno-hw-mul\libgcc.a(_clz.o)
                              e:/quartus_fpga_design/nios2eds/bin/gnu/h-x86_64-mingw32/bin/../lib/gcc/nios2-elf/5.3.0/mno-hw-mul\libgcc.a(_clzsi2.o) (__clz_tab)
e:/quartus_fpga_design/nios2eds/bin/gnu/h-x86_64-mingw32/bin/../lib/gcc/nios2-elf/5.3.0/../../../../../H-x86_64-mingw32/nios2-elf/lib/mno-hw-mul\libc.a(lib_a-clock.o)
                              obj/default/draw_driver.o (clock)
e:/quartus_fpga_design/nios2eds/bin/gnu/h-x86_64-mingw32/bin/../lib/gcc/nios2-elf/5.3.0/../../../../../H-x86_64-mingw32/nios2-elf/lib/mno-hw-mul\libc.a(lib_a-impure.o)
                              e:/quartus_fpga_design/nios2eds/bin/gnu/h-x86_64-mingw32/bin/../lib/gcc/nios2-elf/5.3.0/../../../../../H-x86_64-mingw32/nios2-elf/lib/mno-hw-mul\libc.a(lib_a-clock.o) (_impure_ptr)
e:/quartus_fpga_design/nios2eds/bin/gnu/h-x86_64-mingw32/bin/../lib/gcc/nios2-elf/5.3.0/../../../../../H-x86_64-mingw32/nios2-elf/lib/mno-hw-mul\libc.a(lib_a-malloc.o)
                              obj/default/drawing.o (malloc)
e:/quartus_fpga_design/nios2eds/bin/gnu/h-x86_64-mingw32/bin/../lib/gcc/nios2-elf/5.3.0/../../../../../H-x86_64-mingw32/nios2-elf/lib/mno-hw-mul\libc.a(lib_a-mallocr.o)
                              e:/quartus_fpga_design/nios2eds/bin/gnu/h-x86_64-mingw32/bin/../lib/gcc/nios2-elf/5.3.0/../../../../../H-x86_64-mingw32/nios2-elf/lib/mno-hw-mul\libc.a(lib_a-malloc.o) (_malloc_r)
e:/quartus_fpga_design/nios2eds/bin/gnu/h-x86_64-mingw32/bin/../lib/gcc/nios2-elf/5.3.0/../../../../../H-x86_64-mingw32/nios2-elf/lib/mno-hw-mul\libc.a(lib_a-printf.o)
                              obj/default/USB_Keyboard_Driver.o (printf)
e:/quartus_fpga_design/nios2eds/bin/gnu/h-x86_64-mingw32/bin/../lib/gcc/nios2-elf/5.3.0/../../../../../H-x86_64-mingw32/nios2-elf/lib/mno-hw-mul\libc.a(lib_a-puts.o)
                              obj/default/USB_Keyboard_Driver.o (puts)
e:/quartus_fpga_design/nios2eds/bin/gnu/h-x86_64-mingw32/bin/../lib/gcc/nios2-elf/5.3.0/../../../../../H-x86_64-mingw32/nios2-elf/lib/mno-hw-mul\libc.a(lib_a-rand.o)
                              obj/default/game.o (srand)
e:/quartus_fpga_design/nios2eds/bin/gnu/h-x86_64-mingw32/bin/../lib/gcc/nios2-elf/5.3.0/../../../../../H-x86_64-mingw32/nios2-elf/lib/mno-hw-mul\libc.a(lib_a-sbrkr.o)
                              e:/quartus_fpga_design/nios2eds/bin/gnu/h-x86_64-mingw32/bin/../lib/gcc/nios2-elf/5.3.0/../../../../../H-x86_64-mingw32/nios2-elf/lib/mno-hw-mul\libc.a(lib_a-mallocr.o) (_sbrk_r)
e:/quartus_fpga_design/nios2eds/bin/gnu/h-x86_64-mingw32/bin/../lib/gcc/nios2-elf/5.3.0/../../../../../H-x86_64-mingw32/nios2-elf/lib/mno-hw-mul\libc.a(lib_a-strlen.o)
                              e:/quartus_fpga_design/nios2eds/bin/gnu/h-x86_64-mingw32/bin/../lib/gcc/nios2-elf/5.3.0/../../../../../H-x86_64-mingw32/nios2-elf/lib/mno-hw-mul\libc.a(lib_a-puts.o) (strlen)
e:/quartus_fpga_design/nios2eds/bin/gnu/h-x86_64-mingw32/bin/../lib/gcc/nios2-elf/5.3.0/../../../../../H-x86_64-mingw32/nios2-elf/lib/mno-hw-mul\libc.a(lib_a-timesr.o)
                              e:/quartus_fpga_design/nios2eds/bin/gnu/h-x86_64-mingw32/bin/../lib/gcc/nios2-elf/5.3.0/../../../../../H-x86_64-mingw32/nios2-elf/lib/mno-hw-mul\libc.a(lib_a-clock.o) (_times_r)
e:/quartus_fpga_design/nios2eds/bin/gnu/h-x86_64-mingw32/bin/../lib/gcc/nios2-elf/5.3.0/../../../../../H-x86_64-mingw32/nios2-elf/lib/mno-hw-mul\libc.a(lib_a-vfprintf.o)
                              e:/quartus_fpga_design/nios2eds/bin/gnu/h-x86_64-mingw32/bin/../lib/gcc/nios2-elf/5.3.0/../../../../../H-x86_64-mingw32/nios2-elf/lib/mno-hw-mul\libc.a(lib_a-printf.o) (___vfprintf_internal_r)
e:/quartus_fpga_design/nios2eds/bin/gnu/h-x86_64-mingw32/bin/../lib/gcc/nios2-elf/5.3.0/../../../../../H-x86_64-mingw32/nios2-elf/lib/mno-hw-mul\libc.a(lib_a-wsetup.o)
                              e:/quartus_fpga_design/nios2eds/bin/gnu/h-x86_64-mingw32/bin/../lib/gcc/nios2-elf/5.3.0/../../../../../H-x86_64-mingw32/nios2-elf/lib/mno-hw-mul\libc.a(lib_a-vfprintf.o) (__swsetup_r)
e:/quartus_fpga_design/nios2eds/bin/gnu/h-x86_64-mingw32/bin/../lib/gcc/nios2-elf/5.3.0/../../../../../H-x86_64-mingw32/nios2-elf/lib/mno-hw-mul\libc.a(lib_a-dtoa.o)
                              e:/quartus_fpga_design/nios2eds/bin/gnu/h-x86_64-mingw32/bin/../lib/gcc/nios2-elf/5.3.0/../../../../../H-x86_64-mingw32/nios2-elf/lib/mno-hw-mul\libc.a(lib_a-vfprintf.o) (_dtoa_r)
e:/quartus_fpga_design/nios2eds/bin/gnu/h-x86_64-mingw32/bin/../lib/gcc/nios2-elf/5.3.0/../../../../../H-x86_64-mingw32/nios2-elf/lib/mno-hw-mul\libc.a(lib_a-fflush.o)
                              e:/quartus_fpga_design/nios2eds/bin/gnu/h-x86_64-mingw32/bin/../lib/gcc/nios2-elf/5.3.0/../../../../../H-x86_64-mingw32/nios2-elf/lib/mno-hw-mul\libc.a(lib_a-vfprintf.o) (_fflush_r)
e:/quartus_fpga_design/nios2eds/bin/gnu/h-x86_64-mingw32/bin/../lib/gcc/nios2-elf/5.3.0/../../../../../H-x86_64-mingw32/nios2-elf/lib/mno-hw-mul\libc.a(lib_a-findfp.o)
                              e:/quartus_fpga_design/nios2eds/bin/gnu/h-x86_64-mingw32/bin/../lib/gcc/nios2-elf/5.3.0/../../../../../H-x86_64-mingw32/nios2-elf/lib/mno-hw-mul\libc.a(lib_a-puts.o) (__sinit)
e:/quartus_fpga_design/nios2eds/bin/gnu/h-x86_64-mingw32/bin/../lib/gcc/nios2-elf/5.3.0/../../../../../H-x86_64-mingw32/nios2-elf/lib/mno-hw-mul\libc.a(lib_a-freer.o)
                              e:/quartus_fpga_design/nios2eds/bin/gnu/h-x86_64-mingw32/bin/../lib/gcc/nios2-elf/5.3.0/../../../../../H-x86_64-mingw32/nios2-elf/lib/mno-hw-mul\libc.a(lib_a-malloc.o) (_free_r)
e:/quartus_fpga_design/nios2eds/bin/gnu/h-x86_64-mingw32/bin/../lib/gcc/nios2-elf/5.3.0/../../../../../H-x86_64-mingw32/nios2-elf/lib/mno-hw-mul\libc.a(lib_a-fvwrite.o)
                              e:/quartus_fpga_design/nios2eds/bin/gnu/h-x86_64-mingw32/bin/../lib/gcc/nios2-elf/5.3.0/../../../../../H-x86_64-mingw32/nios2-elf/lib/mno-hw-mul\libc.a(lib_a-puts.o) (__sfvwrite_r)
e:/quartus_fpga_design/nios2eds/bin/gnu/h-x86_64-mingw32/bin/../lib/gcc/nios2-elf/5.3.0/../../../../../H-x86_64-mingw32/nios2-elf/lib/mno-hw-mul\libc.a(lib_a-fwalk.o)
                              e:/quartus_fpga_design/nios2eds/bin/gnu/h-x86_64-mingw32/bin/../lib/gcc/nios2-elf/5.3.0/../../../../../H-x86_64-mingw32/nios2-elf/lib/mno-hw-mul\libc.a(lib_a-findfp.o) (_fwalk)
e:/quartus_fpga_design/nios2eds/bin/gnu/h-x86_64-mingw32/bin/../lib/gcc/nios2-elf/5.3.0/../../../../../H-x86_64-mingw32/nios2-elf/lib/mno-hw-mul\libc.a(lib_a-int_errno.o)
                              e:/quartus_fpga_design/nios2eds/bin/gnu/h-x86_64-mingw32/bin/../lib/gcc/nios2-elf/5.3.0/../../../../../H-x86_64-mingw32/nios2-elf/lib/mno-hw-mul\libc.a(lib_a-sbrkr.o) (errno)
e:/quartus_fpga_design/nios2eds/bin/gnu/h-x86_64-mingw32/bin/../lib/gcc/nios2-elf/5.3.0/../../../../../H-x86_64-mingw32/nios2-elf/lib/mno-hw-mul\libc.a(lib_a-locale.o)
                              e:/quartus_fpga_design/nios2eds/bin/gnu/h-x86_64-mingw32/bin/../lib/gcc/nios2-elf/5.3.0/../../../../../H-x86_64-mingw32/nios2-elf/lib/mno-hw-mul\libc.a(lib_a-vfprintf.o) (_localeconv_r)
e:/quartus_fpga_design/nios2eds/bin/gnu/h-x86_64-mingw32/bin/../lib/gcc/nios2-elf/5.3.0/../../../../../H-x86_64-mingw32/nios2-elf/lib/mno-hw-mul\libc.a(lib_a-makebuf.o)
                              e:/quartus_fpga_design/nios2eds/bin/gnu/h-x86_64-mingw32/bin/../lib/gcc/nios2-elf/5.3.0/../../../../../H-x86_64-mingw32/nios2-elf/lib/mno-hw-mul\libc.a(lib_a-wsetup.o) (__smakebuf_r)
e:/quartus_fpga_design/nios2eds/bin/gnu/h-x86_64-mingw32/bin/../lib/gcc/nios2-elf/5.3.0/../../../../../H-x86_64-mingw32/nios2-elf/lib/mno-hw-mul\libc.a(lib_a-memchr.o)
                              e:/quartus_fpga_design/nios2eds/bin/gnu/h-x86_64-mingw32/bin/../lib/gcc/nios2-elf/5.3.0/../../../../../H-x86_64-mingw32/nios2-elf/lib/mno-hw-mul\libc.a(lib_a-vfprintf.o) (memchr)
e:/quartus_fpga_design/nios2eds/bin/gnu/h-x86_64-mingw32/bin/../lib/gcc/nios2-elf/5.3.0/../../../../../H-x86_64-mingw32/nios2-elf/lib/mno-hw-mul\libc.a(lib_a-memcpy.o)
                              e:/quartus_fpga_design/nios2eds/bin/gnu/h-x86_64-mingw32/bin/../lib/gcc/nios2-elf/5.3.0/../../../../../H-x86_64-mingw32/nios2-elf/lib/mno-hw-mul\libc.a(lib_a-dtoa.o) (memcpy)
e:/quartus_fpga_design/nios2eds/bin/gnu/h-x86_64-mingw32/bin/../lib/gcc/nios2-elf/5.3.0/../../../../../H-x86_64-mingw32/nios2-elf/lib/mno-hw-mul\libc.a(lib_a-memmove.o)
                              e:/quartus_fpga_design/nios2eds/bin/gnu/h-x86_64-mingw32/bin/../lib/gcc/nios2-elf/5.3.0/../../../../../H-x86_64-mingw32/nios2-elf/lib/mno-hw-mul\libc.a(lib_a-fvwrite.o) (memmove)
e:/quartus_fpga_design/nios2eds/bin/gnu/h-x86_64-mingw32/bin/../lib/gcc/nios2-elf/5.3.0/../../../../../H-x86_64-mingw32/nios2-elf/lib/mno-hw-mul\libc.a(lib_a-memset.o)
                              e:/quartus_fpga_design/nios2eds/bin/gnu/h-x86_64-mingw32/bin/../lib/gcc/nios2-elf/5.3.0/../../../../../H-x86_64-mingw32/nios2-elf/lib/mno-hw-mul\libc.a(lib_a-findfp.o) (memset)
e:/quartus_fpga_design/nios2eds/bin/gnu/h-x86_64-mingw32/bin/../lib/gcc/nios2-elf/5.3.0/../../../../../H-x86_64-mingw32/nios2-elf/lib/mno-hw-mul\libc.a(lib_a-mprec.o)
                              e:/quartus_fpga_design/nios2eds/bin/gnu/h-x86_64-mingw32/bin/../lib/gcc/nios2-elf/5.3.0/../../../../../H-x86_64-mingw32/nios2-elf/lib/mno-hw-mul\libc.a(lib_a-dtoa.o) (_Balloc)
e:/quartus_fpga_design/nios2eds/bin/gnu/h-x86_64-mingw32/bin/../lib/gcc/nios2-elf/5.3.0/../../../../../H-x86_64-mingw32/nios2-elf/lib/mno-hw-mul\libc.a(lib_a-reallocr.o)
                              e:/quartus_fpga_design/nios2eds/bin/gnu/h-x86_64-mingw32/bin/../lib/gcc/nios2-elf/5.3.0/../../../../../H-x86_64-mingw32/nios2-elf/lib/mno-hw-mul\libc.a(lib_a-fvwrite.o) (_realloc_r)
e:/quartus_fpga_design/nios2eds/bin/gnu/h-x86_64-mingw32/bin/../lib/gcc/nios2-elf/5.3.0/../../../../../H-x86_64-mingw32/nios2-elf/lib/mno-hw-mul\libc.a(lib_a-s_fpclassify.o)
                              e:/quartus_fpga_design/nios2eds/bin/gnu/h-x86_64-mingw32/bin/../lib/gcc/nios2-elf/5.3.0/../../../../../H-x86_64-mingw32/nios2-elf/lib/mno-hw-mul\libc.a(lib_a-vfprintf.o) (__fpclassifyd)
e:/quartus_fpga_design/nios2eds/bin/gnu/h-x86_64-mingw32/bin/../lib/gcc/nios2-elf/5.3.0/../../../../../H-x86_64-mingw32/nios2-elf/lib/mno-hw-mul\libc.a(lib_a-stdio.o)
                              e:/quartus_fpga_design/nios2eds/bin/gnu/h-x86_64-mingw32/bin/../lib/gcc/nios2-elf/5.3.0/../../../../../H-x86_64-mingw32/nios2-elf/lib/mno-hw-mul\libc.a(lib_a-findfp.o) (__sread)
e:/quartus_fpga_design/nios2eds/bin/gnu/h-x86_64-mingw32/bin/../lib/gcc/nios2-elf/5.3.0/../../../../../H-x86_64-mingw32/nios2-elf/lib/mno-hw-mul\libc.a(lib_a-strcmp.o)
                              e:/quartus_fpga_design/nios2eds/bin/gnu/h-x86_64-mingw32/bin/../lib/gcc/nios2-elf/5.3.0/../../../../../H-x86_64-mingw32/nios2-elf/lib/mno-hw-mul\libc.a(lib_a-locale.o) (strcmp)
e:/quartus_fpga_design/nios2eds/bin/gnu/h-x86_64-mingw32/bin/../lib/gcc/nios2-elf/5.3.0/../../../../../H-x86_64-mingw32/nios2-elf/lib/mno-hw-mul\libc.a(lib_a-vfiprintf.o)
                              e:/quartus_fpga_design/nios2eds/bin/gnu/h-x86_64-mingw32/bin/../lib/gcc/nios2-elf/5.3.0/../../../../../H-x86_64-mingw32/nios2-elf/lib/mno-hw-mul\libc.a(lib_a-vfprintf.o) (__sprint_r)
e:/quartus_fpga_design/nios2eds/bin/gnu/h-x86_64-mingw32/bin/../lib/gcc/nios2-elf/5.3.0/../../../../../H-x86_64-mingw32/nios2-elf/lib/mno-hw-mul\libc.a(lib_a-writer.o)
                              e:/quartus_fpga_design/nios2eds/bin/gnu/h-x86_64-mingw32/bin/../lib/gcc/nios2-elf/5.3.0/../../../../../H-x86_64-mingw32/nios2-elf/lib/mno-hw-mul\libc.a(lib_a-stdio.o) (_write_r)
e:/quartus_fpga_design/nios2eds/bin/gnu/h-x86_64-mingw32/bin/../lib/gcc/nios2-elf/5.3.0/../../../../../H-x86_64-mingw32/nios2-elf/lib/mno-hw-mul\libc.a(closer.o)
                              e:/quartus_fpga_design/nios2eds/bin/gnu/h-x86_64-mingw32/bin/../lib/gcc/nios2-elf/5.3.0/../../../../../H-x86_64-mingw32/nios2-elf/lib/mno-hw-mul\libc.a(lib_a-stdio.o) (_close_r)
e:/quartus_fpga_design/nios2eds/bin/gnu/h-x86_64-mingw32/bin/../lib/gcc/nios2-elf/5.3.0/../../../../../H-x86_64-mingw32/nios2-elf/lib/mno-hw-mul\libc.a(lib_a-callocr.o)
                              e:/quartus_fpga_design/nios2eds/bin/gnu/h-x86_64-mingw32/bin/../lib/gcc/nios2-elf/5.3.0/../../../../../H-x86_64-mingw32/nios2-elf/lib/mno-hw-mul\libc.a(lib_a-mprec.o) (_calloc_r)
e:/quartus_fpga_design/nios2eds/bin/gnu/h-x86_64-mingw32/bin/../lib/gcc/nios2-elf/5.3.0/../../../../../H-x86_64-mingw32/nios2-elf/lib/mno-hw-mul\libc.a(lib_a-fclose.o)
                              e:/quartus_fpga_design/nios2eds/bin/gnu/h-x86_64-mingw32/bin/../lib/gcc/nios2-elf/5.3.0/../../../../../H-x86_64-mingw32/nios2-elf/lib/mno-hw-mul\libc.a(lib_a-findfp.o) (_fclose_r)
e:/quartus_fpga_design/nios2eds/bin/gnu/h-x86_64-mingw32/bin/../lib/gcc/nios2-elf/5.3.0/../../../../../H-x86_64-mingw32/nios2-elf/lib/mno-hw-mul\libc.a(lib_a-fputwc.o)
                              e:/quartus_fpga_design/nios2eds/bin/gnu/h-x86_64-mingw32/bin/../lib/gcc/nios2-elf/5.3.0/../../../../../H-x86_64-mingw32/nios2-elf/lib/mno-hw-mul\libc.a(lib_a-vfiprintf.o) (_fputwc_r)
e:/quartus_fpga_design/nios2eds/bin/gnu/h-x86_64-mingw32/bin/../lib/gcc/nios2-elf/5.3.0/../../../../../H-x86_64-mingw32/nios2-elf/lib/mno-hw-mul\libc.a(lib_a-fstatr.o)
                              e:/quartus_fpga_design/nios2eds/bin/gnu/h-x86_64-mingw32/bin/../lib/gcc/nios2-elf/5.3.0/../../../../../H-x86_64-mingw32/nios2-elf/lib/mno-hw-mul\libc.a(lib_a-makebuf.o) (_fstat_r)
e:/quartus_fpga_design/nios2eds/bin/gnu/h-x86_64-mingw32/bin/../lib/gcc/nios2-elf/5.3.0/../../../../../H-x86_64-mingw32/nios2-elf/lib/mno-hw-mul\libc.a(lib_a-isattyr.o)
                              e:/quartus_fpga_design/nios2eds/bin/gnu/h-x86_64-mingw32/bin/../lib/gcc/nios2-elf/5.3.0/../../../../../H-x86_64-mingw32/nios2-elf/lib/mno-hw-mul\libc.a(lib_a-makebuf.o) (_isatty_r)
e:/quartus_fpga_design/nios2eds/bin/gnu/h-x86_64-mingw32/bin/../lib/gcc/nios2-elf/5.3.0/../../../../../H-x86_64-mingw32/nios2-elf/lib/mno-hw-mul\libc.a(lib_a-lseekr.o)
                              e:/quartus_fpga_design/nios2eds/bin/gnu/h-x86_64-mingw32/bin/../lib/gcc/nios2-elf/5.3.0/../../../../../H-x86_64-mingw32/nios2-elf/lib/mno-hw-mul\libc.a(lib_a-stdio.o) (_lseek_r)
e:/quartus_fpga_design/nios2eds/bin/gnu/h-x86_64-mingw32/bin/../lib/gcc/nios2-elf/5.3.0/../../../../../H-x86_64-mingw32/nios2-elf/lib/mno-hw-mul\libc.a(lib_a-readr.o)
                              e:/quartus_fpga_design/nios2eds/bin/gnu/h-x86_64-mingw32/bin/../lib/gcc/nios2-elf/5.3.0/../../../../../H-x86_64-mingw32/nios2-elf/lib/mno-hw-mul\libc.a(lib_a-stdio.o) (_read_r)
e:/quartus_fpga_design/nios2eds/bin/gnu/h-x86_64-mingw32/bin/../lib/gcc/nios2-elf/5.3.0/../../../../../H-x86_64-mingw32/nios2-elf/lib/mno-hw-mul\libc.a(lib_a-wbuf.o)
                              e:/quartus_fpga_design/nios2eds/bin/gnu/h-x86_64-mingw32/bin/../lib/gcc/nios2-elf/5.3.0/../../../../../H-x86_64-mingw32/nios2-elf/lib/mno-hw-mul\libc.a(lib_a-fputwc.o) (__swbuf_r)
e:/quartus_fpga_design/nios2eds/bin/gnu/h-x86_64-mingw32/bin/../lib/gcc/nios2-elf/5.3.0/../../../../../H-x86_64-mingw32/nios2-elf/lib/mno-hw-mul\libc.a(lib_a-wcrtomb.o)
                              e:/quartus_fpga_design/nios2eds/bin/gnu/h-x86_64-mingw32/bin/../lib/gcc/nios2-elf/5.3.0/../../../../../H-x86_64-mingw32/nios2-elf/lib/mno-hw-mul\libc.a(lib_a-fputwc.o) (_wcrtomb_r)
e:/quartus_fpga_design/nios2eds/bin/gnu/h-x86_64-mingw32/bin/../lib/gcc/nios2-elf/5.3.0/../../../../../H-x86_64-mingw32/nios2-elf/lib/mno-hw-mul\libc.a(lib_a-wctomb_r.o)
                              e:/quartus_fpga_design/nios2eds/bin/gnu/h-x86_64-mingw32/bin/../lib/gcc/nios2-elf/5.3.0/../../../../../H-x86_64-mingw32/nios2-elf/lib/mno-hw-mul\libc.a(lib_a-wcrtomb.o) (__wctomb)
e:/quartus_fpga_design/nios2eds/bin/gnu/h-x86_64-mingw32/bin/../lib/gcc/nios2-elf/5.3.0/mno-hw-mul\libgcc.a(_muldi3.o)
                              e:/quartus_fpga_design/nios2eds/bin/gnu/h-x86_64-mingw32/bin/../lib/gcc/nios2-elf/5.3.0/../../../../../H-x86_64-mingw32/nios2-elf/lib/mno-hw-mul\libc.a(lib_a-rand.o) (__muldi3)
e:/quartus_fpga_design/nios2eds/bin/gnu/h-x86_64-mingw32/bin/../lib/gcc/nios2-elf/5.3.0/mno-hw-mul\libgcc.a(_udivdi3.o)
                              e:/quartus_fpga_design/nios2eds/bin/gnu/h-x86_64-mingw32/bin/../lib/gcc/nios2-elf/5.3.0/../../../../../H-x86_64-mingw32/nios2-elf/lib/mno-hw-mul\libc.a(lib_a-vfprintf.o) (__udivdi3)
e:/quartus_fpga_design/nios2eds/bin/gnu/h-x86_64-mingw32/bin/../lib/gcc/nios2-elf/5.3.0/mno-hw-mul\libgcc.a(_umoddi3.o)
                              e:/quartus_fpga_design/nios2eds/bin/gnu/h-x86_64-mingw32/bin/../lib/gcc/nios2-elf/5.3.0/../../../../../H-x86_64-mingw32/nios2-elf/lib/mno-hw-mul\libc.a(lib_a-vfprintf.o) (__umoddi3)
e:/quartus_fpga_design/nios2eds/bin/gnu/h-x86_64-mingw32/bin/../lib/gcc/nios2-elf/5.3.0/mno-hw-mul\libgcc.a(adddf3.o)
                              e:/quartus_fpga_design/nios2eds/bin/gnu/h-x86_64-mingw32/bin/../lib/gcc/nios2-elf/5.3.0/../../../../../H-x86_64-mingw32/nios2-elf/lib/mno-hw-mul\libc.a(lib_a-dtoa.o) (__adddf3)
e:/quartus_fpga_design/nios2eds/bin/gnu/h-x86_64-mingw32/bin/../lib/gcc/nios2-elf/5.3.0/mno-hw-mul\libgcc.a(eqdf2.o)
                              e:/quartus_fpga_design/nios2eds/bin/gnu/h-x86_64-mingw32/bin/../lib/gcc/nios2-elf/5.3.0/../../../../../H-x86_64-mingw32/nios2-elf/lib/mno-hw-mul\libc.a(lib_a-vfprintf.o) (__eqdf2)
e:/quartus_fpga_design/nios2eds/bin/gnu/h-x86_64-mingw32/bin/../lib/gcc/nios2-elf/5.3.0/mno-hw-mul\libgcc.a(ledf2.o)
                              e:/quartus_fpga_design/nios2eds/bin/gnu/h-x86_64-mingw32/bin/../lib/gcc/nios2-elf/5.3.0/../../../../../H-x86_64-mingw32/nios2-elf/lib/mno-hw-mul\libc.a(lib_a-vfprintf.o) (__ltdf2)
e:/quartus_fpga_design/nios2eds/bin/gnu/h-x86_64-mingw32/bin/../lib/gcc/nios2-elf/5.3.0/mno-hw-mul\libgcc.a(muldf3.o)
                              e:/quartus_fpga_design/nios2eds/bin/gnu/h-x86_64-mingw32/bin/../lib/gcc/nios2-elf/5.3.0/../../../../../H-x86_64-mingw32/nios2-elf/lib/mno-hw-mul\libc.a(lib_a-dtoa.o) (__muldf3)
e:/quartus_fpga_design/nios2eds/bin/gnu/h-x86_64-mingw32/bin/../lib/gcc/nios2-elf/5.3.0/mno-hw-mul\libgcc.a(floatsidf.o)
                              e:/quartus_fpga_design/nios2eds/bin/gnu/h-x86_64-mingw32/bin/../lib/gcc/nios2-elf/5.3.0/../../../../../H-x86_64-mingw32/nios2-elf/lib/mno-hw-mul\libc.a(lib_a-dtoa.o) (__floatsidf)
../Bomberman_bsp/\libhal_bsp.a(alt_close.o)
                              e:/quartus_fpga_design/nios2eds/bin/gnu/h-x86_64-mingw32/bin/../lib/gcc/nios2-elf/5.3.0/../../../../../H-x86_64-mingw32/nios2-elf/lib/mno-hw-mul\libc.a(closer.o) (close)
../Bomberman_bsp/\libhal_bsp.a(alt_dev.o)
                              ../Bomberman_bsp/\libhal_bsp.a(alt_close.o) (alt_fd_list)
../Bomberman_bsp/\libhal_bsp.a(alt_errno.o)
                              ../Bomberman_bsp/\libhal_bsp.a(alt_close.o) (alt_errno)
../Bomberman_bsp/\libhal_bsp.a(alt_fstat.o)
                              e:/quartus_fpga_design/nios2eds/bin/gnu/h-x86_64-mingw32/bin/../lib/gcc/nios2-elf/5.3.0/../../../../../H-x86_64-mingw32/nios2-elf/lib/mno-hw-mul\libc.a(lib_a-fstatr.o) (fstat)
../Bomberman_bsp/\libhal_bsp.a(alt_isatty.o)
                              e:/quartus_fpga_design/nios2eds/bin/gnu/h-x86_64-mingw32/bin/../lib/gcc/nios2-elf/5.3.0/../../../../../H-x86_64-mingw32/nios2-elf/lib/mno-hw-mul\libc.a(lib_a-isattyr.o) (isatty)
../Bomberman_bsp/\libhal_bsp.a(alt_load.o)
                              ../Bomberman_bsp//obj/HAL/src/crt0.o (alt_load)
../Bomberman_bsp/\libhal_bsp.a(alt_lseek.o)
                              e:/quartus_fpga_design/nios2eds/bin/gnu/h-x86_64-mingw32/bin/../lib/gcc/nios2-elf/5.3.0/../../../../../H-x86_64-mingw32/nios2-elf/lib/mno-hw-mul\libc.a(lib_a-lseekr.o) (lseek)
../Bomberman_bsp/\libhal_bsp.a(alt_main.o)
                              ../Bomberman_bsp//obj/HAL/src/crt0.o (alt_main)
../Bomberman_bsp/\libhal_bsp.a(alt_malloc_lock.o)
                              e:/quartus_fpga_design/nios2eds/bin/gnu/h-x86_64-mingw32/bin/../lib/gcc/nios2-elf/5.3.0/../../../../../H-x86_64-mingw32/nios2-elf/lib/mno-hw-mul\libc.a(lib_a-mallocr.o) (__malloc_lock)
../Bomberman_bsp/\libhal_bsp.a(alt_read.o)
                              e:/quartus_fpga_design/nios2eds/bin/gnu/h-x86_64-mingw32/bin/../lib/gcc/nios2-elf/5.3.0/../../../../../H-x86_64-mingw32/nios2-elf/lib/mno-hw-mul\libc.a(lib_a-readr.o) (read)
../Bomberman_bsp/\libhal_bsp.a(alt_release_fd.o)
                              ../Bomberman_bsp/\libhal_bsp.a(alt_close.o) (alt_release_fd)
../Bomberman_bsp/\libhal_bsp.a(alt_sbrk.o)
                              e:/quartus_fpga_design/nios2eds/bin/gnu/h-x86_64-mingw32/bin/../lib/gcc/nios2-elf/5.3.0/../../../../../H-x86_64-mingw32/nios2-elf/lib/mno-hw-mul\libc.a(lib_a-sbrkr.o) (sbrk)
../Bomberman_bsp/\libhal_bsp.a(alt_times.o)
                              e:/quartus_fpga_design/nios2eds/bin/gnu/h-x86_64-mingw32/bin/../lib/gcc/nios2-elf/5.3.0/../../../../../H-x86_64-mingw32/nios2-elf/lib/mno-hw-mul\libc.a(lib_a-timesr.o) (times)
../Bomberman_bsp/\libhal_bsp.a(alt_usleep.o)
                              obj/default/USB_Keyboard_Driver.o (usleep)
../Bomberman_bsp/\libhal_bsp.a(alt_write.o)
                              e:/quartus_fpga_design/nios2eds/bin/gnu/h-x86_64-mingw32/bin/../lib/gcc/nios2-elf/5.3.0/../../../../../H-x86_64-mingw32/nios2-elf/lib/mno-hw-mul\libc.a(lib_a-writer.o) (write)
../Bomberman_bsp/\libhal_bsp.a(alt_sys_init.o)
                              ../Bomberman_bsp/\libhal_bsp.a(alt_main.o) (alt_irq_init)
../Bomberman_bsp/\libhal_bsp.a(altera_avalon_jtag_uart_fd.o)
                              ../Bomberman_bsp/\libhal_bsp.a(alt_sys_init.o) (altera_avalon_jtag_uart_read_fd)
../Bomberman_bsp/\libhal_bsp.a(altera_avalon_jtag_uart_init.o)
                              ../Bomberman_bsp/\libhal_bsp.a(alt_sys_init.o) (altera_avalon_jtag_uart_init)
../Bomberman_bsp/\libhal_bsp.a(altera_avalon_jtag_uart_ioctl.o)
                              ../Bomberman_bsp/\libhal_bsp.a(altera_avalon_jtag_uart_fd.o) (altera_avalon_jtag_uart_ioctl)
../Bomberman_bsp/\libhal_bsp.a(altera_avalon_jtag_uart_read.o)
                              ../Bomberman_bsp/\libhal_bsp.a(altera_avalon_jtag_uart_fd.o) (altera_avalon_jtag_uart_read)
../Bomberman_bsp/\libhal_bsp.a(altera_avalon_jtag_uart_write.o)
                              ../Bomberman_bsp/\libhal_bsp.a(altera_avalon_jtag_uart_fd.o) (altera_avalon_jtag_uart_write)
../Bomberman_bsp/\libhal_bsp.a(altera_avalon_timer_sc.o)
                              ../Bomberman_bsp/\libhal_bsp.a(alt_sys_init.o) (alt_avalon_timer_sc_init)
../Bomberman_bsp/\libhal_bsp.a(alt_alarm_start.o)
                              ../Bomberman_bsp/\libhal_bsp.a(altera_avalon_jtag_uart_init.o) (alt_alarm_start)
../Bomberman_bsp/\libhal_bsp.a(alt_busy_sleep.o)
                              ../Bomberman_bsp/\libhal_bsp.a(alt_usleep.o) (alt_busy_sleep)
../Bomberman_bsp/\libhal_bsp.a(alt_dcache_flush_all.o)
                              ../Bomberman_bsp/\libhal_bsp.a(alt_load.o) (alt_dcache_flush_all)
../Bomberman_bsp/\libhal_bsp.a(alt_dev_llist_insert.o)
                              ../Bomberman_bsp/\libhal_bsp.a(alt_sys_init.o) (alt_dev_llist_insert)
../Bomberman_bsp/\libhal_bsp.a(alt_do_ctors.o)
                              ../Bomberman_bsp/\libhal_bsp.a(alt_main.o) (_do_ctors)
../Bomberman_bsp/\libhal_bsp.a(alt_do_dtors.o)
                              ../Bomberman_bsp/\libhal_bsp.a(alt_main.o) (_do_dtors)
../Bomberman_bsp/\libhal_bsp.a(alt_icache_flush_all.o)
                              ../Bomberman_bsp/\libhal_bsp.a(alt_load.o) (alt_icache_flush_all)
../Bomberman_bsp/\libhal_bsp.a(alt_iic.o)
                              ../Bomberman_bsp/\libhal_bsp.a(altera_avalon_jtag_uart_init.o) (alt_ic_isr_register)
../Bomberman_bsp/\libhal_bsp.a(alt_iic_isr_register.o)
                              ../Bomberman_bsp/\libhal_bsp.a(alt_iic.o) (alt_iic_isr_register)
../Bomberman_bsp/\libhal_bsp.a(alt_io_redirect.o)
                              ../Bomberman_bsp/\libhal_bsp.a(alt_main.o) (alt_io_redirect)
../Bomberman_bsp/\libhal_bsp.a(alt_irq_entry.o)
                              ../Bomberman_bsp/\libhal_bsp.a(alt_iic_isr_register.o) (alt_irq_entry)
../Bomberman_bsp/\libhal_bsp.a(alt_irq_handler.o)
                              ../Bomberman_bsp/\libhal_bsp.a(alt_iic_isr_register.o) (alt_irq)
../Bomberman_bsp/\libhal_bsp.a(alt_irq_vars.o)
                              ../Bomberman_bsp/\libhal_bsp.a(alt_iic.o) (alt_irq_active)
../Bomberman_bsp/\libhal_bsp.a(alt_open.o)
                              ../Bomberman_bsp/\libhal_bsp.a(alt_io_redirect.o) (open)
../Bomberman_bsp/\libhal_bsp.a(alt_tick.o)
                              ../Bomberman_bsp/\libhal_bsp.a(alt_times.o) (_alt_tick_rate)
../Bomberman_bsp/\libhal_bsp.a(altera_nios2_gen2_irq.o)
                              ../Bomberman_bsp/\libhal_bsp.a(alt_sys_init.o) (altera_nios2_gen2_irq_init)
../Bomberman_bsp/\libhal_bsp.a(alt_exception_entry.o)
                              ../Bomberman_bsp/\libhal_bsp.a(alt_irq_entry.o) (alt_exception)
../Bomberman_bsp/\libhal_bsp.a(alt_find_dev.o)
                              ../Bomberman_bsp/\libhal_bsp.a(alt_open.o) (alt_find_dev)
../Bomberman_bsp/\libhal_bsp.a(alt_find_file.o)
                              ../Bomberman_bsp/\libhal_bsp.a(alt_open.o) (alt_find_file)
../Bomberman_bsp/\libhal_bsp.a(alt_get_fd.o)
                              ../Bomberman_bsp/\libhal_bsp.a(alt_open.o) (alt_get_fd)
../Bomberman_bsp/\libhal_bsp.a(alt_instruction_exception_entry.o)
                              ../Bomberman_bsp/\libhal_bsp.a(alt_exception_entry.o) (alt_instruction_exception_entry)
e:/quartus_fpga_design/nios2eds/bin/gnu/h-x86_64-mingw32/bin/../lib/gcc/nios2-elf/5.3.0/../../../../../H-x86_64-mingw32/nios2-elf/lib/mno-hw-mul\libc.a(lib_a-atexit.o)
                              ../Bomberman_bsp/\libhal_bsp.a(alt_main.o) (atexit)
e:/quartus_fpga_design/nios2eds/bin/gnu/h-x86_64-mingw32/bin/../lib/gcc/nios2-elf/5.3.0/../../../../../H-x86_64-mingw32/nios2-elf/lib/mno-hw-mul\libc.a(lib_a-exit.o)
                              ../Bomberman_bsp/\libhal_bsp.a(alt_main.o) (exit)
e:/quartus_fpga_design/nios2eds/bin/gnu/h-x86_64-mingw32/bin/../lib/gcc/nios2-elf/5.3.0/../../../../../H-x86_64-mingw32/nios2-elf/lib/mno-hw-mul\libc.a(lib_a-memcmp.o)
                              ../Bomberman_bsp/\libhal_bsp.a(alt_find_dev.o) (memcmp)
e:/quartus_fpga_design/nios2eds/bin/gnu/h-x86_64-mingw32/bin/../lib/gcc/nios2-elf/5.3.0/../../../../../H-x86_64-mingw32/nios2-elf/lib/mno-hw-mul\libc.a(lib_a-__atexit.o)
                              e:/quartus_fpga_design/nios2eds/bin/gnu/h-x86_64-mingw32/bin/../lib/gcc/nios2-elf/5.3.0/../../../../../H-x86_64-mingw32/nios2-elf/lib/mno-hw-mul\libc.a(lib_a-atexit.o) (__register_exitproc)
e:/quartus_fpga_design/nios2eds/bin/gnu/h-x86_64-mingw32/bin/../lib/gcc/nios2-elf/5.3.0/../../../../../H-x86_64-mingw32/nios2-elf/lib/mno-hw-mul\libc.a(lib_a-__call_atexit.o)
                              e:/quartus_fpga_design/nios2eds/bin/gnu/h-x86_64-mingw32/bin/../lib/gcc/nios2-elf/5.3.0/../../../../../H-x86_64-mingw32/nios2-elf/lib/mno-hw-mul\libc.a(lib_a-exit.o) (__call_exitprocs)
../Bomberman_bsp/\libhal_bsp.a(alt_exit.o)
                              e:/quartus_fpga_design/nios2eds/bin/gnu/h-x86_64-mingw32/bin/../lib/gcc/nios2-elf/5.3.0/../../../../../H-x86_64-mingw32/nios2-elf/lib/mno-hw-mul\libc.a(lib_a-exit.o) (_exit)

Allocating common symbols
Common symbol       size              file

alt_irq             0x100             ../Bomberman_bsp/\libhal_bsp.a(alt_irq_handler.o)
usb_ctl_val         0x2               obj/default/USB_Keyboard_Driver.o
keycode             0x18              obj/default/main.o
errno               0x4               e:/quartus_fpga_design/nios2eds/bin/gnu/h-x86_64-mingw32/bin/../lib/gcc/nios2-elf/5.3.0/../../../../../H-x86_64-mingw32/nios2-elf/lib/mno-hw-mul\libc.a(lib_a-int_errno.o)
data_size           0x1               obj/default/USB_Keyboard_Driver.o
hot_plug_count      0x1               obj/default/USB_Keyboard_Driver.o
keycode_read        0x4               obj/default/USB_Keyboard_Driver.o

Memory Configuration

Name             Origin             Length             Attributes
reset            0x0000000000000000 0x0000000000000020
sdram            0x0000000000000020 0x0000000007ffffe0
*default*        0x0000000000000000 0xffffffffffffffff

Linker script and memory map

LOAD ../Bomberman_bsp//obj/HAL/src/crt0.o
LOAD obj/default/INIT.o
LOAD obj/default/LEDandHEX.o
LOAD obj/default/USB_Keyboard_Driver.o
LOAD obj/default/USB_Keyboard_Driver_Sup/io_handler.o
LOAD obj/default/USB_Keyboard_Driver_Sup/usb.o
LOAD obj/default/audio_driver.o
LOAD obj/default/coins.o
LOAD obj/default/draw_driver.o
LOAD obj/default/drawing.o
LOAD obj/default/ed.o
LOAD obj/default/game.o
LOAD obj/default/main.o
LOAD obj/default/op.o
LOAD obj/default/readKey.o
LOAD obj/default/transition.o
LOAD e:/quartus_fpga_design/nios2eds/bin/gnu/h-x86_64-mingw32/bin/../lib/gcc/nios2-elf/5.3.0/../../../../../H-x86_64-mingw32/nios2-elf/lib/mno-hw-mul\libstdc++.a
LOAD e:/quartus_fpga_design/nios2eds/bin/gnu/h-x86_64-mingw32/bin/../lib/gcc/nios2-elf/5.3.0/../../../../../H-x86_64-mingw32/nios2-elf/lib/mno-hw-mul\libm.a
LOAD e:/quartus_fpga_design/nios2eds/bin/gnu/h-x86_64-mingw32/bin/../lib/gcc/nios2-elf/5.3.0/mno-hw-mul\libgcc.a
START GROUP
LOAD e:/quartus_fpga_design/nios2eds/bin/gnu/h-x86_64-mingw32/bin/../lib/gcc/nios2-elf/5.3.0/../../../../../H-x86_64-mingw32/nios2-elf/lib/mno-hw-mul\libc.a
LOAD e:/quartus_fpga_design/nios2eds/bin/gnu/h-x86_64-mingw32/bin/../lib/gcc/nios2-elf/5.3.0/mno-hw-mul\libgcc.a
LOAD ../Bomberman_bsp/\libhal_bsp.a
LOAD e:/quartus_fpga_design/nios2eds/bin/gnu/h-x86_64-mingw32/bin/../lib/gcc/nios2-elf/5.3.0/../../../../../H-x86_64-mingw32/nios2-elf/lib/mno-hw-mul\libm.a
END GROUP
LOAD e:/quartus_fpga_design/nios2eds/bin/gnu/h-x86_64-mingw32/bin/../lib/gcc/nios2-elf/5.3.0/mno-hw-mul\libgcc.a
                0x0000000000000000                __alt_mem_sdram = 0x0

.entry          0x0000000000000000       0x20
 *(.entry)
 .entry         0x0000000000000000       0x20 ../Bomberman_bsp//obj/HAL/src/crt0.o
                0x0000000000000000                __reset

.exceptions     0x0000000000000020      0x210
                0x0000000000000020                PROVIDE (__ram_exceptions_start, ABSOLUTE (.))
                0x0000000000000020                . = ALIGN (0x20)
 *(.irq)
 *(.exceptions.entry.label)
 .exceptions.entry.label
                0x0000000000000020        0x0 ../Bomberman_bsp/\libhal_bsp.a(alt_irq_entry.o)
                0x0000000000000020                alt_irq_entry
 .exceptions.entry.label
                0x0000000000000020        0x0 ../Bomberman_bsp/\libhal_bsp.a(alt_exception_entry.o)
                0x0000000000000020                alt_exception
 *(.exceptions.entry.user)
 *(.exceptions.entry.ecc_fatal)
 *(.exceptions.entry)
 .exceptions.entry
                0x0000000000000020       0x54 ../Bomberman_bsp/\libhal_bsp.a(alt_exception_entry.o)
 *(.exceptions.irqtest.user)
 *(.exceptions.irqtest)
 .exceptions.irqtest
                0x0000000000000074       0x10 ../Bomberman_bsp/\libhal_bsp.a(alt_irq_entry.o)
 *(.exceptions.irqhandler.user)
 *(.exceptions.irqhandler)
 .exceptions.irqhandler
                0x0000000000000084        0x4 ../Bomberman_bsp/\libhal_bsp.a(alt_irq_entry.o)
 *(.exceptions.irqreturn.user)
 *(.exceptions.irqreturn)
 .exceptions.irqreturn
                0x0000000000000088        0x4 ../Bomberman_bsp/\libhal_bsp.a(alt_irq_entry.o)
 *(.exceptions.notirq.label)
 .exceptions.notirq.label
                0x000000000000008c        0x0 ../Bomberman_bsp/\libhal_bsp.a(alt_irq_entry.o)
 *(.exceptions.notirq.user)
 *(.exceptions.notirq)
 .exceptions.notirq
                0x000000000000008c        0x8 ../Bomberman_bsp/\libhal_bsp.a(alt_exception_entry.o)
 *(.exceptions.soft.user)
 *(.exceptions.soft)
 *(.exceptions.unknown.user)
 *(.exceptions.unknown)
 .exceptions.unknown
                0x0000000000000094       0x14 ../Bomberman_bsp/\libhal_bsp.a(alt_exception_entry.o)
 *(.exceptions.exit.label)
 .exceptions.exit.label
                0x00000000000000a8        0x0 ../Bomberman_bsp/\libhal_bsp.a(alt_irq_entry.o)
 .exceptions.exit.label
                0x00000000000000a8        0x0 ../Bomberman_bsp/\libhal_bsp.a(alt_exception_entry.o)
 *(.exceptions.exit.user)
 *(.exceptions.exit)
 .exceptions.exit
                0x00000000000000a8       0x54 ../Bomberman_bsp/\libhal_bsp.a(alt_exception_entry.o)
 *(.exceptions)
 .exceptions    0x00000000000000fc       0xd4 ../Bomberman_bsp/\libhal_bsp.a(alt_irq_handler.o)
                0x00000000000000fc                alt_irq_handler
 .exceptions    0x00000000000001d0       0x60 ../Bomberman_bsp/\libhal_bsp.a(alt_instruction_exception_entry.o)
                0x00000000000001d0                alt_instruction_exception_entry
                0x0000000000000230                PROVIDE (__ram_exceptions_end, ABSOLUTE (.))
                0x0000000000000020                PROVIDE (__flash_exceptions_start, LOADADDR (.exceptions))

.text           0x0000000000000230    0x1bdcc
                [!provide]                        PROVIDE (stext, ABSOLUTE (.))
 *(.interp)
 *(.hash)
 *(.dynsym)
 *(.dynstr)
 *(.gnu.version)
 *(.gnu.version_d)
 *(.gnu.version_r)
 *(.rel.init)
 *(.rela.init)
 *(.rel.text .rel.text.* .rel.gnu.linkonce.t.*)
 *(.rela.text .rela.text.* .rela.gnu.linkonce.t.*)
 *(.rel.fini)
 *(.rela.fini)
 *(.rel.rodata .rel.rodata.* .rel.gnu.linkonce.r.*)
 *(.rela.rodata .rela.rodata.* .rela.gnu.linkonce.r.*)
 *(.rel.data .rel.data.* .rel.gnu.linkonce.d.*)
 *(.rela.data .rela.data.* .rela.gnu.linkonce.d.*)
 *(.rel.tdata .rel.tdata.* .rel.gnu.linkonce.td.*)
 *(.rela.tdata .rela.tdata.* .rela.gnu.linkonce.td.*)
 *(.rel.tbss .rel.tbss.* .rel.gnu.linkonce.tb.*)
 *(.rela.tbss .rela.tbss.* .rela.gnu.linkonce.tb.*)
 *(.rel.ctors)
 *(.rela.ctors)
 *(.rel.dtors)
 *(.rela.dtors)
 *(.rel.got)
 *(.rela.got)
 *(.rel.sdata .rel.sdata.* .rel.gnu.linkonce.s.*)
 *(.rela.sdata .rela.sdata.* .rela.gnu.linkonce.s.*)
 *(.rel.sbss .rel.sbss.* .rel.gnu.linkonce.sb.*)
 *(.rela.sbss .rela.sbss.* .rela.gnu.linkonce.sb.*)
 *(.rel.sdata2 .rel.sdata2.* .rel.gnu.linkonce.s2.*)
 *(.rela.sdata2 .rela.sdata2.* .rela.gnu.linkonce.s2.*)
 *(.rel.sbss2 .rel.sbss2.* .rel.gnu.linkonce.sb2.*)
 *(.rela.sbss2 .rela.sbss2.* .rela.gnu.linkonce.sb2.*)
 *(.rel.bss .rel.bss.* .rel.gnu.linkonce.b.*)
 *(.rela.bss .rela.bss.* .rela.gnu.linkonce.b.*)
 *(.rel.plt)
 *(.rela.plt)
 *(.rel.dyn)
 *(.init)
 *(.plt)
 *(.text .stub .text.* .gnu.linkonce.t.*)
 .text          0x0000000000000230       0x3c ../Bomberman_bsp//obj/HAL/src/crt0.o
                0x0000000000000230                _start
 .text          0x000000000000026c      0x218 obj/default/INIT.o
                0x000000000000026c                INIT
 .text          0x0000000000000484      0x1b0 obj/default/LEDandHEX.o
                0x0000000000000484                displayScore
                0x0000000000000574                displayTime
 .text          0x0000000000000634     0x1310 obj/default/USB_Keyboard_Driver.o
                0x0000000000000634                Keyboard_INIT
                0x0000000000001650                FetchKey
 .text          0x0000000000001944      0x1ac obj/default/USB_Keyboard_Driver_Sup/io_handler.o
                0x0000000000001944                IO_init
                0x00000000000019e8                IO_write
                0x0000000000001a70                IO_read
 .text          0x0000000000001af0     0x1174 obj/default/USB_Keyboard_Driver_Sup/usb.o
                0x0000000000001af0                UsbWrite
                0x0000000000001b48                UsbRead
                0x0000000000001b8c                UsbSoftReset
                0x0000000000001c40                UsbSetAddress
                0x0000000000001d40                UsbGetDeviceDesc1
                0x0000000000001e88                UsbGetDeviceDesc2
                0x0000000000002060                UsbGetConfigDesc1
                0x00000000000021f0                UsbGetConfigDesc2
                0x0000000000002458                UsbSetConfig
                0x0000000000002558                UsbClassRequest
                0x0000000000002658                UsbGetHidDesc
                0x00000000000027a0                UsbGetReportDesc
                0x0000000000002ae0                UsbWaitTDListDone
                0x0000000000002b64                UsbGetRetryCnt
                0x0000000000002be4                UsbPrintMem
 .text          0x0000000000002c64      0x1f8 obj/default/audio_driver.o
                0x0000000000002c64                changeBackVolume
                0x0000000000002cb8                changeBombVolume
                0x0000000000002d0c                Audio_init
                0x0000000000002d54                Bomb
                0x0000000000002d88                Audio_Select
 .text          0x0000000000002e5c      0x7a8 obj/default/coins.o
                0x0000000000002e5c                deleteCoins
                0x0000000000003004                getCoins
                0x00000000000034ac                UpdateCoins
 .text          0x0000000000003604      0x29c obj/default/draw_driver.o
                0x0000000000003604                draw_driver
                0x000000000000370c                draw_driver_init
                0x0000000000003828                draw_driver_speed
                0x0000000000003850                delay
 .text          0x00000000000038a0     0x493c obj/default/drawing.o
                0x00000000000038a0                cleanCell
                0x0000000000003934                drawSolidWall
                0x00000000000039dc                drawSoftWall
                0x0000000000003a84                cleanPlayer
                0x0000000000003b50                drawPlayer
                0x0000000000004310                drawPlayerHurt
                0x00000000000043d0                drawExplosion
                0x0000000000004dc4                drawBomb
                0x0000000000005b2c                drawFiringWall
                0x0000000000006520                drawBombAndExplosion
                0x0000000000007dc4                pushToCoinList
                0x0000000000007e94                drawCoin
                0x000000000000814c                cleanCoin
 .text          0x00000000000081dc      0x248 obj/default/ed.o
                0x00000000000081dc                initED
                0x000000000000835c                ed
 .text          0x0000000000008424     0x2840 obj/default/game.o
                0x000000000000853c                game
                0x0000000000008bc0                initStage
                0x0000000000008fd4                initPlayer
                0x000000000000921c                move
                0x0000000000009468                canMove
                0x00000000000098f8                onFire
                0x0000000000009ac8                catchFire
                0x0000000000009b8c                placeBomb
                0x000000000000a220                UpdateBomb
                0x000000000000a658                HPcheck
                0x000000000000a82c                scoreCompare
                0x000000000000a8a0                displayHP
 .text          0x000000000000ac64      0x1e4 obj/default/main.o
                0x000000000000ad7c                main
 .text          0x000000000000ae48      0x2c4 obj/default/op.o
                0x000000000000ae48                initOP
                0x000000000000aefc                op
 .text          0x000000000000b10c      0xaf0 obj/default/readKey.o
                0x000000000000b10c                W_en
                0x000000000000b1d4                S_en
                0x000000000000b29c                A_en
                0x000000000000b364                D_en
                0x000000000000b42c                UP_en
                0x000000000000b4f4                DOWN_en
                0x000000000000b5bc                LEFT_en
                0x000000000000b684                RIGHT_en
                0x000000000000b74c                SPACE_en
                0x000000000000b814                ENTER_en
                0x000000000000b8dc                PLUS_en
                0x000000000000b9a4                MINOR_en
                0x000000000000ba6c                ZERO_en
                0x000000000000bb34                NINE_en
 .text          0x000000000000bbfc      0x868 obj/default/transition.o
                0x000000000000bbfc                begin_anim
 .text          0x000000000000c464       0x74 e:/quartus_fpga_design/nios2eds/bin/gnu/h-x86_64-mingw32/bin/../lib/gcc/nios2-elf/5.3.0/mno-hw-mul\libgcc.a(_fixunsdfsi.o)
                0x000000000000c464                __fixunsdfsi
 .text          0x000000000000c4d8      0x1b4 e:/quartus_fpga_design/nios2eds/bin/gnu/h-x86_64-mingw32/bin/../lib/gcc/nios2-elf/5.3.0/mno-hw-mul\libgcc.a(lib2-divmod.o)
                0x000000000000c4d8                __divsi3
                0x000000000000c55c                __modsi3
                0x000000000000c5d0                __udivsi3
                0x000000000000c634                __umodsi3
 .text          0x000000000000c68c       0x28 e:/quartus_fpga_design/nios2eds/bin/gnu/h-x86_64-mingw32/bin/../lib/gcc/nios2-elf/5.3.0/mno-hw-mul\libgcc.a(lib2-mul.o)
                0x000000000000c68c                __mulsi3
 .text          0x000000000000c6b4      0x9d0 e:/quartus_fpga_design/nios2eds/bin/gnu/h-x86_64-mingw32/bin/../lib/gcc/nios2-elf/5.3.0/mno-hw-mul\libgcc.a(divdf3.o)
                0x000000000000c6b4                __divdf3
 .text          0x000000000000d084       0xdc e:/quartus_fpga_design/nios2eds/bin/gnu/h-x86_64-mingw32/bin/../lib/gcc/nios2-elf/5.3.0/mno-hw-mul\libgcc.a(gedf2.o)
                0x000000000000d084                __gedf2
                0x000000000000d084                __gtdf2
 .text          0x000000000000d160      0x8fc e:/quartus_fpga_design/nios2eds/bin/gnu/h-x86_64-mingw32/bin/../lib/gcc/nios2-elf/5.3.0/mno-hw-mul\libgcc.a(subdf3.o)
                0x000000000000d160                __subdf3
 .text          0x000000000000da5c       0x80 e:/quartus_fpga_design/nios2eds/bin/gnu/h-x86_64-mingw32/bin/../lib/gcc/nios2-elf/5.3.0/mno-hw-mul\libgcc.a(fixdfsi.o)
                0x000000000000da5c                __fixdfsi
 .text          0x000000000000dadc       0xa8 e:/quartus_fpga_design/nios2eds/bin/gnu/h-x86_64-mingw32/bin/../lib/gcc/nios2-elf/5.3.0/mno-hw-mul\libgcc.a(floatunsidf.o)
                0x000000000000dadc                __floatunsidf
 .text          0x000000000000db84       0x64 e:/quartus_fpga_design/nios2eds/bin/gnu/h-x86_64-mingw32/bin/../lib/gcc/nios2-elf/5.3.0/mno-hw-mul\libgcc.a(_clzsi2.o)
                0x000000000000db84                __clzsi2
 .text          0x000000000000dbe8        0x0 e:/quartus_fpga_design/nios2eds/bin/gnu/h-x86_64-mingw32/bin/../lib/gcc/nios2-elf/5.3.0/mno-hw-mul\libgcc.a(_clz.o)
 .text          0x000000000000dbe8        0x0 e:/quartus_fpga_design/nios2eds/bin/gnu/h-x86_64-mingw32/bin/../lib/gcc/nios2-elf/5.3.0/../../../../../H-x86_64-mingw32/nios2-elf/lib/mno-hw-mul\libc.a(lib_a-clock.o)
 .text.clock    0x000000000000dbe8       0x4c e:/quartus_fpga_design/nios2eds/bin/gnu/h-x86_64-mingw32/bin/../lib/gcc/nios2-elf/5.3.0/../../../../../H-x86_64-mingw32/nios2-elf/lib/mno-hw-mul\libc.a(lib_a-clock.o)
                0x000000000000dbe8                clock
 .text          0x000000000000dc34        0x0 e:/quartus_fpga_design/nios2eds/bin/gnu/h-x86_64-mingw32/bin/../lib/gcc/nios2-elf/5.3.0/../../../../../H-x86_64-mingw32/nios2-elf/lib/mno-hw-mul\libc.a(lib_a-impure.o)
 .text          0x000000000000dc34        0x0 e:/quartus_fpga_design/nios2eds/bin/gnu/h-x86_64-mingw32/bin/../lib/gcc/nios2-elf/5.3.0/../../../../../H-x86_64-mingw32/nios2-elf/lib/mno-hw-mul\libc.a(lib_a-malloc.o)
 .text.malloc   0x000000000000dc34       0x14 e:/quartus_fpga_design/nios2eds/bin/gnu/h-x86_64-mingw32/bin/../lib/gcc/nios2-elf/5.3.0/../../../../../H-x86_64-mingw32/nios2-elf/lib/mno-hw-mul\libc.a(lib_a-malloc.o)
                0x000000000000dc34                malloc
 .text.free     0x000000000000dc48       0x14 e:/quartus_fpga_design/nios2eds/bin/gnu/h-x86_64-mingw32/bin/../lib/gcc/nios2-elf/5.3.0/../../../../../H-x86_64-mingw32/nios2-elf/lib/mno-hw-mul\libc.a(lib_a-malloc.o)
                0x000000000000dc48                free
 .text          0x000000000000dc5c        0x0 e:/quartus_fpga_design/nios2eds/bin/gnu/h-x86_64-mingw32/bin/../lib/gcc/nios2-elf/5.3.0/../../../../../H-x86_64-mingw32/nios2-elf/lib/mno-hw-mul\libc.a(lib_a-mallocr.o)
 .text._malloc_r
                0x000000000000dc5c      0x80c e:/quartus_fpga_design/nios2eds/bin/gnu/h-x86_64-mingw32/bin/../lib/gcc/nios2-elf/5.3.0/../../../../../H-x86_64-mingw32/nios2-elf/lib/mno-hw-mul\libc.a(lib_a-mallocr.o)
                0x000000000000dc5c                _malloc_r
 .text          0x000000000000e468        0x0 e:/quartus_fpga_design/nios2eds/bin/gnu/h-x86_64-mingw32/bin/../lib/gcc/nios2-elf/5.3.0/../../../../../H-x86_64-mingw32/nios2-elf/lib/mno-hw-mul\libc.a(lib_a-printf.o)
 .text._printf_r
                0x000000000000e468       0x30 e:/quartus_fpga_design/nios2eds/bin/gnu/h-x86_64-mingw32/bin/../lib/gcc/nios2-elf/5.3.0/../../../../../H-x86_64-mingw32/nios2-elf/lib/mno-hw-mul\libc.a(lib_a-printf.o)
                0x000000000000e468                _printf_r
 .text.printf   0x000000000000e498       0x3c e:/quartus_fpga_design/nios2eds/bin/gnu/h-x86_64-mingw32/bin/../lib/gcc/nios2-elf/5.3.0/../../../../../H-x86_64-mingw32/nios2-elf/lib/mno-hw-mul\libc.a(lib_a-printf.o)
                0x000000000000e498                printf
 .text          0x000000000000e4d4        0x0 e:/quartus_fpga_design/nios2eds/bin/gnu/h-x86_64-mingw32/bin/../lib/gcc/nios2-elf/5.3.0/../../../../../H-x86_64-mingw32/nios2-elf/lib/mno-hw-mul\libc.a(lib_a-puts.o)
 .text._puts_r  0x000000000000e4d4       0xc0 e:/quartus_fpga_design/nios2eds/bin/gnu/h-x86_64-mingw32/bin/../lib/gcc/nios2-elf/5.3.0/../../../../../H-x86_64-mingw32/nios2-elf/lib/mno-hw-mul\libc.a(lib_a-puts.o)
                0x000000000000e4d4                _puts_r
 .text.puts     0x000000000000e594       0x14 e:/quartus_fpga_design/nios2eds/bin/gnu/h-x86_64-mingw32/bin/../lib/gcc/nios2-elf/5.3.0/../../../../../H-x86_64-mingw32/nios2-elf/lib/mno-hw-mul\libc.a(lib_a-puts.o)
                0x000000000000e594                puts
 .text          0x000000000000e5a8        0x0 e:/quartus_fpga_design/nios2eds/bin/gnu/h-x86_64-mingw32/bin/../lib/gcc/nios2-elf/5.3.0/../../../../../H-x86_64-mingw32/nios2-elf/lib/mno-hw-mul\libc.a(lib_a-rand.o)
 .text.srand    0x000000000000e5a8       0x18 e:/quartus_fpga_design/nios2eds/bin/gnu/h-x86_64-mingw32/bin/../lib/gcc/nios2-elf/5.3.0/../../../../../H-x86_64-mingw32/nios2-elf/lib/mno-hw-mul\libc.a(lib_a-rand.o)
                0x000000000000e5a8                srand
 .text.rand     0x000000000000e5c0       0x64 e:/quartus_fpga_design/nios2eds/bin/gnu/h-x86_64-mingw32/bin/../lib/gcc/nios2-elf/5.3.0/../../../../../H-x86_64-mingw32/nios2-elf/lib/mno-hw-mul\libc.a(lib_a-rand.o)
                0x000000000000e5c0                rand
 .text          0x000000000000e624        0x0 e:/quartus_fpga_design/nios2eds/bin/gnu/h-x86_64-mingw32/bin/../lib/gcc/nios2-elf/5.3.0/../../../../../H-x86_64-mingw32/nios2-elf/lib/mno-hw-mul\libc.a(lib_a-sbrkr.o)
 .text._sbrk_r  0x000000000000e624       0x54 e:/quartus_fpga_design/nios2eds/bin/gnu/h-x86_64-mingw32/bin/../lib/gcc/nios2-elf/5.3.0/../../../../../H-x86_64-mingw32/nios2-elf/lib/mno-hw-mul\libc.a(lib_a-sbrkr.o)
                0x000000000000e624                _sbrk_r
 .text          0x000000000000e678        0x0 e:/quartus_fpga_design/nios2eds/bin/gnu/h-x86_64-mingw32/bin/../lib/gcc/nios2-elf/5.3.0/../../../../../H-x86_64-mingw32/nios2-elf/lib/mno-hw-mul\libc.a(lib_a-strlen.o)
 .text.strlen   0x000000000000e678       0x98 e:/quartus_fpga_design/nios2eds/bin/gnu/h-x86_64-mingw32/bin/../lib/gcc/nios2-elf/5.3.0/../../../../../H-x86_64-mingw32/nios2-elf/lib/mno-hw-mul\libc.a(lib_a-strlen.o)
                0x000000000000e678                strlen
 .text          0x000000000000e710        0x0 e:/quartus_fpga_design/nios2eds/bin/gnu/h-x86_64-mingw32/bin/../lib/gcc/nios2-elf/5.3.0/../../../../../H-x86_64-mingw32/nios2-elf/lib/mno-hw-mul\libc.a(lib_a-timesr.o)
 .text._times_r
                0x000000000000e710        0x8 e:/quartus_fpga_design/nios2eds/bin/gnu/h-x86_64-mingw32/bin/../lib/gcc/nios2-elf/5.3.0/../../../../../H-x86_64-mingw32/nios2-elf/lib/mno-hw-mul\libc.a(lib_a-timesr.o)
                0x000000000000e710                _times_r
 .text          0x000000000000e718        0x0 e:/quartus_fpga_design/nios2eds/bin/gnu/h-x86_64-mingw32/bin/../lib/gcc/nios2-elf/5.3.0/../../../../../H-x86_64-mingw32/nios2-elf/lib/mno-hw-mul\libc.a(lib_a-vfprintf.o)
 .text.___vfprintf_internal_r
                0x000000000000e718     0x22dc e:/quartus_fpga_design/nios2eds/bin/gnu/h-x86_64-mingw32/bin/../lib/gcc/nios2-elf/5.3.0/../../../../../H-x86_64-mingw32/nios2-elf/lib/mno-hw-mul\libc.a(lib_a-vfprintf.o)
                0x000000000000e718                ___vfprintf_internal_r
 .text.__vfprintf_internal
                0x00000000000109f4       0x1c e:/quartus_fpga_design/nios2eds/bin/gnu/h-x86_64-mingw32/bin/../lib/gcc/nios2-elf/5.3.0/../../../../../H-x86_64-mingw32/nios2-elf/lib/mno-hw-mul\libc.a(lib_a-vfprintf.o)
                0x00000000000109f4                __vfprintf_internal
 .text.__sbprintf
                0x0000000000010a10       0xbc e:/quartus_fpga_design/nios2eds/bin/gnu/h-x86_64-mingw32/bin/../lib/gcc/nios2-elf/5.3.0/../../../../../H-x86_64-mingw32/nios2-elf/lib/mno-hw-mul\libc.a(lib_a-vfprintf.o)
 .text          0x0000000000010acc        0x0 e:/quartus_fpga_design/nios2eds/bin/gnu/h-x86_64-mingw32/bin/../lib/gcc/nios2-elf/5.3.0/../../../../../H-x86_64-mingw32/nios2-elf/lib/mno-hw-mul\libc.a(lib_a-wsetup.o)
 .text.__swsetup_r
                0x0000000000010acc      0x154 e:/quartus_fpga_design/nios2eds/bin/gnu/h-x86_64-mingw32/bin/../lib/gcc/nios2-elf/5.3.0/../../../../../H-x86_64-mingw32/nios2-elf/lib/mno-hw-mul\libc.a(lib_a-wsetup.o)
                0x0000000000010acc                __swsetup_r
 .text          0x0000000000010c20        0x0 e:/quartus_fpga_design/nios2eds/bin/gnu/h-x86_64-mingw32/bin/../lib/gcc/nios2-elf/5.3.0/../../../../../H-x86_64-mingw32/nios2-elf/lib/mno-hw-mul\libc.a(lib_a-dtoa.o)
 .text.quorem   0x0000000000010c20      0x228 e:/quartus_fpga_design/nios2eds/bin/gnu/h-x86_64-mingw32/bin/../lib/gcc/nios2-elf/5.3.0/../../../../../H-x86_64-mingw32/nios2-elf/lib/mno-hw-mul\libc.a(lib_a-dtoa.o)
 .text._dtoa_r  0x0000000000010e48     0x1688 e:/quartus_fpga_design/nios2eds/bin/gnu/h-x86_64-mingw32/bin/../lib/gcc/nios2-elf/5.3.0/../../../../../H-x86_64-mingw32/nios2-elf/lib/mno-hw-mul\libc.a(lib_a-dtoa.o)
                0x0000000000010e48                _dtoa_r
 .text          0x00000000000124d0        0x0 e:/quartus_fpga_design/nios2eds/bin/gnu/h-x86_64-mingw32/bin/../lib/gcc/nios2-elf/5.3.0/../../../../../H-x86_64-mingw32/nios2-elf/lib/mno-hw-mul\libc.a(lib_a-fflush.o)
 .text.__sflush_r
                0x00000000000124d0      0x21c e:/quartus_fpga_design/nios2eds/bin/gnu/h-x86_64-mingw32/bin/../lib/gcc/nios2-elf/5.3.0/../../../../../H-x86_64-mingw32/nios2-elf/lib/mno-hw-mul\libc.a(lib_a-fflush.o)
                0x00000000000124d0                __sflush_r
 .text._fflush_r
                0x00000000000126ec       0x5c e:/quartus_fpga_design/nios2eds/bin/gnu/h-x86_64-mingw32/bin/../lib/gcc/nios2-elf/5.3.0/../../../../../H-x86_64-mingw32/nios2-elf/lib/mno-hw-mul\libc.a(lib_a-fflush.o)
                0x00000000000126ec                _fflush_r
 .text.fflush   0x0000000000012748       0x30 e:/quartus_fpga_design/nios2eds/bin/gnu/h-x86_64-mingw32/bin/../lib/gcc/nios2-elf/5.3.0/../../../../../H-x86_64-mingw32/nios2-elf/lib/mno-hw-mul\libc.a(lib_a-fflush.o)
                0x0000000000012748                fflush
 .text          0x0000000000012778        0x0 e:/quartus_fpga_design/nios2eds/bin/gnu/h-x86_64-mingw32/bin/../lib/gcc/nios2-elf/5.3.0/../../../../../H-x86_64-mingw32/nios2-elf/lib/mno-hw-mul\libc.a(lib_a-findfp.o)
 .text.__fp_unlock
                0x0000000000012778        0x8 e:/quartus_fpga_design/nios2eds/bin/gnu/h-x86_64-mingw32/bin/../lib/gcc/nios2-elf/5.3.0/../../../../../H-x86_64-mingw32/nios2-elf/lib/mno-hw-mul\libc.a(lib_a-findfp.o)
 .text._cleanup_r
                0x0000000000012780        0xc e:/quartus_fpga_design/nios2eds/bin/gnu/h-x86_64-mingw32/bin/../lib/gcc/nios2-elf/5.3.0/../../../../../H-x86_64-mingw32/nios2-elf/lib/mno-hw-mul\libc.a(lib_a-findfp.o)
                0x0000000000012780                _cleanup_r
 .text.__sinit.part.1
                0x000000000001278c      0x19c e:/quartus_fpga_design/nios2eds/bin/gnu/h-x86_64-mingw32/bin/../lib/gcc/nios2-elf/5.3.0/../../../../../H-x86_64-mingw32/nios2-elf/lib/mno-hw-mul\libc.a(lib_a-findfp.o)
 .text.__fp_lock
                0x0000000000012928        0x8 e:/quartus_fpga_design/nios2eds/bin/gnu/h-x86_64-mingw32/bin/../lib/gcc/nios2-elf/5.3.0/../../../../../H-x86_64-mingw32/nios2-elf/lib/mno-hw-mul\libc.a(lib_a-findfp.o)
 .text.__sfmoreglue
                0x0000000000012930       0x78 e:/quartus_fpga_design/nios2eds/bin/gnu/h-x86_64-mingw32/bin/../lib/gcc/nios2-elf/5.3.0/../../../../../H-x86_64-mingw32/nios2-elf/lib/mno-hw-mul\libc.a(lib_a-findfp.o)
                0x0000000000012930                __sfmoreglue
 .text.__sfp    0x00000000000129a8      0x118 e:/quartus_fpga_design/nios2eds/bin/gnu/h-x86_64-mingw32/bin/../lib/gcc/nios2-elf/5.3.0/../../../../../H-x86_64-mingw32/nios2-elf/lib/mno-hw-mul\libc.a(lib_a-findfp.o)
                0x00000000000129a8                __sfp
 .text._cleanup
                0x0000000000012ac0       0x18 e:/quartus_fpga_design/nios2eds/bin/gnu/h-x86_64-mingw32/bin/../lib/gcc/nios2-elf/5.3.0/../../../../../H-x86_64-mingw32/nios2-elf/lib/mno-hw-mul\libc.a(lib_a-findfp.o)
                0x0000000000012ac0                _cleanup
 .text.__sinit  0x0000000000012ad8       0x10 e:/quartus_fpga_design/nios2eds/bin/gnu/h-x86_64-mingw32/bin/../lib/gcc/nios2-elf/5.3.0/../../../../../H-x86_64-mingw32/nios2-elf/lib/mno-hw-mul\libc.a(lib_a-findfp.o)
                0x0000000000012ad8                __sinit
 .text.__sfp_lock_acquire
                0x0000000000012ae8        0x4 e:/quartus_fpga_design/nios2eds/bin/gnu/h-x86_64-mingw32/bin/../lib/gcc/nios2-elf/5.3.0/../../../../../H-x86_64-mingw32/nios2-elf/lib/mno-hw-mul\libc.a(lib_a-findfp.o)
                0x0000000000012ae8                __sfp_lock_acquire
 .text.__sfp_lock_release
                0x0000000000012aec        0x4 e:/quartus_fpga_design/nios2eds/bin/gnu/h-x86_64-mingw32/bin/../lib/gcc/nios2-elf/5.3.0/../../../../../H-x86_64-mingw32/nios2-elf/lib/mno-hw-mul\libc.a(lib_a-findfp.o)
                0x0000000000012aec                __sfp_lock_release
 .text.__sinit_lock_acquire
                0x0000000000012af0        0x4 e:/quartus_fpga_design/nios2eds/bin/gnu/h-x86_64-mingw32/bin/../lib/gcc/nios2-elf/5.3.0/../../../../../H-x86_64-mingw32/nios2-elf/lib/mno-hw-mul\libc.a(lib_a-findfp.o)
                0x0000000000012af0                __sinit_lock_acquire
 .text.__sinit_lock_release
                0x0000000000012af4        0x4 e:/quartus_fpga_design/nios2eds/bin/gnu/h-x86_64-mingw32/bin/../lib/gcc/nios2-elf/5.3.0/../../../../../H-x86_64-mingw32/nios2-elf/lib/mno-hw-mul\libc.a(lib_a-findfp.o)
                0x0000000000012af4                __sinit_lock_release
 .text.__fp_lock_all
                0x0000000000012af8       0x18 e:/quartus_fpga_design/nios2eds/bin/gnu/h-x86_64-mingw32/bin/../lib/gcc/nios2-elf/5.3.0/../../../../../H-x86_64-mingw32/nios2-elf/lib/mno-hw-mul\libc.a(lib_a-findfp.o)
                0x0000000000012af8                __fp_lock_all
 .text.__fp_unlock_all
                0x0000000000012b10       0x18 e:/quartus_fpga_design/nios2eds/bin/gnu/h-x86_64-mingw32/bin/../lib/gcc/nios2-elf/5.3.0/../../../../../H-x86_64-mingw32/nios2-elf/lib/mno-hw-mul\libc.a(lib_a-findfp.o)
                0x0000000000012b10                __fp_unlock_all
 .text          0x0000000000012b28        0x0 e:/quartus_fpga_design/nios2eds/bin/gnu/h-x86_64-mingw32/bin/../lib/gcc/nios2-elf/5.3.0/../../../../../H-x86_64-mingw32/nios2-elf/lib/mno-hw-mul\libc.a(lib_a-freer.o)
 .text._malloc_trim_r
                0x0000000000012b28      0x124 e:/quartus_fpga_design/nios2eds/bin/gnu/h-x86_64-mingw32/bin/../lib/gcc/nios2-elf/5.3.0/../../../../../H-x86_64-mingw32/nios2-elf/lib/mno-hw-mul\libc.a(lib_a-freer.o)
                0x0000000000012b28                _malloc_trim_r
 .text._free_r  0x0000000000012c4c      0x310 e:/quartus_fpga_design/nios2eds/bin/gnu/h-x86_64-mingw32/bin/../lib/gcc/nios2-elf/5.3.0/../../../../../H-x86_64-mingw32/nios2-elf/lib/mno-hw-mul\libc.a(lib_a-freer.o)
                0x0000000000012c4c                _free_r
 .text          0x0000000000012f5c        0x0 e:/quartus_fpga_design/nios2eds/bin/gnu/h-x86_64-mingw32/bin/../lib/gcc/nios2-elf/5.3.0/../../../../../H-x86_64-mingw32/nios2-elf/lib/mno-hw-mul\libc.a(lib_a-fvwrite.o)
 .text.__sfvwrite_r
                0x0000000000012f5c      0x4c8 e:/quartus_fpga_design/nios2eds/bin/gnu/h-x86_64-mingw32/bin/../lib/gcc/nios2-elf/5.3.0/../../../../../H-x86_64-mingw32/nios2-elf/lib/mno-hw-mul\libc.a(lib_a-fvwrite.o)
                0x0000000000012f5c                __sfvwrite_r
 .text          0x0000000000013424        0x0 e:/quartus_fpga_design/nios2eds/bin/gnu/h-x86_64-mingw32/bin/../lib/gcc/nios2-elf/5.3.0/../../../../../H-x86_64-mingw32/nios2-elf/lib/mno-hw-mul\libc.a(lib_a-fwalk.o)
 .text._fwalk   0x0000000000013424       0xc4 e:/quartus_fpga_design/nios2eds/bin/gnu/h-x86_64-mingw32/bin/../lib/gcc/nios2-elf/5.3.0/../../../../../H-x86_64-mingw32/nios2-elf/lib/mno-hw-mul\libc.a(lib_a-fwalk.o)
                0x0000000000013424                _fwalk
 .text._fwalk_reent
                0x00000000000134e8       0xc4 e:/quartus_fpga_design/nios2eds/bin/gnu/h-x86_64-mingw32/bin/../lib/gcc/nios2-elf/5.3.0/../../../../../H-x86_64-mingw32/nios2-elf/lib/mno-hw-mul\libc.a(lib_a-fwalk.o)
                0x00000000000134e8                _fwalk_reent
 .text          0x00000000000135ac        0x0 e:/quartus_fpga_design/nios2eds/bin/gnu/h-x86_64-mingw32/bin/../lib/gcc/nios2-elf/5.3.0/../../../../../H-x86_64-mingw32/nios2-elf/lib/mno-hw-mul\libc.a(lib_a-int_errno.o)
 .text          0x00000000000135ac        0x0 e:/quartus_fpga_design/nios2eds/bin/gnu/h-x86_64-mingw32/bin/../lib/gcc/nios2-elf/5.3.0/../../../../../H-x86_64-mingw32/nios2-elf/lib/mno-hw-mul\libc.a(lib_a-locale.o)
 .text._setlocale_r
                0x00000000000135ac       0x7c e:/quartus_fpga_design/nios2eds/bin/gnu/h-x86_64-mingw32/bin/../lib/gcc/nios2-elf/5.3.0/../../../../../H-x86_64-mingw32/nios2-elf/lib/mno-hw-mul\libc.a(lib_a-locale.o)
                0x00000000000135ac                _setlocale_r
 .text.__locale_charset
                0x0000000000013628        0xc e:/quartus_fpga_design/nios2eds/bin/gnu/h-x86_64-mingw32/bin/../lib/gcc/nios2-elf/5.3.0/../../../../../H-x86_64-mingw32/nios2-elf/lib/mno-hw-mul\libc.a(lib_a-locale.o)
                0x0000000000013628                __locale_charset
 .text.__locale_mb_cur_max
                0x0000000000013634       0x10 e:/quartus_fpga_design/nios2eds/bin/gnu/h-x86_64-mingw32/bin/../lib/gcc/nios2-elf/5.3.0/../../../../../H-x86_64-mingw32/nios2-elf/lib/mno-hw-mul\libc.a(lib_a-locale.o)
                0x0000000000013634                __locale_mb_cur_max
 .text.__locale_msgcharset
                0x0000000000013644        0xc e:/quartus_fpga_design/nios2eds/bin/gnu/h-x86_64-mingw32/bin/../lib/gcc/nios2-elf/5.3.0/../../../../../H-x86_64-mingw32/nios2-elf/lib/mno-hw-mul\libc.a(lib_a-locale.o)
                0x0000000000013644                __locale_msgcharset
 .text.__locale_cjk_lang
                0x0000000000013650        0x8 e:/quartus_fpga_design/nios2eds/bin/gnu/h-x86_64-mingw32/bin/../lib/gcc/nios2-elf/5.3.0/../../../../../H-x86_64-mingw32/nios2-elf/lib/mno-hw-mul\libc.a(lib_a-locale.o)
                0x0000000000013650                __locale_cjk_lang
 .text._localeconv_r
                0x0000000000013658        0xc e:/quartus_fpga_design/nios2eds/bin/gnu/h-x86_64-mingw32/bin/../lib/gcc/nios2-elf/5.3.0/../../../../../H-x86_64-mingw32/nios2-elf/lib/mno-hw-mul\libc.a(lib_a-locale.o)
                0x0000000000013658                _localeconv_r
 .text.setlocale
                0x0000000000013664       0x18 e:/quartus_fpga_design/nios2eds/bin/gnu/h-x86_64-mingw32/bin/../lib/gcc/nios2-elf/5.3.0/../../../../../H-x86_64-mingw32/nios2-elf/lib/mno-hw-mul\libc.a(lib_a-locale.o)
                0x0000000000013664                setlocale
 .text.localeconv
                0x000000000001367c        0xc e:/quartus_fpga_design/nios2eds/bin/gnu/h-x86_64-mingw32/bin/../lib/gcc/nios2-elf/5.3.0/../../../../../H-x86_64-mingw32/nios2-elf/lib/mno-hw-mul\libc.a(lib_a-locale.o)
                0x000000000001367c                localeconv
 .text          0x0000000000013688        0x0 e:/quartus_fpga_design/nios2eds/bin/gnu/h-x86_64-mingw32/bin/../lib/gcc/nios2-elf/5.3.0/../../../../../H-x86_64-mingw32/nios2-elf/lib/mno-hw-mul\libc.a(lib_a-makebuf.o)
 .text.__smakebuf_r
                0x0000000000013688      0x1bc e:/quartus_fpga_design/nios2eds/bin/gnu/h-x86_64-mingw32/bin/../lib/gcc/nios2-elf/5.3.0/../../../../../H-x86_64-mingw32/nios2-elf/lib/mno-hw-mul\libc.a(lib_a-makebuf.o)
                0x0000000000013688                __smakebuf_r
 .text          0x0000000000013844        0x0 e:/quartus_fpga_design/nios2eds/bin/gnu/h-x86_64-mingw32/bin/../lib/gcc/nios2-elf/5.3.0/../../../../../H-x86_64-mingw32/nios2-elf/lib/mno-hw-mul\libc.a(lib_a-memchr.o)
 .text.memchr   0x0000000000013844       0xe4 e:/quartus_fpga_design/nios2eds/bin/gnu/h-x86_64-mingw32/bin/../lib/gcc/nios2-elf/5.3.0/../../../../../H-x86_64-mingw32/nios2-elf/lib/mno-hw-mul\libc.a(lib_a-memchr.o)
                0x0000000000013844                memchr
 .text          0x0000000000013928        0x0 e:/quartus_fpga_design/nios2eds/bin/gnu/h-x86_64-mingw32/bin/../lib/gcc/nios2-elf/5.3.0/../../../../../H-x86_64-mingw32/nios2-elf/lib/mno-hw-mul\libc.a(lib_a-memcpy.o)
 .text.memcpy   0x0000000000013928      0x148 e:/quartus_fpga_design/nios2eds/bin/gnu/h-x86_64-mingw32/bin/../lib/gcc/nios2-elf/5.3.0/../../../../../H-x86_64-mingw32/nios2-elf/lib/mno-hw-mul\libc.a(lib_a-memcpy.o)
                0x0000000000013928                memcpy
 .text          0x0000000000013a70        0x0 e:/quartus_fpga_design/nios2eds/bin/gnu/h-x86_64-mingw32/bin/../lib/gcc/nios2-elf/5.3.0/../../../../../H-x86_64-mingw32/nios2-elf/lib/mno-hw-mul\libc.a(lib_a-memmove.o)
 .text.memmove  0x0000000000013a70      0x15c e:/quartus_fpga_design/nios2eds/bin/gnu/h-x86_64-mingw32/bin/../lib/gcc/nios2-elf/5.3.0/../../../../../H-x86_64-mingw32/nios2-elf/lib/mno-hw-mul\libc.a(lib_a-memmove.o)
                0x0000000000013a70                memmove
 .text          0x0000000000013bcc        0x0 e:/quartus_fpga_design/nios2eds/bin/gnu/h-x86_64-mingw32/bin/../lib/gcc/nios2-elf/5.3.0/../../../../../H-x86_64-mingw32/nios2-elf/lib/mno-hw-mul\libc.a(lib_a-memset.o)
 .text.memset   0x0000000000013bcc      0x128 e:/quartus_fpga_design/nios2eds/bin/gnu/h-x86_64-mingw32/bin/../lib/gcc/nios2-elf/5.3.0/../../../../../H-x86_64-mingw32/nios2-elf/lib/mno-hw-mul\libc.a(lib_a-memset.o)
                0x0000000000013bcc                memset
 .text          0x0000000000013cf4        0x0 e:/quartus_fpga_design/nios2eds/bin/gnu/h-x86_64-mingw32/bin/../lib/gcc/nios2-elf/5.3.0/../../../../../H-x86_64-mingw32/nios2-elf/lib/mno-hw-mul\libc.a(lib_a-mprec.o)
 .text._Balloc  0x0000000000013cf4       0xa8 e:/quartus_fpga_design/nios2eds/bin/gnu/h-x86_64-mingw32/bin/../lib/gcc/nios2-elf/5.3.0/../../../../../H-x86_64-mingw32/nios2-elf/lib/mno-hw-mul\libc.a(lib_a-mprec.o)
                0x0000000000013cf4                _Balloc
 .text._Bfree   0x0000000000013d9c       0x28 e:/quartus_fpga_design/nios2eds/bin/gnu/h-x86_64-mingw32/bin/../lib/gcc/nios2-elf/5.3.0/../../../../../H-x86_64-mingw32/nios2-elf/lib/mno-hw-mul\libc.a(lib_a-mprec.o)
                0x0000000000013d9c                _Bfree
 .text.__multadd
                0x0000000000013dc4      0x148 e:/quartus_fpga_design/nios2eds/bin/gnu/h-x86_64-mingw32/bin/../lib/gcc/nios2-elf/5.3.0/../../../../../H-x86_64-mingw32/nios2-elf/lib/mno-hw-mul\libc.a(lib_a-mprec.o)
                0x0000000000013dc4                __multadd
 .text.__s2b    0x0000000000013f0c      0x104 e:/quartus_fpga_design/nios2eds/bin/gnu/h-x86_64-mingw32/bin/../lib/gcc/nios2-elf/5.3.0/../../../../../H-x86_64-mingw32/nios2-elf/lib/mno-hw-mul\libc.a(lib_a-mprec.o)
                0x0000000000013f0c                __s2b
 .text.__hi0bits
                0x0000000000014010       0x68 e:/quartus_fpga_design/nios2eds/bin/gnu/h-x86_64-mingw32/bin/../lib/gcc/nios2-elf/5.3.0/../../../../../H-x86_64-mingw32/nios2-elf/lib/mno-hw-mul\libc.a(lib_a-mprec.o)
                0x0000000000014010                __hi0bits
 .text.__lo0bits
                0x0000000000014078       0xb0 e:/quartus_fpga_design/nios2eds/bin/gnu/h-x86_64-mingw32/bin/../lib/gcc/nios2-elf/5.3.0/../../../../../H-x86_64-mingw32/nios2-elf/lib/mno-hw-mul\libc.a(lib_a-mprec.o)
                0x0000000000014078                __lo0bits
 .text.__i2b    0x0000000000014128       0x3c e:/quartus_fpga_design/nios2eds/bin/gnu/h-x86_64-mingw32/bin/../lib/gcc/nios2-elf/5.3.0/../../../../../H-x86_64-mingw32/nios2-elf/lib/mno-hw-mul\libc.a(lib_a-mprec.o)
                0x0000000000014128                __i2b
 .text.__multiply
                0x0000000000014164      0x28c e:/quartus_fpga_design/nios2eds/bin/gnu/h-x86_64-mingw32/bin/../lib/gcc/nios2-elf/5.3.0/../../../../../H-x86_64-mingw32/nios2-elf/lib/mno-hw-mul\libc.a(lib_a-mprec.o)
                0x0000000000014164                __multiply
 .text.__pow5mult
                0x00000000000143f0      0x140 e:/quartus_fpga_design/nios2eds/bin/gnu/h-x86_64-mingw32/bin/../lib/gcc/nios2-elf/5.3.0/../../../../../H-x86_64-mingw32/nios2-elf/lib/mno-hw-mul\libc.a(lib_a-mprec.o)
                0x00000000000143f0                __pow5mult
 .text.__lshift
                0x0000000000014530      0x148 e:/quartus_fpga_design/nios2eds/bin/gnu/h-x86_64-mingw32/bin/../lib/gcc/nios2-elf/5.3.0/../../../../../H-x86_64-mingw32/nios2-elf/lib/mno-hw-mul\libc.a(lib_a-mprec.o)
                0x0000000000014530                __lshift
 .text.__mcmp   0x0000000000014678       0x60 e:/quartus_fpga_design/nios2eds/bin/gnu/h-x86_64-mingw32/bin/../lib/gcc/nios2-elf/5.3.0/../../../../../H-x86_64-mingw32/nios2-elf/lib/mno-hw-mul\libc.a(lib_a-mprec.o)
                0x0000000000014678                __mcmp
 .text.__mdiff  0x00000000000146d8      0x1fc e:/quartus_fpga_design/nios2eds/bin/gnu/h-x86_64-mingw32/bin/../lib/gcc/nios2-elf/5.3.0/../../../../../H-x86_64-mingw32/nios2-elf/lib/mno-hw-mul\libc.a(lib_a-mprec.o)
                0x00000000000146d8                __mdiff
 .text.__ulp    0x00000000000148d4       0x64 e:/quartus_fpga_design/nios2eds/bin/gnu/h-x86_64-mingw32/bin/../lib/gcc/nios2-elf/5.3.0/../../../../../H-x86_64-mingw32/nios2-elf/lib/mno-hw-mul\libc.a(lib_a-mprec.o)
                0x00000000000148d4                __ulp
 .text.__b2d    0x0000000000014938      0x10c e:/quartus_fpga_design/nios2eds/bin/gnu/h-x86_64-mingw32/bin/../lib/gcc/nios2-elf/5.3.0/../../../../../H-x86_64-mingw32/nios2-elf/lib/mno-hw-mul\libc.a(lib_a-mprec.o)
                0x0000000000014938                __b2d
 .text.__d2b    0x0000000000014a44      0x14c e:/quartus_fpga_design/nios2eds/bin/gnu/h-x86_64-mingw32/bin/../lib/gcc/nios2-elf/5.3.0/../../../../../H-x86_64-mingw32/nios2-elf/lib/mno-hw-mul\libc.a(lib_a-mprec.o)
                0x0000000000014a44                __d2b
 .text.__ratio  0x0000000000014b90       0xa4 e:/quartus_fpga_design/nios2eds/bin/gnu/h-x86_64-mingw32/bin/../lib/gcc/nios2-elf/5.3.0/../../../../../H-x86_64-mingw32/nios2-elf/lib/mno-hw-mul\libc.a(lib_a-mprec.o)
                0x0000000000014b90                __ratio
 .text._mprec_log10
                0x0000000000014c34       0x74 e:/quartus_fpga_design/nios2eds/bin/gnu/h-x86_64-mingw32/bin/../lib/gcc/nios2-elf/5.3.0/../../../../../H-x86_64-mingw32/nios2-elf/lib/mno-hw-mul\libc.a(lib_a-mprec.o)
                0x0000000000014c34                _mprec_log10
 .text.__copybits
                0x0000000000014ca8       0x78 e:/quartus_fpga_design/nios2eds/bin/gnu/h-x86_64-mingw32/bin/../lib/gcc/nios2-elf/5.3.0/../../../../../H-x86_64-mingw32/nios2-elf/lib/mno-hw-mul\libc.a(lib_a-mprec.o)
                0x0000000000014ca8                __copybits
 .text.__any_on
                0x0000000000014d20       0x8c e:/quartus_fpga_design/nios2eds/bin/gnu/h-x86_64-mingw32/bin/../lib/gcc/nios2-elf/5.3.0/../../../../../H-x86_64-mingw32/nios2-elf/lib/mno-hw-mul\libc.a(lib_a-mprec.o)
                0x0000000000014d20                __any_on
 .text          0x0000000000014dac        0x0 e:/quartus_fpga_design/nios2eds/bin/gnu/h-x86_64-mingw32/bin/../lib/gcc/nios2-elf/5.3.0/../../../../../H-x86_64-mingw32/nios2-elf/lib/mno-hw-mul\libc.a(lib_a-reallocr.o)
 .text._realloc_r
                0x0000000000014dac      0x564 e:/quartus_fpga_design/nios2eds/bin/gnu/h-x86_64-mingw32/bin/../lib/gcc/nios2-elf/5.3.0/../../../../../H-x86_64-mingw32/nios2-elf/lib/mno-hw-mul\libc.a(lib_a-reallocr.o)
                0x0000000000014dac                _realloc_r
 .text          0x0000000000015310        0x0 e:/quartus_fpga_design/nios2eds/bin/gnu/h-x86_64-mingw32/bin/../lib/gcc/nios2-elf/5.3.0/../../../../../H-x86_64-mingw32/nios2-elf/lib/mno-hw-mul\libc.a(lib_a-s_fpclassify.o)
 .text.__fpclassifyd
                0x0000000000015310       0x74 e:/quartus_fpga_design/nios2eds/bin/gnu/h-x86_64-mingw32/bin/../lib/gcc/nios2-elf/5.3.0/../../../../../H-x86_64-mingw32/nios2-elf/lib/mno-hw-mul\libc.a(lib_a-s_fpclassify.o)
                0x0000000000015310                __fpclassifyd
 .text          0x0000000000015384        0x0 e:/quartus_fpga_design/nios2eds/bin/gnu/h-x86_64-mingw32/bin/../lib/gcc/nios2-elf/5.3.0/../../../../../H-x86_64-mingw32/nios2-elf/lib/mno-hw-mul\libc.a(lib_a-stdio.o)
 .text.__sread  0x0000000000015384       0x54 e:/quartus_fpga_design/nios2eds/bin/gnu/h-x86_64-mingw32/bin/../lib/gcc/nios2-elf/5.3.0/../../../../../H-x86_64-mingw32/nios2-elf/lib/mno-hw-mul\libc.a(lib_a-stdio.o)
                0x0000000000015384                __sread
 .text.__seofread
                0x00000000000153d8        0x8 e:/quartus_fpga_design/nios2eds/bin/gnu/h-x86_64-mingw32/bin/../lib/gcc/nios2-elf/5.3.0/../../../../../H-x86_64-mingw32/nios2-elf/lib/mno-hw-mul\libc.a(lib_a-stdio.o)
                0x00000000000153d8                __seofread
 .text.__swrite
                0x00000000000153e0       0x7c e:/quartus_fpga_design/nios2eds/bin/gnu/h-x86_64-mingw32/bin/../lib/gcc/nios2-elf/5.3.0/../../../../../H-x86_64-mingw32/nios2-elf/lib/mno-hw-mul\libc.a(lib_a-stdio.o)
                0x00000000000153e0                __swrite
 .text.__sseek  0x000000000001545c       0x5c e:/quartus_fpga_design/nios2eds/bin/gnu/h-x86_64-mingw32/bin/../lib/gcc/nios2-elf/5.3.0/../../../../../H-x86_64-mingw32/nios2-elf/lib/mno-hw-mul\libc.a(lib_a-stdio.o)
                0x000000000001545c                __sseek
 .text.__sclose
                0x00000000000154b8        0x8 e:/quartus_fpga_design/nios2eds/bin/gnu/h-x86_64-mingw32/bin/../lib/gcc/nios2-elf/5.3.0/../../../../../H-x86_64-mingw32/nios2-elf/lib/mno-hw-mul\libc.a(lib_a-stdio.o)
                0x00000000000154b8                __sclose
 .text          0x00000000000154c0        0x0 e:/quartus_fpga_design/nios2eds/bin/gnu/h-x86_64-mingw32/bin/../lib/gcc/nios2-elf/5.3.0/../../../../../H-x86_64-mingw32/nios2-elf/lib/mno-hw-mul\libc.a(lib_a-strcmp.o)
 .text.strcmp   0x00000000000154c0       0xdc e:/quartus_fpga_design/nios2eds/bin/gnu/h-x86_64-mingw32/bin/../lib/gcc/nios2-elf/5.3.0/../../../../../H-x86_64-mingw32/nios2-elf/lib/mno-hw-mul\libc.a(lib_a-strcmp.o)
                0x00000000000154c0                strcmp
 .text          0x000000000001559c        0x0 e:/quartus_fpga_design/nios2eds/bin/gnu/h-x86_64-mingw32/bin/../lib/gcc/nios2-elf/5.3.0/../../../../../H-x86_64-mingw32/nios2-elf/lib/mno-hw-mul\libc.a(lib_a-vfiprintf.o)
 .text.__sprint_r.part.0
                0x000000000001559c       0xfc e:/quartus_fpga_design/nios2eds/bin/gnu/h-x86_64-mingw32/bin/../lib/gcc/nios2-elf/5.3.0/../../../../../H-x86_64-mingw32/nios2-elf/lib/mno-hw-mul\libc.a(lib_a-vfiprintf.o)
 .text.__sprint_r
                0x0000000000015698       0x18 e:/quartus_fpga_design/nios2eds/bin/gnu/h-x86_64-mingw32/bin/../lib/gcc/nios2-elf/5.3.0/../../../../../H-x86_64-mingw32/nios2-elf/lib/mno-hw-mul\libc.a(lib_a-vfiprintf.o)
                0x0000000000015698                __sprint_r
 .text.___vfiprintf_internal_r
                0x00000000000156b0     0x150c e:/quartus_fpga_design/nios2eds/bin/gnu/h-x86_64-mingw32/bin/../lib/gcc/nios2-elf/5.3.0/../../../../../H-x86_64-mingw32/nios2-elf/lib/mno-hw-mul\libc.a(lib_a-vfiprintf.o)
                0x00000000000156b0                ___vfiprintf_internal_r
 .text.__vfiprintf_internal
                0x0000000000016bbc       0x1c e:/quartus_fpga_design/nios2eds/bin/gnu/h-x86_64-mingw32/bin/../lib/gcc/nios2-elf/5.3.0/../../../../../H-x86_64-mingw32/nios2-elf/lib/mno-hw-mul\libc.a(lib_a-vfiprintf.o)
                0x0000000000016bbc                __vfiprintf_internal
 .text.__sbprintf
                0x0000000000016bd8       0xbc e:/quartus_fpga_design/nios2eds/bin/gnu/h-x86_64-mingw32/bin/../lib/gcc/nios2-elf/5.3.0/../../../../../H-x86_64-mingw32/nios2-elf/lib/mno-hw-mul\libc.a(lib_a-vfiprintf.o)
 .text          0x0000000000016c94        0x0 e:/quartus_fpga_design/nios2eds/bin/gnu/h-x86_64-mingw32/bin/../lib/gcc/nios2-elf/5.3.0/../../../../../H-x86_64-mingw32/nios2-elf/lib/mno-hw-mul\libc.a(lib_a-writer.o)
 .text._write_r
                0x0000000000016c94       0x60 e:/quartus_fpga_design/nios2eds/bin/gnu/h-x86_64-mingw32/bin/../lib/gcc/nios2-elf/5.3.0/../../../../../H-x86_64-mingw32/nios2-elf/lib/mno-hw-mul\libc.a(lib_a-writer.o)
                0x0000000000016c94                _write_r
 .text          0x0000000000016cf4        0x0 e:/quartus_fpga_design/nios2eds/bin/gnu/h-x86_64-mingw32/bin/../lib/gcc/nios2-elf/5.3.0/../../../../../H-x86_64-mingw32/nios2-elf/lib/mno-hw-mul\libc.a(closer.o)
 .text._close_r
                0x0000000000016cf4       0x54 e:/quartus_fpga_design/nios2eds/bin/gnu/h-x86_64-mingw32/bin/../lib/gcc/nios2-elf/5.3.0/../../../../../H-x86_64-mingw32/nios2-elf/lib/mno-hw-mul\libc.a(closer.o)
                0x0000000000016cf4                _close_r
 .text          0x0000000000016d48        0x0 e:/quartus_fpga_design/nios2eds/bin/gnu/h-x86_64-mingw32/bin/../lib/gcc/nios2-elf/5.3.0/../../../../../H-x86_64-mingw32/nios2-elf/lib/mno-hw-mul\libc.a(lib_a-callocr.o)
 .text._calloc_r
                0x0000000000016d48       0xdc e:/quartus_fpga_design/nios2eds/bin/gnu/h-x86_64-mingw32/bin/../lib/gcc/nios2-elf/5.3.0/../../../../../H-x86_64-mingw32/nios2-elf/lib/mno-hw-mul\libc.a(lib_a-callocr.o)
                0x0000000000016d48                _calloc_r
 .text          0x0000000000016e24        0x0 e:/quartus_fpga_design/nios2eds/bin/gnu/h-x86_64-mingw32/bin/../lib/gcc/nios2-elf/5.3.0/../../../../../H-x86_64-mingw32/nios2-elf/lib/mno-hw-mul\libc.a(lib_a-fclose.o)
 .text._fclose_r
                0x0000000000016e24       0xf0 e:/quartus_fpga_design/nios2eds/bin/gnu/h-x86_64-mingw32/bin/../lib/gcc/nios2-elf/5.3.0/../../../../../H-x86_64-mingw32/nios2-elf/lib/mno-hw-mul\libc.a(lib_a-fclose.o)
                0x0000000000016e24                _fclose_r
 .text.fclose   0x0000000000016f14       0x14 e:/quartus_fpga_design/nios2eds/bin/gnu/h-x86_64-mingw32/bin/../lib/gcc/nios2-elf/5.3.0/../../../../../H-x86_64-mingw32/nios2-elf/lib/mno-hw-mul\libc.a(lib_a-fclose.o)
                0x0000000000016f14                fclose
 .text          0x0000000000016f28        0x0 e:/quartus_fpga_design/nios2eds/bin/gnu/h-x86_64-mingw32/bin/../lib/gcc/nios2-elf/5.3.0/../../../../../H-x86_64-mingw32/nios2-elf/lib/mno-hw-mul\libc.a(lib_a-fputwc.o)
 .text.__fputwc
                0x0000000000016f28      0x164 e:/quartus_fpga_design/nios2eds/bin/gnu/h-x86_64-mingw32/bin/../lib/gcc/nios2-elf/5.3.0/../../../../../H-x86_64-mingw32/nios2-elf/lib/mno-hw-mul\libc.a(lib_a-fputwc.o)
                0x0000000000016f28                __fputwc
 .text._fputwc_r
                0x000000000001708c       0x24 e:/quartus_fpga_design/nios2eds/bin/gnu/h-x86_64-mingw32/bin/../lib/gcc/nios2-elf/5.3.0/../../../../../H-x86_64-mingw32/nios2-elf/lib/mno-hw-mul\libc.a(lib_a-fputwc.o)
                0x000000000001708c                _fputwc_r
 .text.fputwc   0x00000000000170b0       0x80 e:/quartus_fpga_design/nios2eds/bin/gnu/h-x86_64-mingw32/bin/../lib/gcc/nios2-elf/5.3.0/../../../../../H-x86_64-mingw32/nios2-elf/lib/mno-hw-mul\libc.a(lib_a-fputwc.o)
                0x00000000000170b0                fputwc
 .text          0x0000000000017130        0x0 e:/quartus_fpga_design/nios2eds/bin/gnu/h-x86_64-mingw32/bin/../lib/gcc/nios2-elf/5.3.0/../../../../../H-x86_64-mingw32/nios2-elf/lib/mno-hw-mul\libc.a(lib_a-fstatr.o)
 .text._fstat_r
                0x0000000000017130       0x5c e:/quartus_fpga_design/nios2eds/bin/gnu/h-x86_64-mingw32/bin/../lib/gcc/nios2-elf/5.3.0/../../../../../H-x86_64-mingw32/nios2-elf/lib/mno-hw-mul\libc.a(lib_a-fstatr.o)
                0x0000000000017130                _fstat_r
 .text          0x000000000001718c        0x0 e:/quartus_fpga_design/nios2eds/bin/gnu/h-x86_64-mingw32/bin/../lib/gcc/nios2-elf/5.3.0/../../../../../H-x86_64-mingw32/nios2-elf/lib/mno-hw-mul\libc.a(lib_a-isattyr.o)
 .text._isatty_r
                0x000000000001718c       0x54 e:/quartus_fpga_design/nios2eds/bin/gnu/h-x86_64-mingw32/bin/../lib/gcc/nios2-elf/5.3.0/../../../../../H-x86_64-mingw32/nios2-elf/lib/mno-hw-mul\libc.a(lib_a-isattyr.o)
                0x000000000001718c                _isatty_r
 .text          0x00000000000171e0        0x0 e:/quartus_fpga_design/nios2eds/bin/gnu/h-x86_64-mingw32/bin/../lib/gcc/nios2-elf/5.3.0/../../../../../H-x86_64-mingw32/nios2-elf/lib/mno-hw-mul\libc.a(lib_a-lseekr.o)
 .text._lseek_r
                0x00000000000171e0       0x60 e:/quartus_fpga_design/nios2eds/bin/gnu/h-x86_64-mingw32/bin/../lib/gcc/nios2-elf/5.3.0/../../../../../H-x86_64-mingw32/nios2-elf/lib/mno-hw-mul\libc.a(lib_a-lseekr.o)
                0x00000000000171e0                _lseek_r
 .text          0x0000000000017240        0x0 e:/quartus_fpga_design/nios2eds/bin/gnu/h-x86_64-mingw32/bin/../lib/gcc/nios2-elf/5.3.0/../../../../../H-x86_64-mingw32/nios2-elf/lib/mno-hw-mul\libc.a(lib_a-readr.o)
 .text._read_r  0x0000000000017240       0x60 e:/quartus_fpga_design/nios2eds/bin/gnu/h-x86_64-mingw32/bin/../lib/gcc/nios2-elf/5.3.0/../../../../../H-x86_64-mingw32/nios2-elf/lib/mno-hw-mul\libc.a(lib_a-readr.o)
                0x0000000000017240                _read_r
 .text          0x00000000000172a0        0x0 e:/quartus_fpga_design/nios2eds/bin/gnu/h-x86_64-mingw32/bin/../lib/gcc/nios2-elf/5.3.0/../../../../../H-x86_64-mingw32/nios2-elf/lib/mno-hw-mul\libc.a(lib_a-wbuf.o)
 .text.__swbuf_r
                0x00000000000172a0      0x140 e:/quartus_fpga_design/nios2eds/bin/gnu/h-x86_64-mingw32/bin/../lib/gcc/nios2-elf/5.3.0/../../../../../H-x86_64-mingw32/nios2-elf/lib/mno-hw-mul\libc.a(lib_a-wbuf.o)
                0x00000000000172a0                __swbuf_r
 .text.__swbuf  0x00000000000173e0       0x18 e:/quartus_fpga_design/nios2eds/bin/gnu/h-x86_64-mingw32/bin/../lib/gcc/nios2-elf/5.3.0/../../../../../H-x86_64-mingw32/nios2-elf/lib/mno-hw-mul\libc.a(lib_a-wbuf.o)
                0x00000000000173e0                __swbuf
 .text          0x00000000000173f8        0x0 e:/quartus_fpga_design/nios2eds/bin/gnu/h-x86_64-mingw32/bin/../lib/gcc/nios2-elf/5.3.0/../../../../../H-x86_64-mingw32/nios2-elf/lib/mno-hw-mul\libc.a(lib_a-wcrtomb.o)
 .text._wcrtomb_r
                0x00000000000173f8       0x9c e:/quartus_fpga_design/nios2eds/bin/gnu/h-x86_64-mingw32/bin/../lib/gcc/nios2-elf/5.3.0/../../../../../H-x86_64-mingw32/nios2-elf/lib/mno-hw-mul\libc.a(lib_a-wcrtomb.o)
                0x00000000000173f8                _wcrtomb_r
 .text.wcrtomb  0x0000000000017494       0xc0 e:/quartus_fpga_design/nios2eds/bin/gnu/h-x86_64-mingw32/bin/../lib/gcc/nios2-elf/5.3.0/../../../../../H-x86_64-mingw32/nios2-elf/lib/mno-hw-mul\libc.a(lib_a-wcrtomb.o)
                0x0000000000017494                wcrtomb
 .text          0x0000000000017554        0x0 e:/quartus_fpga_design/nios2eds/bin/gnu/h-x86_64-mingw32/bin/../lib/gcc/nios2-elf/5.3.0/../../../../../H-x86_64-mingw32/nios2-elf/lib/mno-hw-mul\libc.a(lib_a-wctomb_r.o)
 .text.__ascii_wctomb
                0x0000000000017554       0x30 e:/quartus_fpga_design/nios2eds/bin/gnu/h-x86_64-mingw32/bin/../lib/gcc/nios2-elf/5.3.0/../../../../../H-x86_64-mingw32/nios2-elf/lib/mno-hw-mul\libc.a(lib_a-wctomb_r.o)
                0x0000000000017554                __ascii_wctomb
 .text._wctomb_r
                0x0000000000017584       0x5c e:/quartus_fpga_design/nios2eds/bin/gnu/h-x86_64-mingw32/bin/../lib/gcc/nios2-elf/5.3.0/../../../../../H-x86_64-mingw32/nios2-elf/lib/mno-hw-mul\libc.a(lib_a-wctomb_r.o)
                0x0000000000017584                _wctomb_r
 .text          0x00000000000175e0      0x10c e:/quartus_fpga_design/nios2eds/bin/gnu/h-x86_64-mingw32/bin/../lib/gcc/nios2-elf/5.3.0/mno-hw-mul\libgcc.a(_muldi3.o)
                0x00000000000175e0                __muldi3
 .text          0x00000000000176ec      0x5fc e:/quartus_fpga_design/nios2eds/bin/gnu/h-x86_64-mingw32/bin/../lib/gcc/nios2-elf/5.3.0/mno-hw-mul\libgcc.a(_udivdi3.o)
                0x00000000000176ec                __udivdi3
 .text          0x0000000000017ce8      0x5c4 e:/quartus_fpga_design/nios2eds/bin/gnu/h-x86_64-mingw32/bin/../lib/gcc/nios2-elf/5.3.0/mno-hw-mul\libgcc.a(_umoddi3.o)
                0x0000000000017ce8                __umoddi3
 .text          0x00000000000182ac      0x8ac e:/quartus_fpga_design/nios2eds/bin/gnu/h-x86_64-mingw32/bin/../lib/gcc/nios2-elf/5.3.0/mno-hw-mul\libgcc.a(adddf3.o)
                0x00000000000182ac                __adddf3
 .text          0x0000000000018b58       0x88 e:/quartus_fpga_design/nios2eds/bin/gnu/h-x86_64-mingw32/bin/../lib/gcc/nios2-elf/5.3.0/mno-hw-mul\libgcc.a(eqdf2.o)
                0x0000000000018b58                __nedf2
                0x0000000000018b58                __eqdf2
 .text          0x0000000000018be0       0xf4 e:/quartus_fpga_design/nios2eds/bin/gnu/h-x86_64-mingw32/bin/../lib/gcc/nios2-elf/5.3.0/mno-hw-mul\libgcc.a(ledf2.o)
                0x0000000000018be0                __ledf2
                0x0000000000018be0                __ltdf2
 .text          0x0000000000018cd4      0x86c e:/quartus_fpga_design/nios2eds/bin/gnu/h-x86_64-mingw32/bin/../lib/gcc/nios2-elf/5.3.0/mno-hw-mul\libgcc.a(muldf3.o)
                0x0000000000018cd4                __muldf3
 .text          0x0000000000019540       0xdc e:/quartus_fpga_design/nios2eds/bin/gnu/h-x86_64-mingw32/bin/../lib/gcc/nios2-elf/5.3.0/mno-hw-mul\libgcc.a(floatsidf.o)
                0x0000000000019540                __floatsidf
 .text          0x000000000001961c      0x114 ../Bomberman_bsp/\libhal_bsp.a(alt_close.o)
                0x0000000000019658                close
 .text          0x0000000000019730       0x2c ../Bomberman_bsp/\libhal_bsp.a(alt_dev.o)
 .text          0x000000000001975c        0x0 ../Bomberman_bsp/\libhal_bsp.a(alt_errno.o)
 .text          0x000000000001975c       0xf4 ../Bomberman_bsp/\libhal_bsp.a(alt_fstat.o)
                0x0000000000019798                fstat
 .text          0x0000000000019850       0xe8 ../Bomberman_bsp/\libhal_bsp.a(alt_isatty.o)
                0x000000000001988c                isatty
 .text          0x0000000000019938       0xec ../Bomberman_bsp/\libhal_bsp.a(alt_load.o)
                0x00000000000199a0                alt_load
 .text          0x0000000000019a24      0x118 ../Bomberman_bsp/\libhal_bsp.a(alt_lseek.o)
                0x0000000000019a60                lseek
 .text          0x0000000000019b3c       0x7c ../Bomberman_bsp/\libhal_bsp.a(alt_main.o)
                0x0000000000019b3c                alt_main
 .text          0x0000000000019bb8       0x48 ../Bomberman_bsp/\libhal_bsp.a(alt_malloc_lock.o)
                0x0000000000019bb8                __malloc_lock
                0x0000000000019bdc                __malloc_unlock
 .text          0x0000000000019c00      0x140 ../Bomberman_bsp/\libhal_bsp.a(alt_read.o)
                0x0000000000019c3c                read
 .text          0x0000000000019d40       0x84 ../Bomberman_bsp/\libhal_bsp.a(alt_release_fd.o)
                0x0000000000019d40                alt_release_fd
 .text          0x0000000000019dc4       0xb0 ../Bomberman_bsp/\libhal_bsp.a(alt_sbrk.o)
                0x0000000000019dc4                sbrk
 .text          0x0000000000019e74       0xb4 ../Bomberman_bsp/\libhal_bsp.a(alt_times.o)
                0x0000000000019eb0                times
 .text          0x0000000000019f28       0x30 ../Bomberman_bsp/\libhal_bsp.a(alt_usleep.o)
                0x0000000000019f28                usleep
 .text          0x0000000000019f58      0x13c ../Bomberman_bsp/\libhal_bsp.a(alt_write.o)
                0x0000000000019f94                write
 .text          0x000000000001a094       0xd0 ../Bomberman_bsp/\libhal_bsp.a(alt_sys_init.o)
                0x000000000001a0c8                alt_irq_init
                0x000000000001a100                alt_sys_init
 .text          0x000000000001a164      0x164 ../Bomberman_bsp/\libhal_bsp.a(altera_avalon_jtag_uart_fd.o)
                0x000000000001a164                altera_avalon_jtag_uart_read_fd
                0x000000000001a1c4                altera_avalon_jtag_uart_write_fd
                0x000000000001a224                altera_avalon_jtag_uart_close_fd
                0x000000000001a274                altera_avalon_jtag_uart_ioctl_fd
 .text          0x000000000001a2c8      0x3d4 ../Bomberman_bsp/\libhal_bsp.a(altera_avalon_jtag_uart_init.o)
                0x000000000001a2c8                altera_avalon_jtag_uart_init
                0x000000000001a634                altera_avalon_jtag_uart_close
 .text          0x000000000001a69c       0xf0 ../Bomberman_bsp/\libhal_bsp.a(altera_avalon_jtag_uart_ioctl.o)
                0x000000000001a69c                altera_avalon_jtag_uart_ioctl
 .text          0x000000000001a78c      0x21c ../Bomberman_bsp/\libhal_bsp.a(altera_avalon_jtag_uart_read.o)
                0x000000000001a78c                altera_avalon_jtag_uart_read
 .text          0x000000000001a9a8      0x224 ../Bomberman_bsp/\libhal_bsp.a(altera_avalon_jtag_uart_write.o)
                0x000000000001a9a8                altera_avalon_jtag_uart_write
 .text          0x000000000001abcc       0xf4 ../Bomberman_bsp/\libhal_bsp.a(altera_avalon_timer_sc.o)
                0x000000000001ac44                alt_avalon_timer_sc_init
 .text          0x000000000001acc0      0x12c ../Bomberman_bsp/\libhal_bsp.a(alt_alarm_start.o)
                0x000000000001acc0                alt_alarm_start
 .text          0x000000000001adec      0x158 ../Bomberman_bsp/\libhal_bsp.a(alt_busy_sleep.o)
                0x000000000001adec                alt_busy_sleep
 .text          0x000000000001af44       0x20 ../Bomberman_bsp/\libhal_bsp.a(alt_dcache_flush_all.o)
                0x000000000001af44                alt_dcache_flush_all
 .text          0x000000000001af64       0xe0 ../Bomberman_bsp/\libhal_bsp.a(alt_dev_llist_insert.o)
                0x000000000001afa0                alt_dev_llist_insert
 .text          0x000000000001b044       0x60 ../Bomberman_bsp/\libhal_bsp.a(alt_do_ctors.o)
                0x000000000001b044                _do_ctors
 .text          0x000000000001b0a4       0x60 ../Bomberman_bsp/\libhal_bsp.a(alt_do_dtors.o)
                0x000000000001b0a4                _do_dtors
 .text          0x000000000001b104       0x20 ../Bomberman_bsp/\libhal_bsp.a(alt_icache_flush_all.o)
                0x000000000001b104                alt_icache_flush_all
 .text          0x000000000001b124      0x1b0 ../Bomberman_bsp/\libhal_bsp.a(alt_iic.o)
                0x000000000001b124                alt_ic_isr_register
                0x000000000001b174                alt_ic_irq_enable
                0x000000000001b1fc                alt_ic_irq_disable
                0x000000000001b288                alt_ic_irq_enabled
 .text          0x000000000001b2d4       0xf0 ../Bomberman_bsp/\libhal_bsp.a(alt_iic_isr_register.o)
                0x000000000001b2d4                alt_iic_isr_register
 .text          0x000000000001b3c4      0x160 ../Bomberman_bsp/\libhal_bsp.a(alt_io_redirect.o)
                0x000000000001b4a8                alt_io_redirect
 .text          0x000000000001b524        0x0 ../Bomberman_bsp/\libhal_bsp.a(alt_irq_entry.o)
 .text          0x000000000001b524        0x0 ../Bomberman_bsp/\libhal_bsp.a(alt_irq_handler.o)
 .text          0x000000000001b524        0x0 ../Bomberman_bsp/\libhal_bsp.a(alt_irq_vars.o)
 .text          0x000000000001b524      0x284 ../Bomberman_bsp/\libhal_bsp.a(alt_open.o)
                0x000000000001b64c                open
 .text          0x000000000001b7a8      0x1a4 ../Bomberman_bsp/\libhal_bsp.a(alt_tick.o)
                0x000000000001b7a8                alt_alarm_stop
                0x000000000001b844                alt_tick
 .text          0x000000000001b94c       0x24 ../Bomberman_bsp/\libhal_bsp.a(altera_nios2_gen2_irq.o)
                0x000000000001b94c                altera_nios2_gen2_irq_init
 .text          0x000000000001b970        0x0 ../Bomberman_bsp/\libhal_bsp.a(alt_exception_entry.o)
 .text          0x000000000001b970       0x90 ../Bomberman_bsp/\libhal_bsp.a(alt_find_dev.o)
                0x000000000001b970                alt_find_dev
 .text          0x000000000001ba00      0x108 ../Bomberman_bsp/\libhal_bsp.a(alt_find_file.o)
                0x000000000001ba00                alt_find_file
 .text          0x000000000001bb08       0xc4 ../Bomberman_bsp/\libhal_bsp.a(alt_get_fd.o)
                0x000000000001bb08                alt_get_fd
 .text          0x000000000001bbcc       0x9c ../Bomberman_bsp/\libhal_bsp.a(alt_instruction_exception_entry.o)
                0x000000000001bbcc                alt_exception_cause_generated_bad_addr
 .text          0x000000000001bc68        0x0 e:/quartus_fpga_design/nios2eds/bin/gnu/h-x86_64-mingw32/bin/../lib/gcc/nios2-elf/5.3.0/../../../../../H-x86_64-mingw32/nios2-elf/lib/mno-hw-mul\libc.a(lib_a-atexit.o)
 .text.atexit   0x000000000001bc68       0x14 e:/quartus_fpga_design/nios2eds/bin/gnu/h-x86_64-mingw32/bin/../lib/gcc/nios2-elf/5.3.0/../../../../../H-x86_64-mingw32/nios2-elf/lib/mno-hw-mul\libc.a(lib_a-atexit.o)
                0x000000000001bc68                atexit
 .text          0x000000000001bc7c        0x0 e:/quartus_fpga_design/nios2eds/bin/gnu/h-x86_64-mingw32/bin/../lib/gcc/nios2-elf/5.3.0/../../../../../H-x86_64-mingw32/nios2-elf/lib/mno-hw-mul\libc.a(lib_a-exit.o)
 .text.exit     0x000000000001bc7c       0x38 e:/quartus_fpga_design/nios2eds/bin/gnu/h-x86_64-mingw32/bin/../lib/gcc/nios2-elf/5.3.0/../../../../../H-x86_64-mingw32/nios2-elf/lib/mno-hw-mul\libc.a(lib_a-exit.o)
                0x000000000001bc7c                exit
 .text          0x000000000001bcb4        0x0 e:/quartus_fpga_design/nios2eds/bin/gnu/h-x86_64-mingw32/bin/../lib/gcc/nios2-elf/5.3.0/../../../../../H-x86_64-mingw32/nios2-elf/lib/mno-hw-mul\libc.a(lib_a-memcmp.o)
 .text.memcmp   0x000000000001bcb4       0x7c e:/quartus_fpga_design/nios2eds/bin/gnu/h-x86_64-mingw32/bin/../lib/gcc/nios2-elf/5.3.0/../../../../../H-x86_64-mingw32/nios2-elf/lib/mno-hw-mul\libc.a(lib_a-memcmp.o)
                0x000000000001bcb4                memcmp
 .text          0x000000000001bd30        0x0 e:/quartus_fpga_design/nios2eds/bin/gnu/h-x86_64-mingw32/bin/../lib/gcc/nios2-elf/5.3.0/../../../../../H-x86_64-mingw32/nios2-elf/lib/mno-hw-mul\libc.a(lib_a-__atexit.o)
 .text.__register_exitproc
                0x000000000001bd30      0x118 e:/quartus_fpga_design/nios2eds/bin/gnu/h-x86_64-mingw32/bin/../lib/gcc/nios2-elf/5.3.0/../../../../../H-x86_64-mingw32/nios2-elf/lib/mno-hw-mul\libc.a(lib_a-__atexit.o)
                0x000000000001bd30                __register_exitproc
 .text          0x000000000001be48        0x0 e:/quartus_fpga_design/nios2eds/bin/gnu/h-x86_64-mingw32/bin/../lib/gcc/nios2-elf/5.3.0/../../../../../H-x86_64-mingw32/nios2-elf/lib/mno-hw-mul\libc.a(lib_a-__call_atexit.o)
 .text.__call_exitprocs
                0x000000000001be48      0x180 e:/quartus_fpga_design/nios2eds/bin/gnu/h-x86_64-mingw32/bin/../lib/gcc/nios2-elf/5.3.0/../../../../../H-x86_64-mingw32/nios2-elf/lib/mno-hw-mul\libc.a(lib_a-__call_atexit.o)
                0x000000000001be48                __call_exitprocs
 .text          0x000000000001bfc8       0x34 ../Bomberman_bsp/\libhal_bsp.a(alt_exit.o)
                0x000000000001bfc8                _exit
 *(.gnu.warning.*)
 *(.fini)
                [!provide]                        PROVIDE (__etext, ABSOLUTE (.))
                [!provide]                        PROVIDE (_etext, ABSOLUTE (.))
                [!provide]                        PROVIDE (etext, ABSOLUTE (.))
 *(.eh_frame_hdr)
                0x000000000001bffc                . = ALIGN (0x4)
                [!provide]                        PROVIDE (__preinit_array_start, ABSOLUTE (.))
 *(.preinit_array)
                [!provide]                        PROVIDE (__preinit_array_end, ABSOLUTE (.))
                [!provide]                        PROVIDE (__init_array_start, ABSOLUTE (.))
 *(.init_array)
                [!provide]                        PROVIDE (__init_array_end, ABSOLUTE (.))
                [!provide]                        PROVIDE (__fini_array_start, ABSOLUTE (.))
 *(.fini_array)
                [!provide]                        PROVIDE (__fini_array_end, ABSOLUTE (.))
 *(.eh_frame)
 *(.gcc_except_table .gcc_except_table.*)
 *(.dynamic)
                0x000000000001bffc                PROVIDE (__CTOR_LIST__, ABSOLUTE (.))
 *(.ctors)
 *(SORT(.ctors.*))
                0x000000000001bffc                PROVIDE (__CTOR_END__, ABSOLUTE (.))
                0x000000000001bffc                PROVIDE (__DTOR_LIST__, ABSOLUTE (.))
 *(.dtors)
 *(SORT(.dtors.*))
                0x000000000001bffc                PROVIDE (__DTOR_END__, ABSOLUTE (.))
 *(.jcr)
                0x000000000001bffc                . = ALIGN (0x4)

.rodata         0x000000000001bffc      0xbfc
                0x000000000001bffc                PROVIDE (__ram_rodata_start, ABSOLUTE (.))
                0x000000000001bffc                . = ALIGN (0x4)
 *(.rodata .rodata.* .gnu.linkonce.r.*)
 .rodata        0x000000000001bffc      0x730 obj/default/USB_Keyboard_Driver.o
 .rodata        0x000000000001c72c       0x71 obj/default/USB_Keyboard_Driver_Sup/usb.o
 *fill*         0x000000000001c79d        0x3 
 .rodata        0x000000000001c7a0       0x1b obj/default/audio_driver.o
 *fill*         0x000000000001c7bb        0x1 
 .rodata        0x000000000001c7bc       0xc3 obj/default/draw_driver.o
 *fill*         0x000000000001c87f        0x1 
 .rodata        0x000000000001c880       0x78 obj/default/game.o
 .rodata        0x000000000001c8f8      0x100 e:/quartus_fpga_design/nios2eds/bin/gnu/h-x86_64-mingw32/bin/../lib/gcc/nios2-elf/5.3.0/mno-hw-mul\libgcc.a(_clz.o)
                0x000000000001c8f8                __clz_tab
 .rodata.str1.4
                0x000000000001c9f8        0x2 e:/quartus_fpga_design/nios2eds/bin/gnu/h-x86_64-mingw32/bin/../lib/gcc/nios2-elf/5.3.0/../../../../../H-x86_64-mingw32/nios2-elf/lib/mno-hw-mul\libc.a(lib_a-impure.o)
 *fill*         0x000000000001c9fa        0x2 
 .rodata.str1.4
                0x000000000001c9fc        0x2 e:/quartus_fpga_design/nios2eds/bin/gnu/h-x86_64-mingw32/bin/../lib/gcc/nios2-elf/5.3.0/../../../../../H-x86_64-mingw32/nios2-elf/lib/mno-hw-mul\libc.a(lib_a-puts.o)
 *fill*         0x000000000001c9fe        0x2 
 .rodata.str1.4
                0x000000000001ca00       0x42 e:/quartus_fpga_design/nios2eds/bin/gnu/h-x86_64-mingw32/bin/../lib/gcc/nios2-elf/5.3.0/../../../../../H-x86_64-mingw32/nios2-elf/lib/mno-hw-mul\libc.a(lib_a-vfprintf.o)
 .rodata.zeroes.4404
                0x000000000001ca42       0x10 e:/quartus_fpga_design/nios2eds/bin/gnu/h-x86_64-mingw32/bin/../lib/gcc/nios2-elf/5.3.0/../../../../../H-x86_64-mingw32/nios2-elf/lib/mno-hw-mul\libc.a(lib_a-vfprintf.o)
 .rodata.blanks.4403
                0x000000000001ca52       0x10 e:/quartus_fpga_design/nios2eds/bin/gnu/h-x86_64-mingw32/bin/../lib/gcc/nios2-elf/5.3.0/../../../../../H-x86_64-mingw32/nios2-elf/lib/mno-hw-mul\libc.a(lib_a-vfprintf.o)
 *fill*         0x000000000001ca62        0x2 
 .rodata.str1.4
                0x000000000001ca64       0x10 e:/quartus_fpga_design/nios2eds/bin/gnu/h-x86_64-mingw32/bin/../lib/gcc/nios2-elf/5.3.0/../../../../../H-x86_64-mingw32/nios2-elf/lib/mno-hw-mul\libc.a(lib_a-dtoa.o)
                                         0x12 (size before relaxing)
 .rodata.str1.4
                0x000000000001ca74        0xc e:/quartus_fpga_design/nios2eds/bin/gnu/h-x86_64-mingw32/bin/../lib/gcc/nios2-elf/5.3.0/../../../../../H-x86_64-mingw32/nios2-elf/lib/mno-hw-mul\libc.a(lib_a-locale.o)
                                         0x12 (size before relaxing)
 .rodata.p05.2768
                0x000000000001ca80        0xc e:/quartus_fpga_design/nios2eds/bin/gnu/h-x86_64-mingw32/bin/../lib/gcc/nios2-elf/5.3.0/../../../../../H-x86_64-mingw32/nios2-elf/lib/mno-hw-mul\libc.a(lib_a-mprec.o)
 .rodata.__mprec_tinytens
                0x000000000001ca8c       0x28 e:/quartus_fpga_design/nios2eds/bin/gnu/h-x86_64-mingw32/bin/../lib/gcc/nios2-elf/5.3.0/../../../../../H-x86_64-mingw32/nios2-elf/lib/mno-hw-mul\libc.a(lib_a-mprec.o)
                0x000000000001ca8c                __mprec_tinytens
 .rodata.__mprec_bigtens
                0x000000000001cab4       0x28 e:/quartus_fpga_design/nios2eds/bin/gnu/h-x86_64-mingw32/bin/../lib/gcc/nios2-elf/5.3.0/../../../../../H-x86_64-mingw32/nios2-elf/lib/mno-hw-mul\libc.a(lib_a-mprec.o)
                0x000000000001cab4                __mprec_bigtens
 .rodata.__mprec_tens
                0x000000000001cadc       0xc8 e:/quartus_fpga_design/nios2eds/bin/gnu/h-x86_64-mingw32/bin/../lib/gcc/nios2-elf/5.3.0/../../../../../H-x86_64-mingw32/nios2-elf/lib/mno-hw-mul\libc.a(lib_a-mprec.o)
                0x000000000001cadc                __mprec_tens
 .rodata.str1.4
                0x000000000001cba4       0x2f e:/quartus_fpga_design/nios2eds/bin/gnu/h-x86_64-mingw32/bin/../lib/gcc/nios2-elf/5.3.0/../../../../../H-x86_64-mingw32/nios2-elf/lib/mno-hw-mul\libc.a(lib_a-vfiprintf.o)
 .rodata.zeroes.4349
                0x000000000001cba4       0x10 e:/quartus_fpga_design/nios2eds/bin/gnu/h-x86_64-mingw32/bin/../lib/gcc/nios2-elf/5.3.0/../../../../../H-x86_64-mingw32/nios2-elf/lib/mno-hw-mul\libc.a(lib_a-vfiprintf.o)
 .rodata.blanks.4348
                0x000000000001cbb4       0x10 e:/quartus_fpga_design/nios2eds/bin/gnu/h-x86_64-mingw32/bin/../lib/gcc/nios2-elf/5.3.0/../../../../../H-x86_64-mingw32/nios2-elf/lib/mno-hw-mul\libc.a(lib_a-vfiprintf.o)
 .rodata        0x000000000001cbc4        0xa ../Bomberman_bsp/\libhal_bsp.a(alt_dev.o)
 *fill*         0x000000000001cbce        0x2 
 .rodata        0x000000000001cbd0       0x11 ../Bomberman_bsp/\libhal_bsp.a(alt_main.o)
 *fill*         0x000000000001cbe1        0x3 
 .rodata        0x000000000001cbe4       0x11 ../Bomberman_bsp/\libhal_bsp.a(alt_sys_init.o)
 *(.rodata1)
                0x000000000001cbf8                . = ALIGN (0x4)
 *fill*         0x000000000001cbf5        0x3 
                0x000000000001cbf8                PROVIDE (__ram_rodata_end, ABSOLUTE (.))
                0x000000000001bffc                PROVIDE (__flash_rodata_start, LOADADDR (.rodata))

.rwdata         0x000000000001cbf8     0x1b64 load address 0x000000000001e75c
                0x000000000001cbf8                PROVIDE (__ram_rwdata_start, ABSOLUTE (.))
                0x000000000001cbf8                . = ALIGN (0x4)
 *(.got.plt)
 *(.got)
 *(.data1)
 *(.data .data.* .gnu.linkonce.d.*)
 .data          0x000000000001cbf8        0x0 ../Bomberman_bsp//obj/HAL/src/crt0.o
 .data          0x000000000001cbf8        0x0 obj/default/INIT.o
 .data          0x000000000001cbf8        0x0 obj/default/LEDandHEX.o
 .data          0x000000000001cbf8        0x0 obj/default/USB_Keyboard_Driver.o
 .data          0x000000000001cbf8        0x0 obj/default/USB_Keyboard_Driver_Sup/io_handler.o
 .data          0x000000000001cbf8        0x0 obj/default/USB_Keyboard_Driver_Sup/usb.o
 .data          0x000000000001cbf8        0x0 obj/default/audio_driver.o
 .data          0x000000000001cbf8        0x0 obj/default/coins.o
 .data          0x000000000001cbf8        0x0 obj/default/draw_driver.o
 .data          0x000000000001cbf8        0x0 obj/default/drawing.o
 .data          0x000000000001cbf8        0x0 obj/default/ed.o
 .data          0x000000000001cbf8       0x48 obj/default/game.o
 .data          0x000000000001cc40        0x0 obj/default/main.o
 .data          0x000000000001cc40        0x0 obj/default/op.o
 .data          0x000000000001cc40        0x0 obj/default/readKey.o
 .data          0x000000000001cc40        0x0 obj/default/transition.o
 .data          0x000000000001cc40        0x0 e:/quartus_fpga_design/nios2eds/bin/gnu/h-x86_64-mingw32/bin/../lib/gcc/nios2-elf/5.3.0/mno-hw-mul\libgcc.a(_fixunsdfsi.o)
 .data          0x000000000001cc40        0x0 e:/quartus_fpga_design/nios2eds/bin/gnu/h-x86_64-mingw32/bin/../lib/gcc/nios2-elf/5.3.0/mno-hw-mul\libgcc.a(lib2-divmod.o)
 .data          0x000000000001cc40        0x0 e:/quartus_fpga_design/nios2eds/bin/gnu/h-x86_64-mingw32/bin/../lib/gcc/nios2-elf/5.3.0/mno-hw-mul\libgcc.a(lib2-mul.o)
 .data          0x000000000001cc40        0x0 e:/quartus_fpga_design/nios2eds/bin/gnu/h-x86_64-mingw32/bin/../lib/gcc/nios2-elf/5.3.0/mno-hw-mul\libgcc.a(divdf3.o)
 .data          0x000000000001cc40        0x0 e:/quartus_fpga_design/nios2eds/bin/gnu/h-x86_64-mingw32/bin/../lib/gcc/nios2-elf/5.3.0/mno-hw-mul\libgcc.a(gedf2.o)
 .data          0x000000000001cc40        0x0 e:/quartus_fpga_design/nios2eds/bin/gnu/h-x86_64-mingw32/bin/../lib/gcc/nios2-elf/5.3.0/mno-hw-mul\libgcc.a(subdf3.o)
 .data          0x000000000001cc40        0x0 e:/quartus_fpga_design/nios2eds/bin/gnu/h-x86_64-mingw32/bin/../lib/gcc/nios2-elf/5.3.0/mno-hw-mul\libgcc.a(fixdfsi.o)
 .data          0x000000000001cc40        0x0 e:/quartus_fpga_design/nios2eds/bin/gnu/h-x86_64-mingw32/bin/../lib/gcc/nios2-elf/5.3.0/mno-hw-mul\libgcc.a(floatunsidf.o)
 .data          0x000000000001cc40        0x0 e:/quartus_fpga_design/nios2eds/bin/gnu/h-x86_64-mingw32/bin/../lib/gcc/nios2-elf/5.3.0/mno-hw-mul\libgcc.a(_clzsi2.o)
 .data          0x000000000001cc40        0x0 e:/quartus_fpga_design/nios2eds/bin/gnu/h-x86_64-mingw32/bin/../lib/gcc/nios2-elf/5.3.0/mno-hw-mul\libgcc.a(_clz.o)
 .data          0x000000000001cc40        0x0 e:/quartus_fpga_design/nios2eds/bin/gnu/h-x86_64-mingw32/bin/../lib/gcc/nios2-elf/5.3.0/../../../../../H-x86_64-mingw32/nios2-elf/lib/mno-hw-mul\libc.a(lib_a-clock.o)
 .data          0x000000000001cc40        0x0 e:/quartus_fpga_design/nios2eds/bin/gnu/h-x86_64-mingw32/bin/../lib/gcc/nios2-elf/5.3.0/../../../../../H-x86_64-mingw32/nios2-elf/lib/mno-hw-mul\libc.a(lib_a-impure.o)
 .data.impure_data
                0x000000000001cc40      0x424 e:/quartus_fpga_design/nios2eds/bin/gnu/h-x86_64-mingw32/bin/../lib/gcc/nios2-elf/5.3.0/../../../../../H-x86_64-mingw32/nios2-elf/lib/mno-hw-mul\libc.a(lib_a-impure.o)
 .data          0x000000000001d064        0x0 e:/quartus_fpga_design/nios2eds/bin/gnu/h-x86_64-mingw32/bin/../lib/gcc/nios2-elf/5.3.0/../../../../../H-x86_64-mingw32/nios2-elf/lib/mno-hw-mul\libc.a(lib_a-malloc.o)
 .data          0x000000000001d064        0x0 e:/quartus_fpga_design/nios2eds/bin/gnu/h-x86_64-mingw32/bin/../lib/gcc/nios2-elf/5.3.0/../../../../../H-x86_64-mingw32/nios2-elf/lib/mno-hw-mul\libc.a(lib_a-mallocr.o)
 .data.__malloc_av_
                0x000000000001d064      0x408 e:/quartus_fpga_design/nios2eds/bin/gnu/h-x86_64-mingw32/bin/../lib/gcc/nios2-elf/5.3.0/../../../../../H-x86_64-mingw32/nios2-elf/lib/mno-hw-mul\libc.a(lib_a-mallocr.o)
                0x000000000001d064                __malloc_av_
 .data          0x000000000001d46c        0x0 e:/quartus_fpga_design/nios2eds/bin/gnu/h-x86_64-mingw32/bin/../lib/gcc/nios2-elf/5.3.0/../../../../../H-x86_64-mingw32/nios2-elf/lib/mno-hw-mul\libc.a(lib_a-printf.o)
 .data          0x000000000001d46c        0x0 e:/quartus_fpga_design/nios2eds/bin/gnu/h-x86_64-mingw32/bin/../lib/gcc/nios2-elf/5.3.0/../../../../../H-x86_64-mingw32/nios2-elf/lib/mno-hw-mul\libc.a(lib_a-puts.o)
 .data          0x000000000001d46c        0x0 e:/quartus_fpga_design/nios2eds/bin/gnu/h-x86_64-mingw32/bin/../lib/gcc/nios2-elf/5.3.0/../../../../../H-x86_64-mingw32/nios2-elf/lib/mno-hw-mul\libc.a(lib_a-rand.o)
 .data          0x000000000001d46c        0x0 e:/quartus_fpga_design/nios2eds/bin/gnu/h-x86_64-mingw32/bin/../lib/gcc/nios2-elf/5.3.0/../../../../../H-x86_64-mingw32/nios2-elf/lib/mno-hw-mul\libc.a(lib_a-sbrkr.o)
 .data          0x000000000001d46c        0x0 e:/quartus_fpga_design/nios2eds/bin/gnu/h-x86_64-mingw32/bin/../lib/gcc/nios2-elf/5.3.0/../../../../../H-x86_64-mingw32/nios2-elf/lib/mno-hw-mul\libc.a(lib_a-strlen.o)
 .data          0x000000000001d46c        0x0 e:/quartus_fpga_design/nios2eds/bin/gnu/h-x86_64-mingw32/bin/../lib/gcc/nios2-elf/5.3.0/../../../../../H-x86_64-mingw32/nios2-elf/lib/mno-hw-mul\libc.a(lib_a-timesr.o)
 .data          0x000000000001d46c        0x0 e:/quartus_fpga_design/nios2eds/bin/gnu/h-x86_64-mingw32/bin/../lib/gcc/nios2-elf/5.3.0/../../../../../H-x86_64-mingw32/nios2-elf/lib/mno-hw-mul\libc.a(lib_a-vfprintf.o)
 .data          0x000000000001d46c        0x0 e:/quartus_fpga_design/nios2eds/bin/gnu/h-x86_64-mingw32/bin/../lib/gcc/nios2-elf/5.3.0/../../../../../H-x86_64-mingw32/nios2-elf/lib/mno-hw-mul\libc.a(lib_a-wsetup.o)
 .data          0x000000000001d46c        0x0 e:/quartus_fpga_design/nios2eds/bin/gnu/h-x86_64-mingw32/bin/../lib/gcc/nios2-elf/5.3.0/../../../../../H-x86_64-mingw32/nios2-elf/lib/mno-hw-mul\libc.a(lib_a-dtoa.o)
 .data          0x000000000001d46c        0x0 e:/quartus_fpga_design/nios2eds/bin/gnu/h-x86_64-mingw32/bin/../lib/gcc/nios2-elf/5.3.0/../../../../../H-x86_64-mingw32/nios2-elf/lib/mno-hw-mul\libc.a(lib_a-fflush.o)
 .data          0x000000000001d46c        0x0 e:/quartus_fpga_design/nios2eds/bin/gnu/h-x86_64-mingw32/bin/../lib/gcc/nios2-elf/5.3.0/../../../../../H-x86_64-mingw32/nios2-elf/lib/mno-hw-mul\libc.a(lib_a-findfp.o)
 .data          0x000000000001d46c        0x0 e:/quartus_fpga_design/nios2eds/bin/gnu/h-x86_64-mingw32/bin/../lib/gcc/nios2-elf/5.3.0/../../../../../H-x86_64-mingw32/nios2-elf/lib/mno-hw-mul\libc.a(lib_a-freer.o)
 .data          0x000000000001d46c        0x0 e:/quartus_fpga_design/nios2eds/bin/gnu/h-x86_64-mingw32/bin/../lib/gcc/nios2-elf/5.3.0/../../../../../H-x86_64-mingw32/nios2-elf/lib/mno-hw-mul\libc.a(lib_a-fvwrite.o)
 .data          0x000000000001d46c        0x0 e:/quartus_fpga_design/nios2eds/bin/gnu/h-x86_64-mingw32/bin/../lib/gcc/nios2-elf/5.3.0/../../../../../H-x86_64-mingw32/nios2-elf/lib/mno-hw-mul\libc.a(lib_a-fwalk.o)
 .data          0x000000000001d46c        0x0 e:/quartus_fpga_design/nios2eds/bin/gnu/h-x86_64-mingw32/bin/../lib/gcc/nios2-elf/5.3.0/../../../../../H-x86_64-mingw32/nios2-elf/lib/mno-hw-mul\libc.a(lib_a-int_errno.o)
 .data          0x000000000001d46c        0x0 e:/quartus_fpga_design/nios2eds/bin/gnu/h-x86_64-mingw32/bin/../lib/gcc/nios2-elf/5.3.0/../../../../../H-x86_64-mingw32/nios2-elf/lib/mno-hw-mul\libc.a(lib_a-locale.o)
 .data.lc_message_charset
                0x000000000001d46c       0x20 e:/quartus_fpga_design/nios2eds/bin/gnu/h-x86_64-mingw32/bin/../lib/gcc/nios2-elf/5.3.0/../../../../../H-x86_64-mingw32/nios2-elf/lib/mno-hw-mul\libc.a(lib_a-locale.o)
 .data.lc_ctype_charset
                0x000000000001d48c       0x20 e:/quartus_fpga_design/nios2eds/bin/gnu/h-x86_64-mingw32/bin/../lib/gcc/nios2-elf/5.3.0/../../../../../H-x86_64-mingw32/nios2-elf/lib/mno-hw-mul\libc.a(lib_a-locale.o)
 .data.lconv    0x000000000001d4ac       0x38 e:/quartus_fpga_design/nios2eds/bin/gnu/h-x86_64-mingw32/bin/../lib/gcc/nios2-elf/5.3.0/../../../../../H-x86_64-mingw32/nios2-elf/lib/mno-hw-mul\libc.a(lib_a-locale.o)
 .data          0x000000000001d4e4        0x0 e:/quartus_fpga_design/nios2eds/bin/gnu/h-x86_64-mingw32/bin/../lib/gcc/nios2-elf/5.3.0/../../../../../H-x86_64-mingw32/nios2-elf/lib/mno-hw-mul\libc.a(lib_a-makebuf.o)
 .data          0x000000000001d4e4        0x0 e:/quartus_fpga_design/nios2eds/bin/gnu/h-x86_64-mingw32/bin/../lib/gcc/nios2-elf/5.3.0/../../../../../H-x86_64-mingw32/nios2-elf/lib/mno-hw-mul\libc.a(lib_a-memchr.o)
 .data          0x000000000001d4e4        0x0 e:/quartus_fpga_design/nios2eds/bin/gnu/h-x86_64-mingw32/bin/../lib/gcc/nios2-elf/5.3.0/../../../../../H-x86_64-mingw32/nios2-elf/lib/mno-hw-mul\libc.a(lib_a-memcpy.o)
 .data          0x000000000001d4e4        0x0 e:/quartus_fpga_design/nios2eds/bin/gnu/h-x86_64-mingw32/bin/../lib/gcc/nios2-elf/5.3.0/../../../../../H-x86_64-mingw32/nios2-elf/lib/mno-hw-mul\libc.a(lib_a-memmove.o)
 .data          0x000000000001d4e4        0x0 e:/quartus_fpga_design/nios2eds/bin/gnu/h-x86_64-mingw32/bin/../lib/gcc/nios2-elf/5.3.0/../../../../../H-x86_64-mingw32/nios2-elf/lib/mno-hw-mul\libc.a(lib_a-memset.o)
 .data          0x000000000001d4e4        0x0 e:/quartus_fpga_design/nios2eds/bin/gnu/h-x86_64-mingw32/bin/../lib/gcc/nios2-elf/5.3.0/../../../../../H-x86_64-mingw32/nios2-elf/lib/mno-hw-mul\libc.a(lib_a-mprec.o)
 .data          0x000000000001d4e4        0x0 e:/quartus_fpga_design/nios2eds/bin/gnu/h-x86_64-mingw32/bin/../lib/gcc/nios2-elf/5.3.0/../../../../../H-x86_64-mingw32/nios2-elf/lib/mno-hw-mul\libc.a(lib_a-reallocr.o)
 .data          0x000000000001d4e4        0x0 e:/quartus_fpga_design/nios2eds/bin/gnu/h-x86_64-mingw32/bin/../lib/gcc/nios2-elf/5.3.0/../../../../../H-x86_64-mingw32/nios2-elf/lib/mno-hw-mul\libc.a(lib_a-s_fpclassify.o)
 .data          0x000000000001d4e4        0x0 e:/quartus_fpga_design/nios2eds/bin/gnu/h-x86_64-mingw32/bin/../lib/gcc/nios2-elf/5.3.0/../../../../../H-x86_64-mingw32/nios2-elf/lib/mno-hw-mul\libc.a(lib_a-stdio.o)
 .data          0x000000000001d4e4        0x0 e:/quartus_fpga_design/nios2eds/bin/gnu/h-x86_64-mingw32/bin/../lib/gcc/nios2-elf/5.3.0/../../../../../H-x86_64-mingw32/nios2-elf/lib/mno-hw-mul\libc.a(lib_a-strcmp.o)
 .data          0x000000000001d4e4        0x0 e:/quartus_fpga_design/nios2eds/bin/gnu/h-x86_64-mingw32/bin/../lib/gcc/nios2-elf/5.3.0/../../../../../H-x86_64-mingw32/nios2-elf/lib/mno-hw-mul\libc.a(lib_a-vfiprintf.o)
 .data          0x000000000001d4e4        0x0 e:/quartus_fpga_design/nios2eds/bin/gnu/h-x86_64-mingw32/bin/../lib/gcc/nios2-elf/5.3.0/../../../../../H-x86_64-mingw32/nios2-elf/lib/mno-hw-mul\libc.a(lib_a-writer.o)
 .data          0x000000000001d4e4        0x0 e:/quartus_fpga_design/nios2eds/bin/gnu/h-x86_64-mingw32/bin/../lib/gcc/nios2-elf/5.3.0/../../../../../H-x86_64-mingw32/nios2-elf/lib/mno-hw-mul\libc.a(closer.o)
 .data          0x000000000001d4e4        0x0 e:/quartus_fpga_design/nios2eds/bin/gnu/h-x86_64-mingw32/bin/../lib/gcc/nios2-elf/5.3.0/../../../../../H-x86_64-mingw32/nios2-elf/lib/mno-hw-mul\libc.a(lib_a-callocr.o)
 .data          0x000000000001d4e4        0x0 e:/quartus_fpga_design/nios2eds/bin/gnu/h-x86_64-mingw32/bin/../lib/gcc/nios2-elf/5.3.0/../../../../../H-x86_64-mingw32/nios2-elf/lib/mno-hw-mul\libc.a(lib_a-fclose.o)
 .data          0x000000000001d4e4        0x0 e:/quartus_fpga_design/nios2eds/bin/gnu/h-x86_64-mingw32/bin/../lib/gcc/nios2-elf/5.3.0/../../../../../H-x86_64-mingw32/nios2-elf/lib/mno-hw-mul\libc.a(lib_a-fputwc.o)
 .data          0x000000000001d4e4        0x0 e:/quartus_fpga_design/nios2eds/bin/gnu/h-x86_64-mingw32/bin/../lib/gcc/nios2-elf/5.3.0/../../../../../H-x86_64-mingw32/nios2-elf/lib/mno-hw-mul\libc.a(lib_a-fstatr.o)
 .data          0x000000000001d4e4        0x0 e:/quartus_fpga_design/nios2eds/bin/gnu/h-x86_64-mingw32/bin/../lib/gcc/nios2-elf/5.3.0/../../../../../H-x86_64-mingw32/nios2-elf/lib/mno-hw-mul\libc.a(lib_a-isattyr.o)
 .data          0x000000000001d4e4        0x0 e:/quartus_fpga_design/nios2eds/bin/gnu/h-x86_64-mingw32/bin/../lib/gcc/nios2-elf/5.3.0/../../../../../H-x86_64-mingw32/nios2-elf/lib/mno-hw-mul\libc.a(lib_a-lseekr.o)
 .data          0x000000000001d4e4        0x0 e:/quartus_fpga_design/nios2eds/bin/gnu/h-x86_64-mingw32/bin/../lib/gcc/nios2-elf/5.3.0/../../../../../H-x86_64-mingw32/nios2-elf/lib/mno-hw-mul\libc.a(lib_a-readr.o)
 .data          0x000000000001d4e4        0x0 e:/quartus_fpga_design/nios2eds/bin/gnu/h-x86_64-mingw32/bin/../lib/gcc/nios2-elf/5.3.0/../../../../../H-x86_64-mingw32/nios2-elf/lib/mno-hw-mul\libc.a(lib_a-wbuf.o)
 .data          0x000000000001d4e4        0x0 e:/quartus_fpga_design/nios2eds/bin/gnu/h-x86_64-mingw32/bin/../lib/gcc/nios2-elf/5.3.0/../../../../../H-x86_64-mingw32/nios2-elf/lib/mno-hw-mul\libc.a(lib_a-wcrtomb.o)
 .data          0x000000000001d4e4        0x0 e:/quartus_fpga_design/nios2eds/bin/gnu/h-x86_64-mingw32/bin/../lib/gcc/nios2-elf/5.3.0/../../../../../H-x86_64-mingw32/nios2-elf/lib/mno-hw-mul\libc.a(lib_a-wctomb_r.o)
 .data          0x000000000001d4e4        0x0 e:/quartus_fpga_design/nios2eds/bin/gnu/h-x86_64-mingw32/bin/../lib/gcc/nios2-elf/5.3.0/mno-hw-mul\libgcc.a(_muldi3.o)
 .data          0x000000000001d4e4        0x0 e:/quartus_fpga_design/nios2eds/bin/gnu/h-x86_64-mingw32/bin/../lib/gcc/nios2-elf/5.3.0/mno-hw-mul\libgcc.a(_udivdi3.o)
 .data          0x000000000001d4e4        0x0 e:/quartus_fpga_design/nios2eds/bin/gnu/h-x86_64-mingw32/bin/../lib/gcc/nios2-elf/5.3.0/mno-hw-mul\libgcc.a(_umoddi3.o)
 .data          0x000000000001d4e4        0x0 e:/quartus_fpga_design/nios2eds/bin/gnu/h-x86_64-mingw32/bin/../lib/gcc/nios2-elf/5.3.0/mno-hw-mul\libgcc.a(adddf3.o)
 .data          0x000000000001d4e4        0x0 e:/quartus_fpga_design/nios2eds/bin/gnu/h-x86_64-mingw32/bin/../lib/gcc/nios2-elf/5.3.0/mno-hw-mul\libgcc.a(eqdf2.o)
 .data          0x000000000001d4e4        0x0 e:/quartus_fpga_design/nios2eds/bin/gnu/h-x86_64-mingw32/bin/../lib/gcc/nios2-elf/5.3.0/mno-hw-mul\libgcc.a(ledf2.o)
 .data          0x000000000001d4e4        0x0 e:/quartus_fpga_design/nios2eds/bin/gnu/h-x86_64-mingw32/bin/../lib/gcc/nios2-elf/5.3.0/mno-hw-mul\libgcc.a(muldf3.o)
 .data          0x000000000001d4e4        0x0 e:/quartus_fpga_design/nios2eds/bin/gnu/h-x86_64-mingw32/bin/../lib/gcc/nios2-elf/5.3.0/mno-hw-mul\libgcc.a(floatsidf.o)
 .data          0x000000000001d4e4        0x0 ../Bomberman_bsp/\libhal_bsp.a(alt_close.o)
 .data          0x000000000001d4e4      0x1a8 ../Bomberman_bsp/\libhal_bsp.a(alt_dev.o)
                0x000000000001d4e4                alt_dev_null
                0x000000000001d50c                alt_fd_list
 .data          0x000000000001d68c        0x0 ../Bomberman_bsp/\libhal_bsp.a(alt_errno.o)
 .data          0x000000000001d68c        0x0 ../Bomberman_bsp/\libhal_bsp.a(alt_fstat.o)
 .data          0x000000000001d68c        0x0 ../Bomberman_bsp/\libhal_bsp.a(alt_isatty.o)
 .data          0x000000000001d68c        0x0 ../Bomberman_bsp/\libhal_bsp.a(alt_load.o)
 .data          0x000000000001d68c        0x0 ../Bomberman_bsp/\libhal_bsp.a(alt_lseek.o)
 .data          0x000000000001d68c        0x0 ../Bomberman_bsp/\libhal_bsp.a(alt_main.o)
 .data          0x000000000001d68c        0x0 ../Bomberman_bsp/\libhal_bsp.a(alt_malloc_lock.o)
 .data          0x000000000001d68c        0x0 ../Bomberman_bsp/\libhal_bsp.a(alt_read.o)
 .data          0x000000000001d68c        0x0 ../Bomberman_bsp/\libhal_bsp.a(alt_release_fd.o)
 .data          0x000000000001d68c        0x0 ../Bomberman_bsp/\libhal_bsp.a(alt_sbrk.o)
 .data          0x000000000001d68c        0x0 ../Bomberman_bsp/\libhal_bsp.a(alt_times.o)
 .data          0x000000000001d68c        0x0 ../Bomberman_bsp/\libhal_bsp.a(alt_usleep.o)
 .data          0x000000000001d68c        0x0 ../Bomberman_bsp/\libhal_bsp.a(alt_write.o)
 .data          0x000000000001d68c     0x1060 ../Bomberman_bsp/\libhal_bsp.a(alt_sys_init.o)
 .data          0x000000000001e6ec        0x0 ../Bomberman_bsp/\libhal_bsp.a(altera_avalon_jtag_uart_fd.o)
 .data          0x000000000001e6ec        0x0 ../Bomberman_bsp/\libhal_bsp.a(altera_avalon_jtag_uart_init.o)
 .data          0x000000000001e6ec        0x0 ../Bomberman_bsp/\libhal_bsp.a(altera_avalon_jtag_uart_ioctl.o)
 .data          0x000000000001e6ec        0x0 ../Bomberman_bsp/\libhal_bsp.a(altera_avalon_jtag_uart_read.o)
 .data          0x000000000001e6ec        0x0 ../Bomberman_bsp/\libhal_bsp.a(altera_avalon_jtag_uart_write.o)
 .data          0x000000000001e6ec        0x0 ../Bomberman_bsp/\libhal_bsp.a(altera_avalon_timer_sc.o)
 .data          0x000000000001e6ec        0x0 ../Bomberman_bsp/\libhal_bsp.a(alt_alarm_start.o)
 .data          0x000000000001e6ec        0x0 ../Bomberman_bsp/\libhal_bsp.a(alt_busy_sleep.o)
 .data          0x000000000001e6ec        0x0 ../Bomberman_bsp/\libhal_bsp.a(alt_dcache_flush_all.o)
 .data          0x000000000001e6ec        0x0 ../Bomberman_bsp/\libhal_bsp.a(alt_dev_llist_insert.o)
 .data          0x000000000001e6ec        0x0 ../Bomberman_bsp/\libhal_bsp.a(alt_do_ctors.o)
 .data          0x000000000001e6ec        0x0 ../Bomberman_bsp/\libhal_bsp.a(alt_do_dtors.o)
 .data          0x000000000001e6ec        0x0 ../Bomberman_bsp/\libhal_bsp.a(alt_icache_flush_all.o)
 .data          0x000000000001e6ec        0x0 ../Bomberman_bsp/\libhal_bsp.a(alt_iic.o)
 .data          0x000000000001e6ec        0x0 ../Bomberman_bsp/\libhal_bsp.a(alt_iic_isr_register.o)
 .data          0x000000000001e6ec        0x0 ../Bomberman_bsp/\libhal_bsp.a(alt_io_redirect.o)
 .data          0x000000000001e6ec        0x0 ../Bomberman_bsp/\libhal_bsp.a(alt_irq_entry.o)
 .data          0x000000000001e6ec        0x0 ../Bomberman_bsp/\libhal_bsp.a(alt_irq_handler.o)
 .data          0x000000000001e6ec        0x0 ../Bomberman_bsp/\libhal_bsp.a(alt_irq_vars.o)
 .data          0x000000000001e6ec        0x0 ../Bomberman_bsp/\libhal_bsp.a(alt_open.o)
 .data          0x000000000001e6ec        0x0 ../Bomberman_bsp/\libhal_bsp.a(alt_tick.o)
 .data          0x000000000001e6ec        0x0 ../Bomberman_bsp/\libhal_bsp.a(altera_nios2_gen2_irq.o)
 .data          0x000000000001e6ec        0x0 ../Bomberman_bsp/\libhal_bsp.a(alt_exception_entry.o)
 .data          0x000000000001e6ec        0x0 ../Bomberman_bsp/\libhal_bsp.a(alt_find_dev.o)
 .data          0x000000000001e6ec        0x0 ../Bomberman_bsp/\libhal_bsp.a(alt_find_file.o)
 .data          0x000000000001e6ec        0x0 ../Bomberman_bsp/\libhal_bsp.a(alt_get_fd.o)
 .data          0x000000000001e6ec        0x0 ../Bomberman_bsp/\libhal_bsp.a(alt_instruction_exception_entry.o)
 .data          0x000000000001e6ec        0x0 e:/quartus_fpga_design/nios2eds/bin/gnu/h-x86_64-mingw32/bin/../lib/gcc/nios2-elf/5.3.0/../../../../../H-x86_64-mingw32/nios2-elf/lib/mno-hw-mul\libc.a(lib_a-atexit.o)
 .data          0x000000000001e6ec        0x0 e:/quartus_fpga_design/nios2eds/bin/gnu/h-x86_64-mingw32/bin/../lib/gcc/nios2-elf/5.3.0/../../../../../H-x86_64-mingw32/nios2-elf/lib/mno-hw-mul\libc.a(lib_a-exit.o)
 .data          0x000000000001e6ec        0x0 e:/quartus_fpga_design/nios2eds/bin/gnu/h-x86_64-mingw32/bin/../lib/gcc/nios2-elf/5.3.0/../../../../../H-x86_64-mingw32/nios2-elf/lib/mno-hw-mul\libc.a(lib_a-memcmp.o)
 .data          0x000000000001e6ec        0x0 e:/quartus_fpga_design/nios2eds/bin/gnu/h-x86_64-mingw32/bin/../lib/gcc/nios2-elf/5.3.0/../../../../../H-x86_64-mingw32/nios2-elf/lib/mno-hw-mul\libc.a(lib_a-__atexit.o)
 .data          0x000000000001e6ec        0x0 e:/quartus_fpga_design/nios2eds/bin/gnu/h-x86_64-mingw32/bin/../lib/gcc/nios2-elf/5.3.0/../../../../../H-x86_64-mingw32/nios2-elf/lib/mno-hw-mul\libc.a(lib_a-__call_atexit.o)
 .data          0x000000000001e6ec        0x0 ../Bomberman_bsp/\libhal_bsp.a(alt_exit.o)
                0x00000000000266ec                _gp = ABSOLUTE ((. + 0x8000))
                [!provide]                        PROVIDE (gp, _gp)
 *(.rwdata .rwdata.*)
 *(.sdata .sdata.* .gnu.linkonce.s.*)
 .sdata         0x000000000001e6ec       0x10 obj/default/audio_driver.o
                0x000000000001e6ec                Back_Vol_ptr
                0x000000000001e6f0                Bomb_Vol_ptr
                0x000000000001e6f4                Bomb_Act_ptr
                0x000000000001e6f8                Audio_Sel_ptr
 .sdata         0x000000000001e6fc        0x4 obj/default/draw_driver.o
                0x000000000001e6fc                BI
 .sdata         0x000000000001e700        0xc obj/default/game.o
 .sdata         0x000000000001e70c        0x8 obj/default/main.o
                0x000000000001e70c                L1
                0x000000000001e710                L2
 .sdata         0x000000000001e714        0x8 obj/default/op.o
 .sdata._global_impure_ptr
                0x000000000001e71c        0x4 e:/quartus_fpga_design/nios2eds/bin/gnu/h-x86_64-mingw32/bin/../lib/gcc/nios2-elf/5.3.0/../../../../../H-x86_64-mingw32/nios2-elf/lib/mno-hw-mul\libc.a(lib_a-impure.o)
                0x000000000001e71c                _global_impure_ptr
 .sdata._impure_ptr
                0x000000000001e720        0x4 e:/quartus_fpga_design/nios2eds/bin/gnu/h-x86_64-mingw32/bin/../lib/gcc/nios2-elf/5.3.0/../../../../../H-x86_64-mingw32/nios2-elf/lib/mno-hw-mul\libc.a(lib_a-impure.o)
                0x000000000001e720                _impure_ptr
 .sdata.__malloc_sbrk_base
                0x000000000001e724        0x4 e:/quartus_fpga_design/nios2eds/bin/gnu/h-x86_64-mingw32/bin/../lib/gcc/nios2-elf/5.3.0/../../../../../H-x86_64-mingw32/nios2-elf/lib/mno-hw-mul\libc.a(lib_a-mallocr.o)
                0x000000000001e724                __malloc_sbrk_base
 .sdata.__malloc_trim_threshold
                0x000000000001e728        0x4 e:/quartus_fpga_design/nios2eds/bin/gnu/h-x86_64-mingw32/bin/../lib/gcc/nios2-elf/5.3.0/../../../../../H-x86_64-mingw32/nios2-elf/lib/mno-hw-mul\libc.a(lib_a-mallocr.o)
                0x000000000001e728                __malloc_trim_threshold
 .sdata.__mb_cur_max
                0x000000000001e72c        0x4 e:/quartus_fpga_design/nios2eds/bin/gnu/h-x86_64-mingw32/bin/../lib/gcc/nios2-elf/5.3.0/../../../../../H-x86_64-mingw32/nios2-elf/lib/mno-hw-mul\libc.a(lib_a-locale.o)
                0x000000000001e72c                __mb_cur_max
 .sdata.__wctomb
                0x000000000001e730        0x4 e:/quartus_fpga_design/nios2eds/bin/gnu/h-x86_64-mingw32/bin/../lib/gcc/nios2-elf/5.3.0/../../../../../H-x86_64-mingw32/nios2-elf/lib/mno-hw-mul\libc.a(lib_a-wctomb_r.o)
                0x000000000001e730                __wctomb
 .sdata         0x000000000001e734       0x14 ../Bomberman_bsp/\libhal_bsp.a(alt_dev.o)
                0x000000000001e734                alt_fs_list
                0x000000000001e73c                alt_dev_list
                0x000000000001e744                alt_max_fd
 .sdata         0x000000000001e748        0x4 ../Bomberman_bsp/\libhal_bsp.a(alt_errno.o)
                0x000000000001e748                alt_errno
 .sdata         0x000000000001e74c        0x4 ../Bomberman_bsp/\libhal_bsp.a(alt_sbrk.o)
 .sdata         0x000000000001e750        0x4 ../Bomberman_bsp/\libhal_bsp.a(alt_irq_vars.o)
                0x000000000001e750                alt_priority_mask
 .sdata         0x000000000001e754        0x8 ../Bomberman_bsp/\libhal_bsp.a(alt_tick.o)
                0x000000000001e754                alt_alarm_list
 *(.sdata2 .sdata2.* .gnu.linkonce.s2.*)
                0x000000000001e75c                . = ALIGN (0x4)
                0x000000000001e75c                _edata = ABSOLUTE (.)
                [!provide]                        PROVIDE (edata, ABSOLUTE (.))
                0x000000000001e75c                PROVIDE (__ram_rwdata_end, ABSOLUTE (.))
                0x000000000001e75c                PROVIDE (__flash_rwdata_start, LOADADDR (.rwdata))

.bss            0x00000000000202c0      0x1a8
                0x00000000000202c0                __bss_start = ABSOLUTE (.)
                [!provide]                        PROVIDE (__sbss_start, ABSOLUTE (.))
                [!provide]                        PROVIDE (___sbss_start, ABSOLUTE (.))
 *(.dynsbss)
 *(.sbss .sbss.* .gnu.linkonce.sb.*)
 .sbss          0x00000000000202c0        0x4 obj/default/USB_Keyboard_Driver.o
 .sbss          0x00000000000202c4        0x8 obj/default/USB_Keyboard_Driver.o
                0x00000000000202c4                usb_ctl_val
                0x00000000000202c6                data_size
                0x00000000000202c7                hot_plug_count
                0x00000000000202c8                keycode_read
 .sbss          0x00000000000202cc        0x4 obj/default/draw_driver.o
                0x00000000000202cc                BI_counter
 .sbss          0x00000000000202d0       0x10 obj/default/game.o
 .sbss          0x00000000000202e0        0x8 obj/default/main.o
                0x00000000000202e0                i
                0x00000000000202e4                counter
 .sbss          0x00000000000202e8        0x8 obj/default/op.o
 .sbss.__malloc_max_total_mem
                0x00000000000202f0        0x4 e:/quartus_fpga_design/nios2eds/bin/gnu/h-x86_64-mingw32/bin/../lib/gcc/nios2-elf/5.3.0/../../../../../H-x86_64-mingw32/nios2-elf/lib/mno-hw-mul\libc.a(lib_a-mallocr.o)
                0x00000000000202f0                __malloc_max_total_mem
 .sbss.__malloc_max_sbrked_mem
                0x00000000000202f4        0x4 e:/quartus_fpga_design/nios2eds/bin/gnu/h-x86_64-mingw32/bin/../lib/gcc/nios2-elf/5.3.0/../../../../../H-x86_64-mingw32/nios2-elf/lib/mno-hw-mul\libc.a(lib_a-mallocr.o)
                0x00000000000202f4                __malloc_max_sbrked_mem
 .sbss.__malloc_top_pad
                0x00000000000202f8        0x4 e:/quartus_fpga_design/nios2eds/bin/gnu/h-x86_64-mingw32/bin/../lib/gcc/nios2-elf/5.3.0/../../../../../H-x86_64-mingw32/nios2-elf/lib/mno-hw-mul\libc.a(lib_a-mallocr.o)
                0x00000000000202f8                __malloc_top_pad
 .sbss          0x00000000000202fc        0x4 e:/quartus_fpga_design/nios2eds/bin/gnu/h-x86_64-mingw32/bin/../lib/gcc/nios2-elf/5.3.0/../../../../../H-x86_64-mingw32/nios2-elf/lib/mno-hw-mul\libc.a(lib_a-int_errno.o)
                0x00000000000202fc                errno
 .sbss._PathLocale
                0x0000000000020300        0x4 e:/quartus_fpga_design/nios2eds/bin/gnu/h-x86_64-mingw32/bin/../lib/gcc/nios2-elf/5.3.0/../../../../../H-x86_64-mingw32/nios2-elf/lib/mno-hw-mul\libc.a(lib_a-locale.o)
                0x0000000000020300                _PathLocale
 .sbss.__mlocale_changed
                0x0000000000020304        0x4 e:/quartus_fpga_design/nios2eds/bin/gnu/h-x86_64-mingw32/bin/../lib/gcc/nios2-elf/5.3.0/../../../../../H-x86_64-mingw32/nios2-elf/lib/mno-hw-mul\libc.a(lib_a-locale.o)
                0x0000000000020304                __mlocale_changed
 .sbss.__nlocale_changed
                0x0000000000020308        0x4 e:/quartus_fpga_design/nios2eds/bin/gnu/h-x86_64-mingw32/bin/../lib/gcc/nios2-elf/5.3.0/../../../../../H-x86_64-mingw32/nios2-elf/lib/mno-hw-mul\libc.a(lib_a-locale.o)
                0x0000000000020308                __nlocale_changed
 .sbss          0x000000000002030c        0xc ../Bomberman_bsp/\libhal_bsp.a(alt_main.o)
                0x000000000002030c                alt_argc
                0x0000000000020310                alt_argv
                0x0000000000020314                alt_envp
 .sbss          0x0000000000020318        0x4 ../Bomberman_bsp/\libhal_bsp.a(alt_irq_vars.o)
                0x0000000000020318                alt_irq_active
 .sbss          0x000000000002031c        0x8 ../Bomberman_bsp/\libhal_bsp.a(alt_tick.o)
                0x000000000002031c                _alt_tick_rate
                0x0000000000020320                _alt_nticks
 .sbss          0x0000000000020324        0x4 ../Bomberman_bsp/\libhal_bsp.a(alt_instruction_exception_entry.o)
                0x0000000000020324                alt_instruction_exception_handler
 *(.sbss2 .sbss2.* .gnu.linkonce.sb2.*)
 *(.scommon)
                [!provide]                        PROVIDE (__sbss_end, ABSOLUTE (.))
                [!provide]                        PROVIDE (___sbss_end, ABSOLUTE (.))
 *(.dynbss)
 *(.bss .bss.* .gnu.linkonce.b.*)
 .bss           0x0000000000020328        0x0 ../Bomberman_bsp//obj/HAL/src/crt0.o
 .bss           0x0000000000020328        0x0 obj/default/INIT.o
 .bss           0x0000000000020328        0x0 obj/default/LEDandHEX.o
 .bss           0x0000000000020328        0x0 obj/default/USB_Keyboard_Driver.o
 .bss           0x0000000000020328        0x0 obj/default/USB_Keyboard_Driver_Sup/io_handler.o
 .bss           0x0000000000020328        0x0 obj/default/USB_Keyboard_Driver_Sup/usb.o
 .bss           0x0000000000020328        0x0 obj/default/audio_driver.o
 .bss           0x0000000000020328        0x0 obj/default/coins.o
 .bss           0x0000000000020328        0x0 obj/default/draw_driver.o
 .bss           0x0000000000020328        0x0 obj/default/drawing.o
 .bss           0x0000000000020328        0x0 obj/default/ed.o
 .bss           0x0000000000020328        0x0 obj/default/game.o
 .bss           0x0000000000020328        0x0 obj/default/main.o
 .bss           0x0000000000020328        0x0 obj/default/op.o
 .bss           0x0000000000020328        0x0 obj/default/readKey.o
 .bss           0x0000000000020328        0x0 obj/default/transition.o
 .bss           0x0000000000020328        0x0 e:/quartus_fpga_design/nios2eds/bin/gnu/h-x86_64-mingw32/bin/../lib/gcc/nios2-elf/5.3.0/mno-hw-mul\libgcc.a(_fixunsdfsi.o)
 .bss           0x0000000000020328        0x0 e:/quartus_fpga_design/nios2eds/bin/gnu/h-x86_64-mingw32/bin/../lib/gcc/nios2-elf/5.3.0/mno-hw-mul\libgcc.a(lib2-divmod.o)
 .bss           0x0000000000020328        0x0 e:/quartus_fpga_design/nios2eds/bin/gnu/h-x86_64-mingw32/bin/../lib/gcc/nios2-elf/5.3.0/mno-hw-mul\libgcc.a(lib2-mul.o)
 .bss           0x0000000000020328        0x0 e:/quartus_fpga_design/nios2eds/bin/gnu/h-x86_64-mingw32/bin/../lib/gcc/nios2-elf/5.3.0/mno-hw-mul\libgcc.a(divdf3.o)
 .bss           0x0000000000020328        0x0 e:/quartus_fpga_design/nios2eds/bin/gnu/h-x86_64-mingw32/bin/../lib/gcc/nios2-elf/5.3.0/mno-hw-mul\libgcc.a(gedf2.o)
 .bss           0x0000000000020328        0x0 e:/quartus_fpga_design/nios2eds/bin/gnu/h-x86_64-mingw32/bin/../lib/gcc/nios2-elf/5.3.0/mno-hw-mul\libgcc.a(subdf3.o)
 .bss           0x0000000000020328        0x0 e:/quartus_fpga_design/nios2eds/bin/gnu/h-x86_64-mingw32/bin/../lib/gcc/nios2-elf/5.3.0/mno-hw-mul\libgcc.a(fixdfsi.o)
 .bss           0x0000000000020328        0x0 e:/quartus_fpga_design/nios2eds/bin/gnu/h-x86_64-mingw32/bin/../lib/gcc/nios2-elf/5.3.0/mno-hw-mul\libgcc.a(floatunsidf.o)
 .bss           0x0000000000020328        0x0 e:/quartus_fpga_design/nios2eds/bin/gnu/h-x86_64-mingw32/bin/../lib/gcc/nios2-elf/5.3.0/mno-hw-mul\libgcc.a(_clzsi2.o)
 .bss           0x0000000000020328        0x0 e:/quartus_fpga_design/nios2eds/bin/gnu/h-x86_64-mingw32/bin/../lib/gcc/nios2-elf/5.3.0/mno-hw-mul\libgcc.a(_clz.o)
 .bss           0x0000000000020328        0x0 e:/quartus_fpga_design/nios2eds/bin/gnu/h-x86_64-mingw32/bin/../lib/gcc/nios2-elf/5.3.0/../../../../../H-x86_64-mingw32/nios2-elf/lib/mno-hw-mul\libc.a(lib_a-clock.o)
 .bss           0x0000000000020328        0x0 e:/quartus_fpga_design/nios2eds/bin/gnu/h-x86_64-mingw32/bin/../lib/gcc/nios2-elf/5.3.0/../../../../../H-x86_64-mingw32/nios2-elf/lib/mno-hw-mul\libc.a(lib_a-impure.o)
 .bss           0x0000000000020328        0x0 e:/quartus_fpga_design/nios2eds/bin/gnu/h-x86_64-mingw32/bin/../lib/gcc/nios2-elf/5.3.0/../../../../../H-x86_64-mingw32/nios2-elf/lib/mno-hw-mul\libc.a(lib_a-malloc.o)
 .bss           0x0000000000020328        0x0 e:/quartus_fpga_design/nios2eds/bin/gnu/h-x86_64-mingw32/bin/../lib/gcc/nios2-elf/5.3.0/../../../../../H-x86_64-mingw32/nios2-elf/lib/mno-hw-mul\libc.a(lib_a-mallocr.o)
 .bss.__malloc_current_mallinfo
                0x0000000000020328       0x28 e:/quartus_fpga_design/nios2eds/bin/gnu/h-x86_64-mingw32/bin/../lib/gcc/nios2-elf/5.3.0/../../../../../H-x86_64-mingw32/nios2-elf/lib/mno-hw-mul\libc.a(lib_a-mallocr.o)
                0x0000000000020328                __malloc_current_mallinfo
 .bss           0x0000000000020350        0x0 e:/quartus_fpga_design/nios2eds/bin/gnu/h-x86_64-mingw32/bin/../lib/gcc/nios2-elf/5.3.0/../../../../../H-x86_64-mingw32/nios2-elf/lib/mno-hw-mul\libc.a(lib_a-printf.o)
 .bss           0x0000000000020350        0x0 e:/quartus_fpga_design/nios2eds/bin/gnu/h-x86_64-mingw32/bin/../lib/gcc/nios2-elf/5.3.0/../../../../../H-x86_64-mingw32/nios2-elf/lib/mno-hw-mul\libc.a(lib_a-puts.o)
 .bss           0x0000000000020350        0x0 e:/quartus_fpga_design/nios2eds/bin/gnu/h-x86_64-mingw32/bin/../lib/gcc/nios2-elf/5.3.0/../../../../../H-x86_64-mingw32/nios2-elf/lib/mno-hw-mul\libc.a(lib_a-rand.o)
 .bss           0x0000000000020350        0x0 e:/quartus_fpga_design/nios2eds/bin/gnu/h-x86_64-mingw32/bin/../lib/gcc/nios2-elf/5.3.0/../../../../../H-x86_64-mingw32/nios2-elf/lib/mno-hw-mul\libc.a(lib_a-sbrkr.o)
 .bss           0x0000000000020350        0x0 e:/quartus_fpga_design/nios2eds/bin/gnu/h-x86_64-mingw32/bin/../lib/gcc/nios2-elf/5.3.0/../../../../../H-x86_64-mingw32/nios2-elf/lib/mno-hw-mul\libc.a(lib_a-strlen.o)
 .bss           0x0000000000020350        0x0 e:/quartus_fpga_design/nios2eds/bin/gnu/h-x86_64-mingw32/bin/../lib/gcc/nios2-elf/5.3.0/../../../../../H-x86_64-mingw32/nios2-elf/lib/mno-hw-mul\libc.a(lib_a-timesr.o)
 .bss           0x0000000000020350        0x0 e:/quartus_fpga_design/nios2eds/bin/gnu/h-x86_64-mingw32/bin/../lib/gcc/nios2-elf/5.3.0/../../../../../H-x86_64-mingw32/nios2-elf/lib/mno-hw-mul\libc.a(lib_a-vfprintf.o)
 .bss           0x0000000000020350        0x0 e:/quartus_fpga_design/nios2eds/bin/gnu/h-x86_64-mingw32/bin/../lib/gcc/nios2-elf/5.3.0/../../../../../H-x86_64-mingw32/nios2-elf/lib/mno-hw-mul\libc.a(lib_a-wsetup.o)
 .bss           0x0000000000020350        0x0 e:/quartus_fpga_design/nios2eds/bin/gnu/h-x86_64-mingw32/bin/../lib/gcc/nios2-elf/5.3.0/../../../../../H-x86_64-mingw32/nios2-elf/lib/mno-hw-mul\libc.a(lib_a-dtoa.o)
 .bss           0x0000000000020350        0x0 e:/quartus_fpga_design/nios2eds/bin/gnu/h-x86_64-mingw32/bin/../lib/gcc/nios2-elf/5.3.0/../../../../../H-x86_64-mingw32/nios2-elf/lib/mno-hw-mul\libc.a(lib_a-fflush.o)
 .bss           0x0000000000020350        0x0 e:/quartus_fpga_design/nios2eds/bin/gnu/h-x86_64-mingw32/bin/../lib/gcc/nios2-elf/5.3.0/../../../../../H-x86_64-mingw32/nios2-elf/lib/mno-hw-mul\libc.a(lib_a-findfp.o)
 .bss           0x0000000000020350        0x0 e:/quartus_fpga_design/nios2eds/bin/gnu/h-x86_64-mingw32/bin/../lib/gcc/nios2-elf/5.3.0/../../../../../H-x86_64-mingw32/nios2-elf/lib/mno-hw-mul\libc.a(lib_a-freer.o)
 .bss           0x0000000000020350        0x0 e:/quartus_fpga_design/nios2eds/bin/gnu/h-x86_64-mingw32/bin/../lib/gcc/nios2-elf/5.3.0/../../../../../H-x86_64-mingw32/nios2-elf/lib/mno-hw-mul\libc.a(lib_a-fvwrite.o)
 .bss           0x0000000000020350        0x0 e:/quartus_fpga_design/nios2eds/bin/gnu/h-x86_64-mingw32/bin/../lib/gcc/nios2-elf/5.3.0/../../../../../H-x86_64-mingw32/nios2-elf/lib/mno-hw-mul\libc.a(lib_a-fwalk.o)
 .bss           0x0000000000020350        0x0 e:/quartus_fpga_design/nios2eds/bin/gnu/h-x86_64-mingw32/bin/../lib/gcc/nios2-elf/5.3.0/../../../../../H-x86_64-mingw32/nios2-elf/lib/mno-hw-mul\libc.a(lib_a-int_errno.o)
 .bss           0x0000000000020350        0x0 e:/quartus_fpga_design/nios2eds/bin/gnu/h-x86_64-mingw32/bin/../lib/gcc/nios2-elf/5.3.0/../../../../../H-x86_64-mingw32/nios2-elf/lib/mno-hw-mul\libc.a(lib_a-locale.o)
 .bss           0x0000000000020350        0x0 e:/quartus_fpga_design/nios2eds/bin/gnu/h-x86_64-mingw32/bin/../lib/gcc/nios2-elf/5.3.0/../../../../../H-x86_64-mingw32/nios2-elf/lib/mno-hw-mul\libc.a(lib_a-makebuf.o)
 .bss           0x0000000000020350        0x0 e:/quartus_fpga_design/nios2eds/bin/gnu/h-x86_64-mingw32/bin/../lib/gcc/nios2-elf/5.3.0/../../../../../H-x86_64-mingw32/nios2-elf/lib/mno-hw-mul\libc.a(lib_a-memchr.o)
 .bss           0x0000000000020350        0x0 e:/quartus_fpga_design/nios2eds/bin/gnu/h-x86_64-mingw32/bin/../lib/gcc/nios2-elf/5.3.0/../../../../../H-x86_64-mingw32/nios2-elf/lib/mno-hw-mul\libc.a(lib_a-memcpy.o)
 .bss           0x0000000000020350        0x0 e:/quartus_fpga_design/nios2eds/bin/gnu/h-x86_64-mingw32/bin/../lib/gcc/nios2-elf/5.3.0/../../../../../H-x86_64-mingw32/nios2-elf/lib/mno-hw-mul\libc.a(lib_a-memmove.o)
 .bss           0x0000000000020350        0x0 e:/quartus_fpga_design/nios2eds/bin/gnu/h-x86_64-mingw32/bin/../lib/gcc/nios2-elf/5.3.0/../../../../../H-x86_64-mingw32/nios2-elf/lib/mno-hw-mul\libc.a(lib_a-memset.o)
 .bss           0x0000000000020350        0x0 e:/quartus_fpga_design/nios2eds/bin/gnu/h-x86_64-mingw32/bin/../lib/gcc/nios2-elf/5.3.0/../../../../../H-x86_64-mingw32/nios2-elf/lib/mno-hw-mul\libc.a(lib_a-mprec.o)
 .bss           0x0000000000020350        0x0 e:/quartus_fpga_design/nios2eds/bin/gnu/h-x86_64-mingw32/bin/../lib/gcc/nios2-elf/5.3.0/../../../../../H-x86_64-mingw32/nios2-elf/lib/mno-hw-mul\libc.a(lib_a-reallocr.o)
 .bss           0x0000000000020350        0x0 e:/quartus_fpga_design/nios2eds/bin/gnu/h-x86_64-mingw32/bin/../lib/gcc/nios2-elf/5.3.0/../../../../../H-x86_64-mingw32/nios2-elf/lib/mno-hw-mul\libc.a(lib_a-s_fpclassify.o)
 .bss           0x0000000000020350        0x0 e:/quartus_fpga_design/nios2eds/bin/gnu/h-x86_64-mingw32/bin/../lib/gcc/nios2-elf/5.3.0/../../../../../H-x86_64-mingw32/nios2-elf/lib/mno-hw-mul\libc.a(lib_a-stdio.o)
 .bss           0x0000000000020350        0x0 e:/quartus_fpga_design/nios2eds/bin/gnu/h-x86_64-mingw32/bin/../lib/gcc/nios2-elf/5.3.0/../../../../../H-x86_64-mingw32/nios2-elf/lib/mno-hw-mul\libc.a(lib_a-strcmp.o)
 .bss           0x0000000000020350        0x0 e:/quartus_fpga_design/nios2eds/bin/gnu/h-x86_64-mingw32/bin/../lib/gcc/nios2-elf/5.3.0/../../../../../H-x86_64-mingw32/nios2-elf/lib/mno-hw-mul\libc.a(lib_a-vfiprintf.o)
 .bss           0x0000000000020350        0x0 e:/quartus_fpga_design/nios2eds/bin/gnu/h-x86_64-mingw32/bin/../lib/gcc/nios2-elf/5.3.0/../../../../../H-x86_64-mingw32/nios2-elf/lib/mno-hw-mul\libc.a(lib_a-writer.o)
 .bss           0x0000000000020350        0x0 e:/quartus_fpga_design/nios2eds/bin/gnu/h-x86_64-mingw32/bin/../lib/gcc/nios2-elf/5.3.0/../../../../../H-x86_64-mingw32/nios2-elf/lib/mno-hw-mul\libc.a(closer.o)
 .bss           0x0000000000020350        0x0 e:/quartus_fpga_design/nios2eds/bin/gnu/h-x86_64-mingw32/bin/../lib/gcc/nios2-elf/5.3.0/../../../../../H-x86_64-mingw32/nios2-elf/lib/mno-hw-mul\libc.a(lib_a-callocr.o)
 .bss           0x0000000000020350        0x0 e:/quartus_fpga_design/nios2eds/bin/gnu/h-x86_64-mingw32/bin/../lib/gcc/nios2-elf/5.3.0/../../../../../H-x86_64-mingw32/nios2-elf/lib/mno-hw-mul\libc.a(lib_a-fclose.o)
 .bss           0x0000000000020350        0x0 e:/quartus_fpga_design/nios2eds/bin/gnu/h-x86_64-mingw32/bin/../lib/gcc/nios2-elf/5.3.0/../../../../../H-x86_64-mingw32/nios2-elf/lib/mno-hw-mul\libc.a(lib_a-fputwc.o)
 .bss           0x0000000000020350        0x0 e:/quartus_fpga_design/nios2eds/bin/gnu/h-x86_64-mingw32/bin/../lib/gcc/nios2-elf/5.3.0/../../../../../H-x86_64-mingw32/nios2-elf/lib/mno-hw-mul\libc.a(lib_a-fstatr.o)
 .bss           0x0000000000020350        0x0 e:/quartus_fpga_design/nios2eds/bin/gnu/h-x86_64-mingw32/bin/../lib/gcc/nios2-elf/5.3.0/../../../../../H-x86_64-mingw32/nios2-elf/lib/mno-hw-mul\libc.a(lib_a-isattyr.o)
 .bss           0x0000000000020350        0x0 e:/quartus_fpga_design/nios2eds/bin/gnu/h-x86_64-mingw32/bin/../lib/gcc/nios2-elf/5.3.0/../../../../../H-x86_64-mingw32/nios2-elf/lib/mno-hw-mul\libc.a(lib_a-lseekr.o)
 .bss           0x0000000000020350        0x0 e:/quartus_fpga_design/nios2eds/bin/gnu/h-x86_64-mingw32/bin/../lib/gcc/nios2-elf/5.3.0/../../../../../H-x86_64-mingw32/nios2-elf/lib/mno-hw-mul\libc.a(lib_a-readr.o)
 .bss           0x0000000000020350        0x0 e:/quartus_fpga_design/nios2eds/bin/gnu/h-x86_64-mingw32/bin/../lib/gcc/nios2-elf/5.3.0/../../../../../H-x86_64-mingw32/nios2-elf/lib/mno-hw-mul\libc.a(lib_a-wbuf.o)
 .bss           0x0000000000020350        0x0 e:/quartus_fpga_design/nios2eds/bin/gnu/h-x86_64-mingw32/bin/../lib/gcc/nios2-elf/5.3.0/../../../../../H-x86_64-mingw32/nios2-elf/lib/mno-hw-mul\libc.a(lib_a-wcrtomb.o)
 .bss           0x0000000000020350        0x0 e:/quartus_fpga_design/nios2eds/bin/gnu/h-x86_64-mingw32/bin/../lib/gcc/nios2-elf/5.3.0/../../../../../H-x86_64-mingw32/nios2-elf/lib/mno-hw-mul\libc.a(lib_a-wctomb_r.o)
 .bss           0x0000000000020350        0x0 e:/quartus_fpga_design/nios2eds/bin/gnu/h-x86_64-mingw32/bin/../lib/gcc/nios2-elf/5.3.0/mno-hw-mul\libgcc.a(_muldi3.o)
 .bss           0x0000000000020350        0x0 e:/quartus_fpga_design/nios2eds/bin/gnu/h-x86_64-mingw32/bin/../lib/gcc/nios2-elf/5.3.0/mno-hw-mul\libgcc.a(_udivdi3.o)
 .bss           0x0000000000020350        0x0 e:/quartus_fpga_design/nios2eds/bin/gnu/h-x86_64-mingw32/bin/../lib/gcc/nios2-elf/5.3.0/mno-hw-mul\libgcc.a(_umoddi3.o)
 .bss           0x0000000000020350        0x0 e:/quartus_fpga_design/nios2eds/bin/gnu/h-x86_64-mingw32/bin/../lib/gcc/nios2-elf/5.3.0/mno-hw-mul\libgcc.a(adddf3.o)
 .bss           0x0000000000020350        0x0 e:/quartus_fpga_design/nios2eds/bin/gnu/h-x86_64-mingw32/bin/../lib/gcc/nios2-elf/5.3.0/mno-hw-mul\libgcc.a(eqdf2.o)
 .bss           0x0000000000020350        0x0 e:/quartus_fpga_design/nios2eds/bin/gnu/h-x86_64-mingw32/bin/../lib/gcc/nios2-elf/5.3.0/mno-hw-mul\libgcc.a(ledf2.o)
 .bss           0x0000000000020350        0x0 e:/quartus_fpga_design/nios2eds/bin/gnu/h-x86_64-mingw32/bin/../lib/gcc/nios2-elf/5.3.0/mno-hw-mul\libgcc.a(muldf3.o)
 .bss           0x0000000000020350        0x0 e:/quartus_fpga_design/nios2eds/bin/gnu/h-x86_64-mingw32/bin/../lib/gcc/nios2-elf/5.3.0/mno-hw-mul\libgcc.a(floatsidf.o)
 .bss           0x0000000000020350        0x0 ../Bomberman_bsp/\libhal_bsp.a(alt_close.o)
 .bss           0x0000000000020350        0x0 ../Bomberman_bsp/\libhal_bsp.a(alt_dev.o)
 .bss           0x0000000000020350        0x0 ../Bomberman_bsp/\libhal_bsp.a(alt_errno.o)
 .bss           0x0000000000020350        0x0 ../Bomberman_bsp/\libhal_bsp.a(alt_fstat.o)
 .bss           0x0000000000020350        0x0 ../Bomberman_bsp/\libhal_bsp.a(alt_isatty.o)
 .bss           0x0000000000020350        0x0 ../Bomberman_bsp/\libhal_bsp.a(alt_load.o)
 .bss           0x0000000000020350        0x0 ../Bomberman_bsp/\libhal_bsp.a(alt_lseek.o)
 .bss           0x0000000000020350        0x0 ../Bomberman_bsp/\libhal_bsp.a(alt_main.o)
 .bss           0x0000000000020350        0x0 ../Bomberman_bsp/\libhal_bsp.a(alt_malloc_lock.o)
 .bss           0x0000000000020350        0x0 ../Bomberman_bsp/\libhal_bsp.a(alt_read.o)
 .bss           0x0000000000020350        0x0 ../Bomberman_bsp/\libhal_bsp.a(alt_release_fd.o)
 .bss           0x0000000000020350        0x0 ../Bomberman_bsp/\libhal_bsp.a(alt_sbrk.o)
 .bss           0x0000000000020350        0x0 ../Bomberman_bsp/\libhal_bsp.a(alt_times.o)
 .bss           0x0000000000020350        0x0 ../Bomberman_bsp/\libhal_bsp.a(alt_usleep.o)
 .bss           0x0000000000020350        0x0 ../Bomberman_bsp/\libhal_bsp.a(alt_write.o)
 .bss           0x0000000000020350        0x0 ../Bomberman_bsp/\libhal_bsp.a(alt_sys_init.o)
 .bss           0x0000000000020350        0x0 ../Bomberman_bsp/\libhal_bsp.a(altera_avalon_jtag_uart_fd.o)
 .bss           0x0000000000020350        0x0 ../Bomberman_bsp/\libhal_bsp.a(altera_avalon_jtag_uart_init.o)
 .bss           0x0000000000020350        0x0 ../Bomberman_bsp/\libhal_bsp.a(altera_avalon_jtag_uart_ioctl.o)
 .bss           0x0000000000020350        0x0 ../Bomberman_bsp/\libhal_bsp.a(altera_avalon_jtag_uart_read.o)
 .bss           0x0000000000020350        0x0 ../Bomberman_bsp/\libhal_bsp.a(altera_avalon_jtag_uart_write.o)
 .bss           0x0000000000020350        0x0 ../Bomberman_bsp/\libhal_bsp.a(altera_avalon_timer_sc.o)
 .bss           0x0000000000020350        0x0 ../Bomberman_bsp/\libhal_bsp.a(alt_alarm_start.o)
 .bss           0x0000000000020350        0x0 ../Bomberman_bsp/\libhal_bsp.a(alt_busy_sleep.o)
 .bss           0x0000000000020350        0x0 ../Bomberman_bsp/\libhal_bsp.a(alt_dcache_flush_all.o)
 .bss           0x0000000000020350        0x0 ../Bomberman_bsp/\libhal_bsp.a(alt_dev_llist_insert.o)
 .bss           0x0000000000020350        0x0 ../Bomberman_bsp/\libhal_bsp.a(alt_do_ctors.o)
 .bss           0x0000000000020350        0x0 ../Bomberman_bsp/\libhal_bsp.a(alt_do_dtors.o)
 .bss           0x0000000000020350        0x0 ../Bomberman_bsp/\libhal_bsp.a(alt_icache_flush_all.o)
 .bss           0x0000000000020350        0x0 ../Bomberman_bsp/\libhal_bsp.a(alt_iic.o)
 .bss           0x0000000000020350        0x0 ../Bomberman_bsp/\libhal_bsp.a(alt_iic_isr_register.o)
 .bss           0x0000000000020350        0x0 ../Bomberman_bsp/\libhal_bsp.a(alt_io_redirect.o)
 .bss           0x0000000000020350        0x0 ../Bomberman_bsp/\libhal_bsp.a(alt_irq_entry.o)
 .bss           0x0000000000020350        0x0 ../Bomberman_bsp/\libhal_bsp.a(alt_irq_handler.o)
 .bss           0x0000000000020350        0x0 ../Bomberman_bsp/\libhal_bsp.a(alt_irq_vars.o)
 .bss           0x0000000000020350        0x0 ../Bomberman_bsp/\libhal_bsp.a(alt_open.o)
 .bss           0x0000000000020350        0x0 ../Bomberman_bsp/\libhal_bsp.a(alt_tick.o)
 .bss           0x0000000000020350        0x0 ../Bomberman_bsp/\libhal_bsp.a(altera_nios2_gen2_irq.o)
 .bss           0x0000000000020350        0x0 ../Bomberman_bsp/\libhal_bsp.a(alt_exception_entry.o)
 .bss           0x0000000000020350        0x0 ../Bomberman_bsp/\libhal_bsp.a(alt_find_dev.o)
 .bss           0x0000000000020350        0x0 ../Bomberman_bsp/\libhal_bsp.a(alt_find_file.o)
 .bss           0x0000000000020350        0x0 ../Bomberman_bsp/\libhal_bsp.a(alt_get_fd.o)
 .bss           0x0000000000020350        0x0 ../Bomberman_bsp/\libhal_bsp.a(alt_instruction_exception_entry.o)
 .bss           0x0000000000020350        0x0 e:/quartus_fpga_design/nios2eds/bin/gnu/h-x86_64-mingw32/bin/../lib/gcc/nios2-elf/5.3.0/../../../../../H-x86_64-mingw32/nios2-elf/lib/mno-hw-mul\libc.a(lib_a-atexit.o)
 .bss           0x0000000000020350        0x0 e:/quartus_fpga_design/nios2eds/bin/gnu/h-x86_64-mingw32/bin/../lib/gcc/nios2-elf/5.3.0/../../../../../H-x86_64-mingw32/nios2-elf/lib/mno-hw-mul\libc.a(lib_a-exit.o)
 .bss           0x0000000000020350        0x0 e:/quartus_fpga_design/nios2eds/bin/gnu/h-x86_64-mingw32/bin/../lib/gcc/nios2-elf/5.3.0/../../../../../H-x86_64-mingw32/nios2-elf/lib/mno-hw-mul\libc.a(lib_a-memcmp.o)
 .bss           0x0000000000020350        0x0 e:/quartus_fpga_design/nios2eds/bin/gnu/h-x86_64-mingw32/bin/../lib/gcc/nios2-elf/5.3.0/../../../../../H-x86_64-mingw32/nios2-elf/lib/mno-hw-mul\libc.a(lib_a-__atexit.o)
 .bss           0x0000000000020350        0x0 e:/quartus_fpga_design/nios2eds/bin/gnu/h-x86_64-mingw32/bin/../lib/gcc/nios2-elf/5.3.0/../../../../../H-x86_64-mingw32/nios2-elf/lib/mno-hw-mul\libc.a(lib_a-__call_atexit.o)
 .bss           0x0000000000020350        0x0 ../Bomberman_bsp/\libhal_bsp.a(alt_exit.o)
 *(COMMON)
 COMMON         0x0000000000020350       0x18 obj/default/main.o
                0x0000000000020350                keycode
 COMMON         0x0000000000020368      0x100 ../Bomberman_bsp/\libhal_bsp.a(alt_irq_handler.o)
                0x0000000000020368                alt_irq
                0x0000000000020468                . = ALIGN (0x4)
                0x0000000000020468                __bss_end = ABSOLUTE (.)

.sdram          0x0000000000020468        0x0
                [!provide]                        PROVIDE (_alt_partition_sdram_start, ABSOLUTE (.))
 *(.sdram .sdram. sdram.*)
                0x0000000000020468                . = ALIGN (0x4)
                [!provide]                        PROVIDE (_alt_partition_sdram_end, ABSOLUTE (.))
                0x0000000000020468                _end = ABSOLUTE (.)
                0x0000000000020468                end = ABSOLUTE (.)
                0x0000000000020468                __alt_stack_base = ABSOLUTE (.)
                [!provide]                        PROVIDE (_alt_partition_sdram_load_addr, LOADADDR (.sdram))

.stab
 *(.stab)

.stabstr
 *(.stabstr)

.stab.excl
 *(.stab.excl)

.stab.exclstr
 *(.stab.exclstr)

.stab.index
 *(.stab.index)

.stab.indexstr
 *(.stab.indexstr)

.comment        0x0000000000000000       0x23
 *(.comment)
 .comment       0x0000000000000000       0x23 obj/default/INIT.o
                                         0x24 (size before relaxing)
 .comment       0x0000000000000023       0x24 obj/default/LEDandHEX.o
 .comment       0x0000000000000023       0x24 obj/default/USB_Keyboard_Driver.o
 .comment       0x0000000000000023       0x24 obj/default/USB_Keyboard_Driver_Sup/io_handler.o
 .comment       0x0000000000000023       0x24 obj/default/USB_Keyboard_Driver_Sup/usb.o
 .comment       0x0000000000000023       0x24 obj/default/audio_driver.o
 .comment       0x0000000000000023       0x24 obj/default/coins.o
 .comment       0x0000000000000023       0x24 obj/default/draw_driver.o
 .comment       0x0000000000000023       0x24 obj/default/drawing.o
 .comment       0x0000000000000023       0x24 obj/default/ed.o
 .comment       0x0000000000000023       0x24 obj/default/game.o
 .comment       0x0000000000000023       0x24 obj/default/main.o
 .comment       0x0000000000000023       0x24 obj/default/op.o
 .comment       0x0000000000000023       0x24 obj/default/readKey.o
 .comment       0x0000000000000023       0x24 obj/default/transition.o
 .comment       0x0000000000000023       0x24 e:/quartus_fpga_design/nios2eds/bin/gnu/h-x86_64-mingw32/bin/../lib/gcc/nios2-elf/5.3.0/mno-hw-mul\libgcc.a(_fixunsdfsi.o)
 .comment       0x0000000000000023       0x24 e:/quartus_fpga_design/nios2eds/bin/gnu/h-x86_64-mingw32/bin/../lib/gcc/nios2-elf/5.3.0/mno-hw-mul\libgcc.a(lib2-divmod.o)
 .comment       0x0000000000000023       0x24 e:/quartus_fpga_design/nios2eds/bin/gnu/h-x86_64-mingw32/bin/../lib/gcc/nios2-elf/5.3.0/mno-hw-mul\libgcc.a(lib2-mul.o)
 .comment       0x0000000000000023       0x24 e:/quartus_fpga_design/nios2eds/bin/gnu/h-x86_64-mingw32/bin/../lib/gcc/nios2-elf/5.3.0/mno-hw-mul\libgcc.a(divdf3.o)
 .comment       0x0000000000000023       0x24 e:/quartus_fpga_design/nios2eds/bin/gnu/h-x86_64-mingw32/bin/../lib/gcc/nios2-elf/5.3.0/mno-hw-mul\libgcc.a(gedf2.o)
 .comment       0x0000000000000023       0x24 e:/quartus_fpga_design/nios2eds/bin/gnu/h-x86_64-mingw32/bin/../lib/gcc/nios2-elf/5.3.0/mno-hw-mul\libgcc.a(subdf3.o)
 .comment       0x0000000000000023       0x24 e:/quartus_fpga_design/nios2eds/bin/gnu/h-x86_64-mingw32/bin/../lib/gcc/nios2-elf/5.3.0/mno-hw-mul\libgcc.a(fixdfsi.o)
 .comment       0x0000000000000023       0x24 e:/quartus_fpga_design/nios2eds/bin/gnu/h-x86_64-mingw32/bin/../lib/gcc/nios2-elf/5.3.0/mno-hw-mul\libgcc.a(floatunsidf.o)
 .comment       0x0000000000000023       0x24 e:/quartus_fpga_design/nios2eds/bin/gnu/h-x86_64-mingw32/bin/../lib/gcc/nios2-elf/5.3.0/mno-hw-mul\libgcc.a(_clzsi2.o)
 .comment       0x0000000000000023       0x24 e:/quartus_fpga_design/nios2eds/bin/gnu/h-x86_64-mingw32/bin/../lib/gcc/nios2-elf/5.3.0/mno-hw-mul\libgcc.a(_clz.o)
 .comment       0x0000000000000023       0x24 e:/quartus_fpga_design/nios2eds/bin/gnu/h-x86_64-mingw32/bin/../lib/gcc/nios2-elf/5.3.0/../../../../../H-x86_64-mingw32/nios2-elf/lib/mno-hw-mul\libc.a(lib_a-clock.o)
 .comment       0x0000000000000023       0x24 e:/quartus_fpga_design/nios2eds/bin/gnu/h-x86_64-mingw32/bin/../lib/gcc/nios2-elf/5.3.0/../../../../../H-x86_64-mingw32/nios2-elf/lib/mno-hw-mul\libc.a(lib_a-impure.o)
 .comment       0x0000000000000023       0x24 e:/quartus_fpga_design/nios2eds/bin/gnu/h-x86_64-mingw32/bin/../lib/gcc/nios2-elf/5.3.0/../../../../../H-x86_64-mingw32/nios2-elf/lib/mno-hw-mul\libc.a(lib_a-malloc.o)
 .comment       0x0000000000000023       0x24 e:/quartus_fpga_design/nios2eds/bin/gnu/h-x86_64-mingw32/bin/../lib/gcc/nios2-elf/5.3.0/../../../../../H-x86_64-mingw32/nios2-elf/lib/mno-hw-mul\libc.a(lib_a-mallocr.o)
 .comment       0x0000000000000023       0x24 e:/quartus_fpga_design/nios2eds/bin/gnu/h-x86_64-mingw32/bin/../lib/gcc/nios2-elf/5.3.0/../../../../../H-x86_64-mingw32/nios2-elf/lib/mno-hw-mul\libc.a(lib_a-printf.o)
 .comment       0x0000000000000023       0x24 e:/quartus_fpga_design/nios2eds/bin/gnu/h-x86_64-mingw32/bin/../lib/gcc/nios2-elf/5.3.0/../../../../../H-x86_64-mingw32/nios2-elf/lib/mno-hw-mul\libc.a(lib_a-puts.o)
 .comment       0x0000000000000023       0x24 e:/quartus_fpga_design/nios2eds/bin/gnu/h-x86_64-mingw32/bin/../lib/gcc/nios2-elf/5.3.0/../../../../../H-x86_64-mingw32/nios2-elf/lib/mno-hw-mul\libc.a(lib_a-rand.o)
 .comment       0x0000000000000023       0x24 e:/quartus_fpga_design/nios2eds/bin/gnu/h-x86_64-mingw32/bin/../lib/gcc/nios2-elf/5.3.0/../../../../../H-x86_64-mingw32/nios2-elf/lib/mno-hw-mul\libc.a(lib_a-sbrkr.o)
 .comment       0x0000000000000023       0x24 e:/quartus_fpga_design/nios2eds/bin/gnu/h-x86_64-mingw32/bin/../lib/gcc/nios2-elf/5.3.0/../../../../../H-x86_64-mingw32/nios2-elf/lib/mno-hw-mul\libc.a(lib_a-strlen.o)
 .comment       0x0000000000000023       0x24 e:/quartus_fpga_design/nios2eds/bin/gnu/h-x86_64-mingw32/bin/../lib/gcc/nios2-elf/5.3.0/../../../../../H-x86_64-mingw32/nios2-elf/lib/mno-hw-mul\libc.a(lib_a-timesr.o)
 .comment       0x0000000000000023       0x24 e:/quartus_fpga_design/nios2eds/bin/gnu/h-x86_64-mingw32/bin/../lib/gcc/nios2-elf/5.3.0/../../../../../H-x86_64-mingw32/nios2-elf/lib/mno-hw-mul\libc.a(lib_a-vfprintf.o)
 .comment       0x0000000000000023       0x24 e:/quartus_fpga_design/nios2eds/bin/gnu/h-x86_64-mingw32/bin/../lib/gcc/nios2-elf/5.3.0/../../../../../H-x86_64-mingw32/nios2-elf/lib/mno-hw-mul\libc.a(lib_a-wsetup.o)
 .comment       0x0000000000000023       0x24 e:/quartus_fpga_design/nios2eds/bin/gnu/h-x86_64-mingw32/bin/../lib/gcc/nios2-elf/5.3.0/../../../../../H-x86_64-mingw32/nios2-elf/lib/mno-hw-mul\libc.a(lib_a-dtoa.o)
 .comment       0x0000000000000023       0x24 e:/quartus_fpga_design/nios2eds/bin/gnu/h-x86_64-mingw32/bin/../lib/gcc/nios2-elf/5.3.0/../../../../../H-x86_64-mingw32/nios2-elf/lib/mno-hw-mul\libc.a(lib_a-fflush.o)
 .comment       0x0000000000000023       0x24 e:/quartus_fpga_design/nios2eds/bin/gnu/h-x86_64-mingw32/bin/../lib/gcc/nios2-elf/5.3.0/../../../../../H-x86_64-mingw32/nios2-elf/lib/mno-hw-mul\libc.a(lib_a-findfp.o)
 .comment       0x0000000000000023       0x24 e:/quartus_fpga_design/nios2eds/bin/gnu/h-x86_64-mingw32/bin/../lib/gcc/nios2-elf/5.3.0/../../../../../H-x86_64-mingw32/nios2-elf/lib/mno-hw-mul\libc.a(lib_a-freer.o)
 .comment       0x0000000000000023       0x24 e:/quartus_fpga_design/nios2eds/bin/gnu/h-x86_64-mingw32/bin/../lib/gcc/nios2-elf/5.3.0/../../../../../H-x86_64-mingw32/nios2-elf/lib/mno-hw-mul\libc.a(lib_a-fvwrite.o)
 .comment       0x0000000000000023       0x24 e:/quartus_fpga_design/nios2eds/bin/gnu/h-x86_64-mingw32/bin/../lib/gcc/nios2-elf/5.3.0/../../../../../H-x86_64-mingw32/nios2-elf/lib/mno-hw-mul\libc.a(lib_a-fwalk.o)
 .comment       0x0000000000000023       0x24 e:/quartus_fpga_design/nios2eds/bin/gnu/h-x86_64-mingw32/bin/../lib/gcc/nios2-elf/5.3.0/../../../../../H-x86_64-mingw32/nios2-elf/lib/mno-hw-mul\libc.a(lib_a-int_errno.o)
 .comment       0x0000000000000023       0x24 e:/quartus_fpga_design/nios2eds/bin/gnu/h-x86_64-mingw32/bin/../lib/gcc/nios2-elf/5.3.0/../../../../../H-x86_64-mingw32/nios2-elf/lib/mno-hw-mul\libc.a(lib_a-locale.o)
 .comment       0x0000000000000023       0x24 e:/quartus_fpga_design/nios2eds/bin/gnu/h-x86_64-mingw32/bin/../lib/gcc/nios2-elf/5.3.0/../../../../../H-x86_64-mingw32/nios2-elf/lib/mno-hw-mul\libc.a(lib_a-makebuf.o)
 .comment       0x0000000000000023       0x24 e:/quartus_fpga_design/nios2eds/bin/gnu/h-x86_64-mingw32/bin/../lib/gcc/nios2-elf/5.3.0/../../../../../H-x86_64-mingw32/nios2-elf/lib/mno-hw-mul\libc.a(lib_a-memchr.o)
 .comment       0x0000000000000023       0x24 e:/quartus_fpga_design/nios2eds/bin/gnu/h-x86_64-mingw32/bin/../lib/gcc/nios2-elf/5.3.0/../../../../../H-x86_64-mingw32/nios2-elf/lib/mno-hw-mul\libc.a(lib_a-memcpy.o)
 .comment       0x0000000000000023       0x24 e:/quartus_fpga_design/nios2eds/bin/gnu/h-x86_64-mingw32/bin/../lib/gcc/nios2-elf/5.3.0/../../../../../H-x86_64-mingw32/nios2-elf/lib/mno-hw-mul\libc.a(lib_a-memmove.o)
 .comment       0x0000000000000023       0x24 e:/quartus_fpga_design/nios2eds/bin/gnu/h-x86_64-mingw32/bin/../lib/gcc/nios2-elf/5.3.0/../../../../../H-x86_64-mingw32/nios2-elf/lib/mno-hw-mul\libc.a(lib_a-memset.o)
 .comment       0x0000000000000023       0x24 e:/quartus_fpga_design/nios2eds/bin/gnu/h-x86_64-mingw32/bin/../lib/gcc/nios2-elf/5.3.0/../../../../../H-x86_64-mingw32/nios2-elf/lib/mno-hw-mul\libc.a(lib_a-mprec.o)
 .comment       0x0000000000000023       0x24 e:/quartus_fpga_design/nios2eds/bin/gnu/h-x86_64-mingw32/bin/../lib/gcc/nios2-elf/5.3.0/../../../../../H-x86_64-mingw32/nios2-elf/lib/mno-hw-mul\libc.a(lib_a-reallocr.o)
 .comment       0x0000000000000023       0x24 e:/quartus_fpga_design/nios2eds/bin/gnu/h-x86_64-mingw32/bin/../lib/gcc/nios2-elf/5.3.0/../../../../../H-x86_64-mingw32/nios2-elf/lib/mno-hw-mul\libc.a(lib_a-s_fpclassify.o)
 .comment       0x0000000000000023       0x24 e:/quartus_fpga_design/nios2eds/bin/gnu/h-x86_64-mingw32/bin/../lib/gcc/nios2-elf/5.3.0/../../../../../H-x86_64-mingw32/nios2-elf/lib/mno-hw-mul\libc.a(lib_a-stdio.o)
 .comment       0x0000000000000023       0x24 e:/quartus_fpga_design/nios2eds/bin/gnu/h-x86_64-mingw32/bin/../lib/gcc/nios2-elf/5.3.0/../../../../../H-x86_64-mingw32/nios2-elf/lib/mno-hw-mul\libc.a(lib_a-strcmp.o)
 .comment       0x0000000000000023       0x24 e:/quartus_fpga_design/nios2eds/bin/gnu/h-x86_64-mingw32/bin/../lib/gcc/nios2-elf/5.3.0/../../../../../H-x86_64-mingw32/nios2-elf/lib/mno-hw-mul\libc.a(lib_a-vfiprintf.o)
 .comment       0x0000000000000023       0x24 e:/quartus_fpga_design/nios2eds/bin/gnu/h-x86_64-mingw32/bin/../lib/gcc/nios2-elf/5.3.0/../../../../../H-x86_64-mingw32/nios2-elf/lib/mno-hw-mul\libc.a(lib_a-writer.o)
 .comment       0x0000000000000023       0x24 e:/quartus_fpga_design/nios2eds/bin/gnu/h-x86_64-mingw32/bin/../lib/gcc/nios2-elf/5.3.0/../../../../../H-x86_64-mingw32/nios2-elf/lib/mno-hw-mul\libc.a(closer.o)
 .comment       0x0000000000000023       0x24 e:/quartus_fpga_design/nios2eds/bin/gnu/h-x86_64-mingw32/bin/../lib/gcc/nios2-elf/5.3.0/../../../../../H-x86_64-mingw32/nios2-elf/lib/mno-hw-mul\libc.a(lib_a-callocr.o)
 .comment       0x0000000000000023       0x24 e:/quartus_fpga_design/nios2eds/bin/gnu/h-x86_64-mingw32/bin/../lib/gcc/nios2-elf/5.3.0/../../../../../H-x86_64-mingw32/nios2-elf/lib/mno-hw-mul\libc.a(lib_a-fclose.o)
 .comment       0x0000000000000023       0x24 e:/quartus_fpga_design/nios2eds/bin/gnu/h-x86_64-mingw32/bin/../lib/gcc/nios2-elf/5.3.0/../../../../../H-x86_64-mingw32/nios2-elf/lib/mno-hw-mul\libc.a(lib_a-fputwc.o)
 .comment       0x0000000000000023       0x24 e:/quartus_fpga_design/nios2eds/bin/gnu/h-x86_64-mingw32/bin/../lib/gcc/nios2-elf/5.3.0/../../../../../H-x86_64-mingw32/nios2-elf/lib/mno-hw-mul\libc.a(lib_a-fstatr.o)
 .comment       0x0000000000000023       0x24 e:/quartus_fpga_design/nios2eds/bin/gnu/h-x86_64-mingw32/bin/../lib/gcc/nios2-elf/5.3.0/../../../../../H-x86_64-mingw32/nios2-elf/lib/mno-hw-mul\libc.a(lib_a-isattyr.o)
 .comment       0x0000000000000023       0x24 e:/quartus_fpga_design/nios2eds/bin/gnu/h-x86_64-mingw32/bin/../lib/gcc/nios2-elf/5.3.0/../../../../../H-x86_64-mingw32/nios2-elf/lib/mno-hw-mul\libc.a(lib_a-lseekr.o)
 .comment       0x0000000000000023       0x24 e:/quartus_fpga_design/nios2eds/bin/gnu/h-x86_64-mingw32/bin/../lib/gcc/nios2-elf/5.3.0/../../../../../H-x86_64-mingw32/nios2-elf/lib/mno-hw-mul\libc.a(lib_a-readr.o)
 .comment       0x0000000000000023       0x24 e:/quartus_fpga_design/nios2eds/bin/gnu/h-x86_64-mingw32/bin/../lib/gcc/nios2-elf/5.3.0/../../../../../H-x86_64-mingw32/nios2-elf/lib/mno-hw-mul\libc.a(lib_a-wbuf.o)
 .comment       0x0000000000000023       0x24 e:/quartus_fpga_design/nios2eds/bin/gnu/h-x86_64-mingw32/bin/../lib/gcc/nios2-elf/5.3.0/../../../../../H-x86_64-mingw32/nios2-elf/lib/mno-hw-mul\libc.a(lib_a-wcrtomb.o)
 .comment       0x0000000000000023       0x24 e:/quartus_fpga_design/nios2eds/bin/gnu/h-x86_64-mingw32/bin/../lib/gcc/nios2-elf/5.3.0/../../../../../H-x86_64-mingw32/nios2-elf/lib/mno-hw-mul\libc.a(lib_a-wctomb_r.o)
 .comment       0x0000000000000023       0x24 e:/quartus_fpga_design/nios2eds/bin/gnu/h-x86_64-mingw32/bin/../lib/gcc/nios2-elf/5.3.0/mno-hw-mul\libgcc.a(_muldi3.o)
 .comment       0x0000000000000023       0x24 e:/quartus_fpga_design/nios2eds/bin/gnu/h-x86_64-mingw32/bin/../lib/gcc/nios2-elf/5.3.0/mno-hw-mul\libgcc.a(_udivdi3.o)
 .comment       0x0000000000000023       0x24 e:/quartus_fpga_design/nios2eds/bin/gnu/h-x86_64-mingw32/bin/../lib/gcc/nios2-elf/5.3.0/mno-hw-mul\libgcc.a(_umoddi3.o)
 .comment       0x0000000000000023       0x24 e:/quartus_fpga_design/nios2eds/bin/gnu/h-x86_64-mingw32/bin/../lib/gcc/nios2-elf/5.3.0/mno-hw-mul\libgcc.a(adddf3.o)
 .comment       0x0000000000000023       0x24 e:/quartus_fpga_design/nios2eds/bin/gnu/h-x86_64-mingw32/bin/../lib/gcc/nios2-elf/5.3.0/mno-hw-mul\libgcc.a(eqdf2.o)
 .comment       0x0000000000000023       0x24 e:/quartus_fpga_design/nios2eds/bin/gnu/h-x86_64-mingw32/bin/../lib/gcc/nios2-elf/5.3.0/mno-hw-mul\libgcc.a(ledf2.o)
 .comment       0x0000000000000023       0x24 e:/quartus_fpga_design/nios2eds/bin/gnu/h-x86_64-mingw32/bin/../lib/gcc/nios2-elf/5.3.0/mno-hw-mul\libgcc.a(muldf3.o)
 .comment       0x0000000000000023       0x24 e:/quartus_fpga_design/nios2eds/bin/gnu/h-x86_64-mingw32/bin/../lib/gcc/nios2-elf/5.3.0/mno-hw-mul\libgcc.a(floatsidf.o)
 .comment       0x0000000000000023       0x24 ../Bomberman_bsp/\libhal_bsp.a(alt_close.o)
 .comment       0x0000000000000023       0x24 ../Bomberman_bsp/\libhal_bsp.a(alt_dev.o)
 .comment       0x0000000000000023       0x24 ../Bomberman_bsp/\libhal_bsp.a(alt_errno.o)
 .comment       0x0000000000000023       0x24 ../Bomberman_bsp/\libhal_bsp.a(alt_fstat.o)
 .comment       0x0000000000000023       0x24 ../Bomberman_bsp/\libhal_bsp.a(alt_isatty.o)
 .comment       0x0000000000000023       0x24 ../Bomberman_bsp/\libhal_bsp.a(alt_load.o)
 .comment       0x0000000000000023       0x24 ../Bomberman_bsp/\libhal_bsp.a(alt_lseek.o)
 .comment       0x0000000000000023       0x24 ../Bomberman_bsp/\libhal_bsp.a(alt_main.o)
 .comment       0x0000000000000023       0x24 ../Bomberman_bsp/\libhal_bsp.a(alt_malloc_lock.o)
 .comment       0x0000000000000023       0x24 ../Bomberman_bsp/\libhal_bsp.a(alt_read.o)
 .comment       0x0000000000000023       0x24 ../Bomberman_bsp/\libhal_bsp.a(alt_release_fd.o)
 .comment       0x0000000000000023       0x24 ../Bomberman_bsp/\libhal_bsp.a(alt_sbrk.o)
 .comment       0x0000000000000023       0x24 ../Bomberman_bsp/\libhal_bsp.a(alt_times.o)
 .comment       0x0000000000000023       0x24 ../Bomberman_bsp/\libhal_bsp.a(alt_usleep.o)
 .comment       0x0000000000000023       0x24 ../Bomberman_bsp/\libhal_bsp.a(alt_write.o)
 .comment       0x0000000000000023       0x24 ../Bomberman_bsp/\libhal_bsp.a(alt_sys_init.o)
 .comment       0x0000000000000023       0x24 ../Bomberman_bsp/\libhal_bsp.a(altera_avalon_jtag_uart_fd.o)
 .comment       0x0000000000000023       0x24 ../Bomberman_bsp/\libhal_bsp.a(altera_avalon_jtag_uart_init.o)
 .comment       0x0000000000000023       0x24 ../Bomberman_bsp/\libhal_bsp.a(altera_avalon_jtag_uart_ioctl.o)
 .comment       0x0000000000000023       0x24 ../Bomberman_bsp/\libhal_bsp.a(altera_avalon_jtag_uart_read.o)
 .comment       0x0000000000000023       0x24 ../Bomberman_bsp/\libhal_bsp.a(altera_avalon_jtag_uart_write.o)
 .comment       0x0000000000000023       0x24 ../Bomberman_bsp/\libhal_bsp.a(altera_avalon_timer_sc.o)
 .comment       0x0000000000000023       0x24 ../Bomberman_bsp/\libhal_bsp.a(alt_alarm_start.o)
 .comment       0x0000000000000023       0x24 ../Bomberman_bsp/\libhal_bsp.a(alt_busy_sleep.o)
 .comment       0x0000000000000023       0x24 ../Bomberman_bsp/\libhal_bsp.a(alt_dcache_flush_all.o)
 .comment       0x0000000000000023       0x24 ../Bomberman_bsp/\libhal_bsp.a(alt_dev_llist_insert.o)
 .comment       0x0000000000000023       0x24 ../Bomberman_bsp/\libhal_bsp.a(alt_do_ctors.o)
 .comment       0x0000000000000023       0x24 ../Bomberman_bsp/\libhal_bsp.a(alt_do_dtors.o)
 .comment       0x0000000000000023       0x24 ../Bomberman_bsp/\libhal_bsp.a(alt_icache_flush_all.o)
 .comment       0x0000000000000023       0x24 ../Bomberman_bsp/\libhal_bsp.a(alt_iic.o)
 .comment       0x0000000000000023       0x24 ../Bomberman_bsp/\libhal_bsp.a(alt_iic_isr_register.o)
 .comment       0x0000000000000023       0x24 ../Bomberman_bsp/\libhal_bsp.a(alt_io_redirect.o)
 .comment       0x0000000000000023       0x24 ../Bomberman_bsp/\libhal_bsp.a(alt_irq_handler.o)
 .comment       0x0000000000000023       0x24 ../Bomberman_bsp/\libhal_bsp.a(alt_irq_vars.o)
 .comment       0x0000000000000023       0x24 ../Bomberman_bsp/\libhal_bsp.a(alt_open.o)
 .comment       0x0000000000000023       0x24 ../Bomberman_bsp/\libhal_bsp.a(alt_tick.o)
 .comment       0x0000000000000023       0x24 ../Bomberman_bsp/\libhal_bsp.a(altera_nios2_gen2_irq.o)
 .comment       0x0000000000000023       0x24 ../Bomberman_bsp/\libhal_bsp.a(alt_find_dev.o)
 .comment       0x0000000000000023       0x24 ../Bomberman_bsp/\libhal_bsp.a(alt_find_file.o)
 .comment       0x0000000000000023       0x24 ../Bomberman_bsp/\libhal_bsp.a(alt_get_fd.o)
 .comment       0x0000000000000023       0x24 ../Bomberman_bsp/\libhal_bsp.a(alt_instruction_exception_entry.o)
 .comment       0x0000000000000023       0x24 e:/quartus_fpga_design/nios2eds/bin/gnu/h-x86_64-mingw32/bin/../lib/gcc/nios2-elf/5.3.0/../../../../../H-x86_64-mingw32/nios2-elf/lib/mno-hw-mul\libc.a(lib_a-atexit.o)
 .comment       0x0000000000000023       0x24 e:/quartus_fpga_design/nios2eds/bin/gnu/h-x86_64-mingw32/bin/../lib/gcc/nios2-elf/5.3.0/../../../../../H-x86_64-mingw32/nios2-elf/lib/mno-hw-mul\libc.a(lib_a-exit.o)
 .comment       0x0000000000000023       0x24 e:/quartus_fpga_design/nios2eds/bin/gnu/h-x86_64-mingw32/bin/../lib/gcc/nios2-elf/5.3.0/../../../../../H-x86_64-mingw32/nios2-elf/lib/mno-hw-mul\libc.a(lib_a-memcmp.o)
 .comment       0x0000000000000023       0x24 e:/quartus_fpga_design/nios2eds/bin/gnu/h-x86_64-mingw32/bin/../lib/gcc/nios2-elf/5.3.0/../../../../../H-x86_64-mingw32/nios2-elf/lib/mno-hw-mul\libc.a(lib_a-__atexit.o)
 .comment       0x0000000000000023       0x24 e:/quartus_fpga_design/nios2eds/bin/gnu/h-x86_64-mingw32/bin/../lib/gcc/nios2-elf/5.3.0/../../../../../H-x86_64-mingw32/nios2-elf/lib/mno-hw-mul\libc.a(lib_a-__call_atexit.o)
 .comment       0x0000000000000023       0x24 ../Bomberman_bsp/\libhal_bsp.a(alt_exit.o)

.debug
 *(.debug)

.line
 *(.line)

.debug_srcinfo
 *(.debug_srcinfo)

.debug_sfnames
 *(.debug_sfnames)

.debug_aranges  0x0000000000000000     0x11a8
 *(.debug_aranges)
 .debug_aranges
                0x0000000000000000       0x28 ../Bomberman_bsp//obj/HAL/src/crt0.o
 .debug_aranges
                0x0000000000000028       0x20 obj/default/INIT.o
 .debug_aranges
                0x0000000000000048       0x20 obj/default/LEDandHEX.o
 .debug_aranges
                0x0000000000000068       0x20 obj/default/USB_Keyboard_Driver.o
 .debug_aranges
                0x0000000000000088       0x20 obj/default/USB_Keyboard_Driver_Sup/io_handler.o
 .debug_aranges
                0x00000000000000a8       0x20 obj/default/USB_Keyboard_Driver_Sup/usb.o
 .debug_aranges
                0x00000000000000c8       0x20 obj/default/audio_driver.o
 .debug_aranges
                0x00000000000000e8       0x20 obj/default/coins.o
 .debug_aranges
                0x0000000000000108       0x20 obj/default/draw_driver.o
 .debug_aranges
                0x0000000000000128       0x20 obj/default/drawing.o
 .debug_aranges
                0x0000000000000148       0x20 obj/default/ed.o
 .debug_aranges
                0x0000000000000168       0x20 obj/default/game.o
 .debug_aranges
                0x0000000000000188       0x20 obj/default/main.o
 .debug_aranges
                0x00000000000001a8       0x20 obj/default/op.o
 .debug_aranges
                0x00000000000001c8       0x20 obj/default/readKey.o
 .debug_aranges
                0x00000000000001e8       0x20 obj/default/transition.o
 .debug_aranges
                0x0000000000000208       0x20 e:/quartus_fpga_design/nios2eds/bin/gnu/h-x86_64-mingw32/bin/../lib/gcc/nios2-elf/5.3.0/mno-hw-mul\libgcc.a(_fixunsdfsi.o)
 .debug_aranges
                0x0000000000000228       0x20 e:/quartus_fpga_design/nios2eds/bin/gnu/h-x86_64-mingw32/bin/../lib/gcc/nios2-elf/5.3.0/mno-hw-mul\libgcc.a(lib2-divmod.o)
 .debug_aranges
                0x0000000000000248       0x20 e:/quartus_fpga_design/nios2eds/bin/gnu/h-x86_64-mingw32/bin/../lib/gcc/nios2-elf/5.3.0/mno-hw-mul\libgcc.a(lib2-mul.o)
 .debug_aranges
                0x0000000000000268       0x20 e:/quartus_fpga_design/nios2eds/bin/gnu/h-x86_64-mingw32/bin/../lib/gcc/nios2-elf/5.3.0/mno-hw-mul\libgcc.a(divdf3.o)
 .debug_aranges
                0x0000000000000288       0x20 e:/quartus_fpga_design/nios2eds/bin/gnu/h-x86_64-mingw32/bin/../lib/gcc/nios2-elf/5.3.0/mno-hw-mul\libgcc.a(gedf2.o)
 .debug_aranges
                0x00000000000002a8       0x20 e:/quartus_fpga_design/nios2eds/bin/gnu/h-x86_64-mingw32/bin/../lib/gcc/nios2-elf/5.3.0/mno-hw-mul\libgcc.a(subdf3.o)
 .debug_aranges
                0x00000000000002c8       0x20 e:/quartus_fpga_design/nios2eds/bin/gnu/h-x86_64-mingw32/bin/../lib/gcc/nios2-elf/5.3.0/mno-hw-mul\libgcc.a(fixdfsi.o)
 .debug_aranges
                0x00000000000002e8       0x20 e:/quartus_fpga_design/nios2eds/bin/gnu/h-x86_64-mingw32/bin/../lib/gcc/nios2-elf/5.3.0/mno-hw-mul\libgcc.a(floatunsidf.o)
 .debug_aranges
                0x0000000000000308       0x20 e:/quartus_fpga_design/nios2eds/bin/gnu/h-x86_64-mingw32/bin/../lib/gcc/nios2-elf/5.3.0/mno-hw-mul\libgcc.a(_clzsi2.o)
 .debug_aranges
                0x0000000000000328       0x18 e:/quartus_fpga_design/nios2eds/bin/gnu/h-x86_64-mingw32/bin/../lib/gcc/nios2-elf/5.3.0/mno-hw-mul\libgcc.a(_clz.o)
 .debug_aranges
                0x0000000000000340       0x20 e:/quartus_fpga_design/nios2eds/bin/gnu/h-x86_64-mingw32/bin/../lib/gcc/nios2-elf/5.3.0/../../../../../H-x86_64-mingw32/nios2-elf/lib/mno-hw-mul\libc.a(lib_a-clock.o)
 .debug_aranges
                0x0000000000000360       0x18 e:/quartus_fpga_design/nios2eds/bin/gnu/h-x86_64-mingw32/bin/../lib/gcc/nios2-elf/5.3.0/../../../../../H-x86_64-mingw32/nios2-elf/lib/mno-hw-mul\libc.a(lib_a-impure.o)
 .debug_aranges
                0x0000000000000378       0x28 e:/quartus_fpga_design/nios2eds/bin/gnu/h-x86_64-mingw32/bin/../lib/gcc/nios2-elf/5.3.0/../../../../../H-x86_64-mingw32/nios2-elf/lib/mno-hw-mul\libc.a(lib_a-malloc.o)
 .debug_aranges
                0x00000000000003a0       0x20 e:/quartus_fpga_design/nios2eds/bin/gnu/h-x86_64-mingw32/bin/../lib/gcc/nios2-elf/5.3.0/../../../../../H-x86_64-mingw32/nios2-elf/lib/mno-hw-mul\libc.a(lib_a-mallocr.o)
 .debug_aranges
                0x00000000000003c0       0x28 e:/quartus_fpga_design/nios2eds/bin/gnu/h-x86_64-mingw32/bin/../lib/gcc/nios2-elf/5.3.0/../../../../../H-x86_64-mingw32/nios2-elf/lib/mno-hw-mul\libc.a(lib_a-printf.o)
 .debug_aranges
                0x00000000000003e8       0x28 e:/quartus_fpga_design/nios2eds/bin/gnu/h-x86_64-mingw32/bin/../lib/gcc/nios2-elf/5.3.0/../../../../../H-x86_64-mingw32/nios2-elf/lib/mno-hw-mul\libc.a(lib_a-puts.o)
 .debug_aranges
                0x0000000000000410       0x28 e:/quartus_fpga_design/nios2eds/bin/gnu/h-x86_64-mingw32/bin/../lib/gcc/nios2-elf/5.3.0/../../../../../H-x86_64-mingw32/nios2-elf/lib/mno-hw-mul\libc.a(lib_a-rand.o)
 .debug_aranges
                0x0000000000000438       0x20 e:/quartus_fpga_design/nios2eds/bin/gnu/h-x86_64-mingw32/bin/../lib/gcc/nios2-elf/5.3.0/../../../../../H-x86_64-mingw32/nios2-elf/lib/mno-hw-mul\libc.a(lib_a-sbrkr.o)
 .debug_aranges
                0x0000000000000458       0x20 e:/quartus_fpga_design/nios2eds/bin/gnu/h-x86_64-mingw32/bin/../lib/gcc/nios2-elf/5.3.0/../../../../../H-x86_64-mingw32/nios2-elf/lib/mno-hw-mul\libc.a(lib_a-strlen.o)
 .debug_aranges
                0x0000000000000478       0x20 e:/quartus_fpga_design/nios2eds/bin/gnu/h-x86_64-mingw32/bin/../lib/gcc/nios2-elf/5.3.0/../../../../../H-x86_64-mingw32/nios2-elf/lib/mno-hw-mul\libc.a(lib_a-timesr.o)
 .debug_aranges
                0x0000000000000498       0x30 e:/quartus_fpga_design/nios2eds/bin/gnu/h-x86_64-mingw32/bin/../lib/gcc/nios2-elf/5.3.0/../../../../../H-x86_64-mingw32/nios2-elf/lib/mno-hw-mul\libc.a(lib_a-vfprintf.o)
 .debug_aranges
                0x00000000000004c8       0x20 e:/quartus_fpga_design/nios2eds/bin/gnu/h-x86_64-mingw32/bin/../lib/gcc/nios2-elf/5.3.0/../../../../../H-x86_64-mingw32/nios2-elf/lib/mno-hw-mul\libc.a(lib_a-wsetup.o)
 .debug_aranges
                0x00000000000004e8       0x28 e:/quartus_fpga_design/nios2eds/bin/gnu/h-x86_64-mingw32/bin/../lib/gcc/nios2-elf/5.3.0/../../../../../H-x86_64-mingw32/nios2-elf/lib/mno-hw-mul\libc.a(lib_a-dtoa.o)
 .debug_aranges
                0x0000000000000510       0x30 e:/quartus_fpga_design/nios2eds/bin/gnu/h-x86_64-mingw32/bin/../lib/gcc/nios2-elf/5.3.0/../../../../../H-x86_64-mingw32/nios2-elf/lib/mno-hw-mul\libc.a(lib_a-fflush.o)
 .debug_aranges
                0x0000000000000540       0x68 e:/quartus_fpga_design/nios2eds/bin/gnu/h-x86_64-mingw32/bin/../lib/gcc/nios2-elf/5.3.0/../../../../../H-x86_64-mingw32/nios2-elf/lib/mno-hw-mul\libc.a(lib_a-findfp.o)
 .debug_aranges
                0x00000000000005a8       0x28 e:/quartus_fpga_design/nios2eds/bin/gnu/h-x86_64-mingw32/bin/../lib/gcc/nios2-elf/5.3.0/../../../../../H-x86_64-mingw32/nios2-elf/lib/mno-hw-mul\libc.a(lib_a-freer.o)
 .debug_aranges
                0x00000000000005d0       0x20 e:/quartus_fpga_design/nios2eds/bin/gnu/h-x86_64-mingw32/bin/../lib/gcc/nios2-elf/5.3.0/../../../../../H-x86_64-mingw32/nios2-elf/lib/mno-hw-mul\libc.a(lib_a-fvwrite.o)
 .debug_aranges
                0x00000000000005f0       0x28 e:/quartus_fpga_design/nios2eds/bin/gnu/h-x86_64-mingw32/bin/../lib/gcc/nios2-elf/5.3.0/../../../../../H-x86_64-mingw32/nios2-elf/lib/mno-hw-mul\libc.a(lib_a-fwalk.o)
 .debug_aranges
                0x0000000000000618       0x18 e:/quartus_fpga_design/nios2eds/bin/gnu/h-x86_64-mingw32/bin/../lib/gcc/nios2-elf/5.3.0/../../../../../H-x86_64-mingw32/nios2-elf/lib/mno-hw-mul\libc.a(lib_a-int_errno.o)
 .debug_aranges
                0x0000000000000630       0x58 e:/quartus_fpga_design/nios2eds/bin/gnu/h-x86_64-mingw32/bin/../lib/gcc/nios2-elf/5.3.0/../../../../../H-x86_64-mingw32/nios2-elf/lib/mno-hw-mul\libc.a(lib_a-locale.o)
 .debug_aranges
                0x0000000000000688       0x20 e:/quartus_fpga_design/nios2eds/bin/gnu/h-x86_64-mingw32/bin/../lib/gcc/nios2-elf/5.3.0/../../../../../H-x86_64-mingw32/nios2-elf/lib/mno-hw-mul\libc.a(lib_a-makebuf.o)
 .debug_aranges
                0x00000000000006a8       0x20 e:/quartus_fpga_design/nios2eds/bin/gnu/h-x86_64-mingw32/bin/../lib/gcc/nios2-elf/5.3.0/../../../../../H-x86_64-mingw32/nios2-elf/lib/mno-hw-mul\libc.a(lib_a-memchr.o)
 .debug_aranges
                0x00000000000006c8       0x20 e:/quartus_fpga_design/nios2eds/bin/gnu/h-x86_64-mingw32/bin/../lib/gcc/nios2-elf/5.3.0/../../../../../H-x86_64-mingw32/nios2-elf/lib/mno-hw-mul\libc.a(lib_a-memcpy.o)
 .debug_aranges
                0x00000000000006e8       0x20 e:/quartus_fpga_design/nios2eds/bin/gnu/h-x86_64-mingw32/bin/../lib/gcc/nios2-elf/5.3.0/../../../../../H-x86_64-mingw32/nios2-elf/lib/mno-hw-mul\libc.a(lib_a-memmove.o)
 .debug_aranges
                0x0000000000000708       0x20 e:/quartus_fpga_design/nios2eds/bin/gnu/h-x86_64-mingw32/bin/../lib/gcc/nios2-elf/5.3.0/../../../../../H-x86_64-mingw32/nios2-elf/lib/mno-hw-mul\libc.a(lib_a-memset.o)
 .debug_aranges
                0x0000000000000728       0xb0 e:/quartus_fpga_design/nios2eds/bin/gnu/h-x86_64-mingw32/bin/../lib/gcc/nios2-elf/5.3.0/../../../../../H-x86_64-mingw32/nios2-elf/lib/mno-hw-mul\libc.a(lib_a-mprec.o)
 .debug_aranges
                0x00000000000007d8       0x20 e:/quartus_fpga_design/nios2eds/bin/gnu/h-x86_64-mingw32/bin/../lib/gcc/nios2-elf/5.3.0/../../../../../H-x86_64-mingw32/nios2-elf/lib/mno-hw-mul\libc.a(lib_a-reallocr.o)
 .debug_aranges
                0x00000000000007f8       0x20 e:/quartus_fpga_design/nios2eds/bin/gnu/h-x86_64-mingw32/bin/../lib/gcc/nios2-elf/5.3.0/../../../../../H-x86_64-mingw32/nios2-elf/lib/mno-hw-mul\libc.a(lib_a-s_fpclassify.o)
 .debug_aranges
                0x0000000000000818       0x40 e:/quartus_fpga_design/nios2eds/bin/gnu/h-x86_64-mingw32/bin/../lib/gcc/nios2-elf/5.3.0/../../../../../H-x86_64-mingw32/nios2-elf/lib/mno-hw-mul\libc.a(lib_a-stdio.o)
 .debug_aranges
                0x0000000000000858       0x20 e:/quartus_fpga_design/nios2eds/bin/gnu/h-x86_64-mingw32/bin/../lib/gcc/nios2-elf/5.3.0/../../../../../H-x86_64-mingw32/nios2-elf/lib/mno-hw-mul\libc.a(lib_a-strcmp.o)
 .debug_aranges
                0x0000000000000878       0x40 e:/quartus_fpga_design/nios2eds/bin/gnu/h-x86_64-mingw32/bin/../lib/gcc/nios2-elf/5.3.0/../../../../../H-x86_64-mingw32/nios2-elf/lib/mno-hw-mul\libc.a(lib_a-vfiprintf.o)
 .debug_aranges
                0x00000000000008b8       0x20 e:/quartus_fpga_design/nios2eds/bin/gnu/h-x86_64-mingw32/bin/../lib/gcc/nios2-elf/5.3.0/../../../../../H-x86_64-mingw32/nios2-elf/lib/mno-hw-mul\libc.a(lib_a-writer.o)
 .debug_aranges
                0x00000000000008d8       0x20 e:/quartus_fpga_design/nios2eds/bin/gnu/h-x86_64-mingw32/bin/../lib/gcc/nios2-elf/5.3.0/../../../../../H-x86_64-mingw32/nios2-elf/lib/mno-hw-mul\libc.a(closer.o)
 .debug_aranges
                0x00000000000008f8       0x20 e:/quartus_fpga_design/nios2eds/bin/gnu/h-x86_64-mingw32/bin/../lib/gcc/nios2-elf/5.3.0/../../../../../H-x86_64-mingw32/nios2-elf/lib/mno-hw-mul\libc.a(lib_a-callocr.o)
 .debug_aranges
                0x0000000000000918       0x28 e:/quartus_fpga_design/nios2eds/bin/gnu/h-x86_64-mingw32/bin/../lib/gcc/nios2-elf/5.3.0/../../../../../H-x86_64-mingw32/nios2-elf/lib/mno-hw-mul\libc.a(lib_a-fclose.o)
 .debug_aranges
                0x0000000000000940       0x30 e:/quartus_fpga_design/nios2eds/bin/gnu/h-x86_64-mingw32/bin/../lib/gcc/nios2-elf/5.3.0/../../../../../H-x86_64-mingw32/nios2-elf/lib/mno-hw-mul\libc.a(lib_a-fputwc.o)
 .debug_aranges
                0x0000000000000970       0x20 e:/quartus_fpga_design/nios2eds/bin/gnu/h-x86_64-mingw32/bin/../lib/gcc/nios2-elf/5.3.0/../../../../../H-x86_64-mingw32/nios2-elf/lib/mno-hw-mul\libc.a(lib_a-fstatr.o)
 .debug_aranges
                0x0000000000000990       0x20 e:/quartus_fpga_design/nios2eds/bin/gnu/h-x86_64-mingw32/bin/../lib/gcc/nios2-elf/5.3.0/../../../../../H-x86_64-mingw32/nios2-elf/lib/mno-hw-mul\libc.a(lib_a-isattyr.o)
 .debug_aranges
                0x00000000000009b0       0x20 e:/quartus_fpga_design/nios2eds/bin/gnu/h-x86_64-mingw32/bin/../lib/gcc/nios2-elf/5.3.0/../../../../../H-x86_64-mingw32/nios2-elf/lib/mno-hw-mul\libc.a(lib_a-lseekr.o)
 .debug_aranges
                0x00000000000009d0       0x20 e:/quartus_fpga_design/nios2eds/bin/gnu/h-x86_64-mingw32/bin/../lib/gcc/nios2-elf/5.3.0/../../../../../H-x86_64-mingw32/nios2-elf/lib/mno-hw-mul\libc.a(lib_a-readr.o)
 .debug_aranges
                0x00000000000009f0       0x28 e:/quartus_fpga_design/nios2eds/bin/gnu/h-x86_64-mingw32/bin/../lib/gcc/nios2-elf/5.3.0/../../../../../H-x86_64-mingw32/nios2-elf/lib/mno-hw-mul\libc.a(lib_a-wbuf.o)
 .debug_aranges
                0x0000000000000a18       0x28 e:/quartus_fpga_design/nios2eds/bin/gnu/h-x86_64-mingw32/bin/../lib/gcc/nios2-elf/5.3.0/../../../../../H-x86_64-mingw32/nios2-elf/lib/mno-hw-mul\libc.a(lib_a-wcrtomb.o)
 .debug_aranges
                0x0000000000000a40       0x28 e:/quartus_fpga_design/nios2eds/bin/gnu/h-x86_64-mingw32/bin/../lib/gcc/nios2-elf/5.3.0/../../../../../H-x86_64-mingw32/nios2-elf/lib/mno-hw-mul\libc.a(lib_a-wctomb_r.o)
 .debug_aranges
                0x0000000000000a68       0x20 e:/quartus_fpga_design/nios2eds/bin/gnu/h-x86_64-mingw32/bin/../lib/gcc/nios2-elf/5.3.0/mno-hw-mul\libgcc.a(_muldi3.o)
 .debug_aranges
                0x0000000000000a88       0x20 e:/quartus_fpga_design/nios2eds/bin/gnu/h-x86_64-mingw32/bin/../lib/gcc/nios2-elf/5.3.0/mno-hw-mul\libgcc.a(_udivdi3.o)
 .debug_aranges
                0x0000000000000aa8       0x20 e:/quartus_fpga_design/nios2eds/bin/gnu/h-x86_64-mingw32/bin/../lib/gcc/nios2-elf/5.3.0/mno-hw-mul\libgcc.a(_umoddi3.o)
 .debug_aranges
                0x0000000000000ac8       0x20 e:/quartus_fpga_design/nios2eds/bin/gnu/h-x86_64-mingw32/bin/../lib/gcc/nios2-elf/5.3.0/mno-hw-mul\libgcc.a(adddf3.o)
 .debug_aranges
                0x0000000000000ae8       0x20 e:/quartus_fpga_design/nios2eds/bin/gnu/h-x86_64-mingw32/bin/../lib/gcc/nios2-elf/5.3.0/mno-hw-mul\libgcc.a(eqdf2.o)
 .debug_aranges
                0x0000000000000b08       0x20 e:/quartus_fpga_design/nios2eds/bin/gnu/h-x86_64-mingw32/bin/../lib/gcc/nios2-elf/5.3.0/mno-hw-mul\libgcc.a(ledf2.o)
 .debug_aranges
                0x0000000000000b28       0x20 e:/quartus_fpga_design/nios2eds/bin/gnu/h-x86_64-mingw32/bin/../lib/gcc/nios2-elf/5.3.0/mno-hw-mul\libgcc.a(muldf3.o)
 .debug_aranges
                0x0000000000000b48       0x20 e:/quartus_fpga_design/nios2eds/bin/gnu/h-x86_64-mingw32/bin/../lib/gcc/nios2-elf/5.3.0/mno-hw-mul\libgcc.a(floatsidf.o)
 .debug_aranges
                0x0000000000000b68       0x20 ../Bomberman_bsp/\libhal_bsp.a(alt_close.o)
 .debug_aranges
                0x0000000000000b88       0x20 ../Bomberman_bsp/\libhal_bsp.a(alt_dev.o)
 .debug_aranges
                0x0000000000000ba8       0x18 ../Bomberman_bsp/\libhal_bsp.a(alt_errno.o)
 .debug_aranges
                0x0000000000000bc0       0x20 ../Bomberman_bsp/\libhal_bsp.a(alt_fstat.o)
 .debug_aranges
                0x0000000000000be0       0x20 ../Bomberman_bsp/\libhal_bsp.a(alt_isatty.o)
 .debug_aranges
                0x0000000000000c00       0x20 ../Bomberman_bsp/\libhal_bsp.a(alt_load.o)
 .debug_aranges
                0x0000000000000c20       0x20 ../Bomberman_bsp/\libhal_bsp.a(alt_lseek.o)
 .debug_aranges
                0x0000000000000c40       0x20 ../Bomberman_bsp/\libhal_bsp.a(alt_main.o)
 .debug_aranges
                0x0000000000000c60       0x20 ../Bomberman_bsp/\libhal_bsp.a(alt_malloc_lock.o)
 .debug_aranges
                0x0000000000000c80       0x20 ../Bomberman_bsp/\libhal_bsp.a(alt_read.o)
 .debug_aranges
                0x0000000000000ca0       0x20 ../Bomberman_bsp/\libhal_bsp.a(alt_release_fd.o)
 .debug_aranges
                0x0000000000000cc0       0x20 ../Bomberman_bsp/\libhal_bsp.a(alt_sbrk.o)
 .debug_aranges
                0x0000000000000ce0       0x20 ../Bomberman_bsp/\libhal_bsp.a(alt_times.o)
 .debug_aranges
                0x0000000000000d00       0x20 ../Bomberman_bsp/\libhal_bsp.a(alt_usleep.o)
 .debug_aranges
                0x0000000000000d20       0x20 ../Bomberman_bsp/\libhal_bsp.a(alt_write.o)
 .debug_aranges
                0x0000000000000d40       0x20 ../Bomberman_bsp/\libhal_bsp.a(alt_sys_init.o)
 .debug_aranges
                0x0000000000000d60       0x20 ../Bomberman_bsp/\libhal_bsp.a(altera_avalon_jtag_uart_fd.o)
 .debug_aranges
                0x0000000000000d80       0x20 ../Bomberman_bsp/\libhal_bsp.a(altera_avalon_jtag_uart_init.o)
 .debug_aranges
                0x0000000000000da0       0x20 ../Bomberman_bsp/\libhal_bsp.a(altera_avalon_jtag_uart_ioctl.o)
 .debug_aranges
                0x0000000000000dc0       0x20 ../Bomberman_bsp/\libhal_bsp.a(altera_avalon_jtag_uart_read.o)
 .debug_aranges
                0x0000000000000de0       0x20 ../Bomberman_bsp/\libhal_bsp.a(altera_avalon_jtag_uart_write.o)
 .debug_aranges
                0x0000000000000e00       0x20 ../Bomberman_bsp/\libhal_bsp.a(altera_avalon_timer_sc.o)
 .debug_aranges
                0x0000000000000e20       0x20 ../Bomberman_bsp/\libhal_bsp.a(alt_alarm_start.o)
 .debug_aranges
                0x0000000000000e40       0x20 ../Bomberman_bsp/\libhal_bsp.a(alt_busy_sleep.o)
 .debug_aranges
                0x0000000000000e60       0x20 ../Bomberman_bsp/\libhal_bsp.a(alt_dcache_flush_all.o)
 .debug_aranges
                0x0000000000000e80       0x20 ../Bomberman_bsp/\libhal_bsp.a(alt_dev_llist_insert.o)
 .debug_aranges
                0x0000000000000ea0       0x20 ../Bomberman_bsp/\libhal_bsp.a(alt_do_ctors.o)
 .debug_aranges
                0x0000000000000ec0       0x20 ../Bomberman_bsp/\libhal_bsp.a(alt_do_dtors.o)
 .debug_aranges
                0x0000000000000ee0       0x20 ../Bomberman_bsp/\libhal_bsp.a(alt_icache_flush_all.o)
 .debug_aranges
                0x0000000000000f00       0x20 ../Bomberman_bsp/\libhal_bsp.a(alt_iic.o)
 .debug_aranges
                0x0000000000000f20       0x20 ../Bomberman_bsp/\libhal_bsp.a(alt_iic_isr_register.o)
 .debug_aranges
                0x0000000000000f40       0x20 ../Bomberman_bsp/\libhal_bsp.a(alt_io_redirect.o)
 .debug_aranges
                0x0000000000000f60       0x30 ../Bomberman_bsp/\libhal_bsp.a(alt_irq_entry.o)
 .debug_aranges
                0x0000000000000f90       0x20 ../Bomberman_bsp/\libhal_bsp.a(alt_irq_handler.o)
 .debug_aranges
                0x0000000000000fb0       0x18 ../Bomberman_bsp/\libhal_bsp.a(alt_irq_vars.o)
 .debug_aranges
                0x0000000000000fc8       0x20 ../Bomberman_bsp/\libhal_bsp.a(alt_open.o)
 .debug_aranges
                0x0000000000000fe8       0x20 ../Bomberman_bsp/\libhal_bsp.a(alt_tick.o)
 .debug_aranges
                0x0000000000001008       0x20 ../Bomberman_bsp/\libhal_bsp.a(altera_nios2_gen2_irq.o)
 .debug_aranges
                0x0000000000001028       0x38 ../Bomberman_bsp/\libhal_bsp.a(alt_exception_entry.o)
 .debug_aranges
                0x0000000000001060       0x20 ../Bomberman_bsp/\libhal_bsp.a(alt_find_dev.o)
 .debug_aranges
                0x0000000000001080       0x20 ../Bomberman_bsp/\libhal_bsp.a(alt_find_file.o)
 .debug_aranges
                0x00000000000010a0       0x20 ../Bomberman_bsp/\libhal_bsp.a(alt_get_fd.o)
 .debug_aranges
                0x00000000000010c0       0x28 ../Bomberman_bsp/\libhal_bsp.a(alt_instruction_exception_entry.o)
 .debug_aranges
                0x00000000000010e8       0x20 e:/quartus_fpga_design/nios2eds/bin/gnu/h-x86_64-mingw32/bin/../lib/gcc/nios2-elf/5.3.0/../../../../../H-x86_64-mingw32/nios2-elf/lib/mno-hw-mul\libc.a(lib_a-atexit.o)
 .debug_aranges
                0x0000000000001108       0x20 e:/quartus_fpga_design/nios2eds/bin/gnu/h-x86_64-mingw32/bin/../lib/gcc/nios2-elf/5.3.0/../../../../../H-x86_64-mingw32/nios2-elf/lib/mno-hw-mul\libc.a(lib_a-exit.o)
 .debug_aranges
                0x0000000000001128       0x20 e:/quartus_fpga_design/nios2eds/bin/gnu/h-x86_64-mingw32/bin/../lib/gcc/nios2-elf/5.3.0/../../../../../H-x86_64-mingw32/nios2-elf/lib/mno-hw-mul\libc.a(lib_a-memcmp.o)
 .debug_aranges
                0x0000000000001148       0x20 e:/quartus_fpga_design/nios2eds/bin/gnu/h-x86_64-mingw32/bin/../lib/gcc/nios2-elf/5.3.0/../../../../../H-x86_64-mingw32/nios2-elf/lib/mno-hw-mul\libc.a(lib_a-__atexit.o)
 .debug_aranges
                0x0000000000001168       0x20 e:/quartus_fpga_design/nios2eds/bin/gnu/h-x86_64-mingw32/bin/../lib/gcc/nios2-elf/5.3.0/../../../../../H-x86_64-mingw32/nios2-elf/lib/mno-hw-mul\libc.a(lib_a-__call_atexit.o)
 .debug_aranges
                0x0000000000001188       0x20 ../Bomberman_bsp/\libhal_bsp.a(alt_exit.o)

.debug_pubnames
 *(.debug_pubnames)

.debug_info     0x0000000000000000    0x283f9
 *(.debug_info .gnu.linkonce.wi.*)
 .debug_info    0x0000000000000000       0xab ../Bomberman_bsp//obj/HAL/src/crt0.o
 .debug_info    0x00000000000000ab       0xf3 obj/default/INIT.o
 .debug_info    0x000000000000019e      0x20c obj/default/LEDandHEX.o
 .debug_info    0x00000000000003aa      0x2b5 obj/default/USB_Keyboard_Driver.o
 .debug_info    0x000000000000065f      0x10c obj/default/USB_Keyboard_Driver_Sup/io_handler.o
 .debug_info    0x000000000000076b      0x218 obj/default/USB_Keyboard_Driver_Sup/usb.o
 .debug_info    0x0000000000000983      0x15c obj/default/audio_driver.o
 .debug_info    0x0000000000000adf      0x2d5 obj/default/coins.o
 .debug_info    0x0000000000000db4      0x1cf obj/default/draw_driver.o
 .debug_info    0x0000000000000f83      0x67b obj/default/drawing.o
 .debug_info    0x00000000000015fe       0xe0 obj/default/ed.o
 .debug_info    0x00000000000016de      0x926 obj/default/game.o
 .debug_info    0x0000000000002004      0x179 obj/default/main.o
 .debug_info    0x000000000000217d      0x111 obj/default/op.o
 .debug_info    0x000000000000228e      0x266 obj/default/readKey.o
 .debug_info    0x00000000000024f4      0x1b4 obj/default/transition.o
 .debug_info    0x00000000000026a8       0xc7 e:/quartus_fpga_design/nios2eds/bin/gnu/h-x86_64-mingw32/bin/../lib/gcc/nios2-elf/5.3.0/mno-hw-mul\libgcc.a(_fixunsdfsi.o)
 .debug_info    0x000000000000276f      0x2c6 e:/quartus_fpga_design/nios2eds/bin/gnu/h-x86_64-mingw32/bin/../lib/gcc/nios2-elf/5.3.0/mno-hw-mul\libgcc.a(lib2-divmod.o)
 .debug_info    0x0000000000002a35       0xb4 e:/quartus_fpga_design/nios2eds/bin/gnu/h-x86_64-mingw32/bin/../lib/gcc/nios2-elf/5.3.0/mno-hw-mul\libgcc.a(lib2-mul.o)
 .debug_info    0x0000000000002ae9      0x5bf e:/quartus_fpga_design/nios2eds/bin/gnu/h-x86_64-mingw32/bin/../lib/gcc/nios2-elf/5.3.0/mno-hw-mul\libgcc.a(divdf3.o)
 .debug_info    0x00000000000030a8      0x202 e:/quartus_fpga_design/nios2eds/bin/gnu/h-x86_64-mingw32/bin/../lib/gcc/nios2-elf/5.3.0/mno-hw-mul\libgcc.a(gedf2.o)
 .debug_info    0x00000000000032aa      0x4a2 e:/quartus_fpga_design/nios2eds/bin/gnu/h-x86_64-mingw32/bin/../lib/gcc/nios2-elf/5.3.0/mno-hw-mul\libgcc.a(subdf3.o)
 .debug_info    0x000000000000374c      0x1ae e:/quartus_fpga_design/nios2eds/bin/gnu/h-x86_64-mingw32/bin/../lib/gcc/nios2-elf/5.3.0/mno-hw-mul\libgcc.a(fixdfsi.o)
 .debug_info    0x00000000000038fa      0x1b0 e:/quartus_fpga_design/nios2eds/bin/gnu/h-x86_64-mingw32/bin/../lib/gcc/nios2-elf/5.3.0/mno-hw-mul\libgcc.a(floatunsidf.o)
 .debug_info    0x0000000000003aaa      0x124 e:/quartus_fpga_design/nios2eds/bin/gnu/h-x86_64-mingw32/bin/../lib/gcc/nios2-elf/5.3.0/mno-hw-mul\libgcc.a(_clzsi2.o)
 .debug_info    0x0000000000003bce       0xb2 e:/quartus_fpga_design/nios2eds/bin/gnu/h-x86_64-mingw32/bin/../lib/gcc/nios2-elf/5.3.0/mno-hw-mul\libgcc.a(_clz.o)
 .debug_info    0x0000000000003c80      0x91a e:/quartus_fpga_design/nios2eds/bin/gnu/h-x86_64-mingw32/bin/../lib/gcc/nios2-elf/5.3.0/../../../../../H-x86_64-mingw32/nios2-elf/lib/mno-hw-mul\libc.a(lib_a-clock.o)
 .debug_info    0x000000000000459a      0x8a1 e:/quartus_fpga_design/nios2eds/bin/gnu/h-x86_64-mingw32/bin/../lib/gcc/nios2-elf/5.3.0/../../../../../H-x86_64-mingw32/nios2-elf/lib/mno-hw-mul\libc.a(lib_a-impure.o)
 .debug_info    0x0000000000004e3b      0x911 e:/quartus_fpga_design/nios2eds/bin/gnu/h-x86_64-mingw32/bin/../lib/gcc/nios2-elf/5.3.0/../../../../../H-x86_64-mingw32/nios2-elf/lib/mno-hw-mul\libc.a(lib_a-malloc.o)
 .debug_info    0x000000000000574c      0xd57 e:/quartus_fpga_design/nios2eds/bin/gnu/h-x86_64-mingw32/bin/../lib/gcc/nios2-elf/5.3.0/../../../../../H-x86_64-mingw32/nios2-elf/lib/mno-hw-mul\libc.a(lib_a-mallocr.o)
 .debug_info    0x00000000000064a3      0x991 e:/quartus_fpga_design/nios2eds/bin/gnu/h-x86_64-mingw32/bin/../lib/gcc/nios2-elf/5.3.0/../../../../../H-x86_64-mingw32/nios2-elf/lib/mno-hw-mul\libc.a(lib_a-printf.o)
 .debug_info    0x0000000000006e34      0xa38 e:/quartus_fpga_design/nios2eds/bin/gnu/h-x86_64-mingw32/bin/../lib/gcc/nios2-elf/5.3.0/../../../../../H-x86_64-mingw32/nios2-elf/lib/mno-hw-mul\libc.a(lib_a-puts.o)
 .debug_info    0x000000000000786c      0x8d7 e:/quartus_fpga_design/nios2eds/bin/gnu/h-x86_64-mingw32/bin/../lib/gcc/nios2-elf/5.3.0/../../../../../H-x86_64-mingw32/nios2-elf/lib/mno-hw-mul\libc.a(lib_a-rand.o)
 .debug_info    0x0000000000008143      0x900 e:/quartus_fpga_design/nios2eds/bin/gnu/h-x86_64-mingw32/bin/../lib/gcc/nios2-elf/5.3.0/../../../../../H-x86_64-mingw32/nios2-elf/lib/mno-hw-mul\libc.a(lib_a-sbrkr.o)
 .debug_info    0x0000000000008a43       0xe2 e:/quartus_fpga_design/nios2eds/bin/gnu/h-x86_64-mingw32/bin/../lib/gcc/nios2-elf/5.3.0/../../../../../H-x86_64-mingw32/nios2-elf/lib/mno-hw-mul\libc.a(lib_a-strlen.o)
 .debug_info    0x0000000000008b25      0x921 e:/quartus_fpga_design/nios2eds/bin/gnu/h-x86_64-mingw32/bin/../lib/gcc/nios2-elf/5.3.0/../../../../../H-x86_64-mingw32/nios2-elf/lib/mno-hw-mul\libc.a(lib_a-timesr.o)
 .debug_info    0x0000000000009446     0x16b8 e:/quartus_fpga_design/nios2eds/bin/gnu/h-x86_64-mingw32/bin/../lib/gcc/nios2-elf/5.3.0/../../../../../H-x86_64-mingw32/nios2-elf/lib/mno-hw-mul\libc.a(lib_a-vfprintf.o)
 .debug_info    0x000000000000aafe      0x936 e:/quartus_fpga_design/nios2eds/bin/gnu/h-x86_64-mingw32/bin/../lib/gcc/nios2-elf/5.3.0/../../../../../H-x86_64-mingw32/nios2-elf/lib/mno-hw-mul\libc.a(lib_a-wsetup.o)
 .debug_info    0x000000000000b434     0x1249 e:/quartus_fpga_design/nios2eds/bin/gnu/h-x86_64-mingw32/bin/../lib/gcc/nios2-elf/5.3.0/../../../../../H-x86_64-mingw32/nios2-elf/lib/mno-hw-mul\libc.a(lib_a-dtoa.o)
 .debug_info    0x000000000000c67d      0xa93 e:/quartus_fpga_design/nios2eds/bin/gnu/h-x86_64-mingw32/bin/../lib/gcc/nios2-elf/5.3.0/../../../../../H-x86_64-mingw32/nios2-elf/lib/mno-hw-mul\libc.a(lib_a-fflush.o)
 .debug_info    0x000000000000d110      0xd36 e:/quartus_fpga_design/nios2eds/bin/gnu/h-x86_64-mingw32/bin/../lib/gcc/nios2-elf/5.3.0/../../../../../H-x86_64-mingw32/nios2-elf/lib/mno-hw-mul\libc.a(lib_a-findfp.o)
 .debug_info    0x000000000000de46      0xbf7 e:/quartus_fpga_design/nios2eds/bin/gnu/h-x86_64-mingw32/bin/../lib/gcc/nios2-elf/5.3.0/../../../../../H-x86_64-mingw32/nios2-elf/lib/mno-hw-mul\libc.a(lib_a-freer.o)
 .debug_info    0x000000000000ea3d      0xbb8 e:/quartus_fpga_design/nios2eds/bin/gnu/h-x86_64-mingw32/bin/../lib/gcc/nios2-elf/5.3.0/../../../../../H-x86_64-mingw32/nios2-elf/lib/mno-hw-mul\libc.a(lib_a-fvwrite.o)
 .debug_info    0x000000000000f5f5      0x9b0 e:/quartus_fpga_design/nios2eds/bin/gnu/h-x86_64-mingw32/bin/../lib/gcc/nios2-elf/5.3.0/../../../../../H-x86_64-mingw32/nios2-elf/lib/mno-hw-mul\libc.a(lib_a-fwalk.o)
 .debug_info    0x000000000000ffa5       0x8a e:/quartus_fpga_design/nios2eds/bin/gnu/h-x86_64-mingw32/bin/../lib/gcc/nios2-elf/5.3.0/../../../../../H-x86_64-mingw32/nios2-elf/lib/mno-hw-mul\libc.a(lib_a-int_errno.o)
 .debug_info    0x000000000001002f      0xc25 e:/quartus_fpga_design/nios2eds/bin/gnu/h-x86_64-mingw32/bin/../lib/gcc/nios2-elf/5.3.0/../../../../../H-x86_64-mingw32/nios2-elf/lib/mno-hw-mul\libc.a(lib_a-locale.o)
 .debug_info    0x0000000000010c54      0xad8 e:/quartus_fpga_design/nios2eds/bin/gnu/h-x86_64-mingw32/bin/../lib/gcc/nios2-elf/5.3.0/../../../../../H-x86_64-mingw32/nios2-elf/lib/mno-hw-mul\libc.a(lib_a-makebuf.o)
 .debug_info    0x000000000001172c      0x132 e:/quartus_fpga_design/nios2eds/bin/gnu/h-x86_64-mingw32/bin/../lib/gcc/nios2-elf/5.3.0/../../../../../H-x86_64-mingw32/nios2-elf/lib/mno-hw-mul\libc.a(lib_a-memchr.o)
 .debug_info    0x000000000001185e      0x144 e:/quartus_fpga_design/nios2eds/bin/gnu/h-x86_64-mingw32/bin/../lib/gcc/nios2-elf/5.3.0/../../../../../H-x86_64-mingw32/nios2-elf/lib/mno-hw-mul\libc.a(lib_a-memcpy.o)
 .debug_info    0x00000000000119a2      0x13a e:/quartus_fpga_design/nios2eds/bin/gnu/h-x86_64-mingw32/bin/../lib/gcc/nios2-elf/5.3.0/../../../../../H-x86_64-mingw32/nios2-elf/lib/mno-hw-mul\libc.a(lib_a-memmove.o)
 .debug_info    0x0000000000011adc      0x121 e:/quartus_fpga_design/nios2eds/bin/gnu/h-x86_64-mingw32/bin/../lib/gcc/nios2-elf/5.3.0/../../../../../H-x86_64-mingw32/nios2-elf/lib/mno-hw-mul\libc.a(lib_a-memset.o)
 .debug_info    0x0000000000011bfd     0x16c1 e:/quartus_fpga_design/nios2eds/bin/gnu/h-x86_64-mingw32/bin/../lib/gcc/nios2-elf/5.3.0/../../../../../H-x86_64-mingw32/nios2-elf/lib/mno-hw-mul\libc.a(lib_a-mprec.o)
 .debug_info    0x00000000000132be      0xc6b e:/quartus_fpga_design/nios2eds/bin/gnu/h-x86_64-mingw32/bin/../lib/gcc/nios2-elf/5.3.0/../../../../../H-x86_64-mingw32/nios2-elf/lib/mno-hw-mul\libc.a(lib_a-reallocr.o)
 .debug_info    0x0000000000013f29       0xdc e:/quartus_fpga_design/nios2eds/bin/gnu/h-x86_64-mingw32/bin/../lib/gcc/nios2-elf/5.3.0/../../../../../H-x86_64-mingw32/nios2-elf/lib/mno-hw-mul\libc.a(lib_a-s_fpclassify.o)
 .debug_info    0x0000000000014005      0xb32 e:/quartus_fpga_design/nios2eds/bin/gnu/h-x86_64-mingw32/bin/../lib/gcc/nios2-elf/5.3.0/../../../../../H-x86_64-mingw32/nios2-elf/lib/mno-hw-mul\libc.a(lib_a-stdio.o)
 .debug_info    0x0000000000014b37       0xe4 e:/quartus_fpga_design/nios2eds/bin/gnu/h-x86_64-mingw32/bin/../lib/gcc/nios2-elf/5.3.0/../../../../../H-x86_64-mingw32/nios2-elf/lib/mno-hw-mul\libc.a(lib_a-strcmp.o)
 .debug_info    0x0000000000014c1b     0x1549 e:/quartus_fpga_design/nios2eds/bin/gnu/h-x86_64-mingw32/bin/../lib/gcc/nios2-elf/5.3.0/../../../../../H-x86_64-mingw32/nios2-elf/lib/mno-hw-mul\libc.a(lib_a-vfiprintf.o)
 .debug_info    0x0000000000016164      0x928 e:/quartus_fpga_design/nios2eds/bin/gnu/h-x86_64-mingw32/bin/../lib/gcc/nios2-elf/5.3.0/../../../../../H-x86_64-mingw32/nios2-elf/lib/mno-hw-mul\libc.a(lib_a-writer.o)
 .debug_info    0x0000000000016a8c      0x8df e:/quartus_fpga_design/nios2eds/bin/gnu/h-x86_64-mingw32/bin/../lib/gcc/nios2-elf/5.3.0/../../../../../H-x86_64-mingw32/nios2-elf/lib/mno-hw-mul\libc.a(closer.o)
 .debug_info    0x000000000001736b      0x9cd e:/quartus_fpga_design/nios2eds/bin/gnu/h-x86_64-mingw32/bin/../lib/gcc/nios2-elf/5.3.0/../../../../../H-x86_64-mingw32/nios2-elf/lib/mno-hw-mul\libc.a(lib_a-callocr.o)
 .debug_info    0x0000000000017d38      0xa23 e:/quartus_fpga_design/nios2eds/bin/gnu/h-x86_64-mingw32/bin/../lib/gcc/nios2-elf/5.3.0/../../../../../H-x86_64-mingw32/nios2-elf/lib/mno-hw-mul\libc.a(lib_a-fclose.o)
 .debug_info    0x000000000001875b      0xad4 e:/quartus_fpga_design/nios2eds/bin/gnu/h-x86_64-mingw32/bin/../lib/gcc/nios2-elf/5.3.0/../../../../../H-x86_64-mingw32/nios2-elf/lib/mno-hw-mul\libc.a(lib_a-fputwc.o)
 .debug_info    0x000000000001922f      0xa5d e:/quartus_fpga_design/nios2eds/bin/gnu/h-x86_64-mingw32/bin/../lib/gcc/nios2-elf/5.3.0/../../../../../H-x86_64-mingw32/nios2-elf/lib/mno-hw-mul\libc.a(lib_a-fstatr.o)
 .debug_info    0x0000000000019c8c      0x8df e:/quartus_fpga_design/nios2eds/bin/gnu/h-x86_64-mingw32/bin/../lib/gcc/nios2-elf/5.3.0/../../../../../H-x86_64-mingw32/nios2-elf/lib/mno-hw-mul\libc.a(lib_a-isattyr.o)
 .debug_info    0x000000000001a56b      0x90b e:/quartus_fpga_design/nios2eds/bin/gnu/h-x86_64-mingw32/bin/../lib/gcc/nios2-elf/5.3.0/../../../../../H-x86_64-mingw32/nios2-elf/lib/mno-hw-mul\libc.a(lib_a-lseekr.o)
 .debug_info    0x000000000001ae76      0x921 e:/quartus_fpga_design/nios2eds/bin/gnu/h-x86_64-mingw32/bin/../lib/gcc/nios2-elf/5.3.0/../../../../../H-x86_64-mingw32/nios2-elf/lib/mno-hw-mul\libc.a(lib_a-readr.o)
 .debug_info    0x000000000001b797      0x9be e:/quartus_fpga_design/nios2eds/bin/gnu/h-x86_64-mingw32/bin/../lib/gcc/nios2-elf/5.3.0/../../../../../H-x86_64-mingw32/nios2-elf/lib/mno-hw-mul\libc.a(lib_a-wbuf.o)
 .debug_info    0x000000000001c155      0xa82 e:/quartus_fpga_design/nios2eds/bin/gnu/h-x86_64-mingw32/bin/../lib/gcc/nios2-elf/5.3.0/../../../../../H-x86_64-mingw32/nios2-elf/lib/mno-hw-mul\libc.a(lib_a-wcrtomb.o)
 .debug_info    0x000000000001cbd7      0x9b1 e:/quartus_fpga_design/nios2eds/bin/gnu/h-x86_64-mingw32/bin/../lib/gcc/nios2-elf/5.3.0/../../../../../H-x86_64-mingw32/nios2-elf/lib/mno-hw-mul\libc.a(lib_a-wctomb_r.o)
 .debug_info    0x000000000001d588      0x1e9 e:/quartus_fpga_design/nios2eds/bin/gnu/h-x86_64-mingw32/bin/../lib/gcc/nios2-elf/5.3.0/mno-hw-mul\libgcc.a(_muldi3.o)
 .debug_info    0x000000000001d771      0x712 e:/quartus_fpga_design/nios2eds/bin/gnu/h-x86_64-mingw32/bin/../lib/gcc/nios2-elf/5.3.0/mno-hw-mul\libgcc.a(_udivdi3.o)
 .debug_info    0x000000000001de83      0x767 e:/quartus_fpga_design/nios2eds/bin/gnu/h-x86_64-mingw32/bin/../lib/gcc/nios2-elf/5.3.0/mno-hw-mul\libgcc.a(_umoddi3.o)
 .debug_info    0x000000000001e5ea      0x4a2 e:/quartus_fpga_design/nios2eds/bin/gnu/h-x86_64-mingw32/bin/../lib/gcc/nios2-elf/5.3.0/mno-hw-mul\libgcc.a(adddf3.o)
 .debug_info    0x000000000001ea8c      0x1e2 e:/quartus_fpga_design/nios2eds/bin/gnu/h-x86_64-mingw32/bin/../lib/gcc/nios2-elf/5.3.0/mno-hw-mul\libgcc.a(eqdf2.o)
 .debug_info    0x000000000001ec6e      0x204 e:/quartus_fpga_design/nios2eds/bin/gnu/h-x86_64-mingw32/bin/../lib/gcc/nios2-elf/5.3.0/mno-hw-mul\libgcc.a(ledf2.o)
 .debug_info    0x000000000001ee72      0x5f1 e:/quartus_fpga_design/nios2eds/bin/gnu/h-x86_64-mingw32/bin/../lib/gcc/nios2-elf/5.3.0/mno-hw-mul\libgcc.a(muldf3.o)
 .debug_info    0x000000000001f463      0x1bc e:/quartus_fpga_design/nios2eds/bin/gnu/h-x86_64-mingw32/bin/../lib/gcc/nios2-elf/5.3.0/mno-hw-mul\libgcc.a(floatsidf.o)
 .debug_info    0x000000000001f61f      0x321 ../Bomberman_bsp/\libhal_bsp.a(alt_close.o)
 .debug_info    0x000000000001f940      0x49c ../Bomberman_bsp/\libhal_bsp.a(alt_dev.o)
 .debug_info    0x000000000001fddc       0xa6 ../Bomberman_bsp/\libhal_bsp.a(alt_errno.o)
 .debug_info    0x000000000001fe82      0x488 ../Bomberman_bsp/\libhal_bsp.a(alt_fstat.o)
 .debug_info    0x000000000002030a      0x48b ../Bomberman_bsp/\libhal_bsp.a(alt_isatty.o)
 .debug_info    0x0000000000020795      0x145 ../Bomberman_bsp/\libhal_bsp.a(alt_load.o)
 .debug_info    0x00000000000208da      0x352 ../Bomberman_bsp/\libhal_bsp.a(alt_lseek.o)
 .debug_info    0x0000000000020c2c      0x131 ../Bomberman_bsp/\libhal_bsp.a(alt_main.o)
 .debug_info    0x0000000000020d5d      0x8b6 ../Bomberman_bsp/\libhal_bsp.a(alt_malloc_lock.o)
 .debug_info    0x0000000000021613      0x4b0 ../Bomberman_bsp/\libhal_bsp.a(alt_read.o)
 .debug_info    0x0000000000021ac3      0x2b0 ../Bomberman_bsp/\libhal_bsp.a(alt_release_fd.o)
 .debug_info    0x0000000000021d73      0x1ac ../Bomberman_bsp/\libhal_bsp.a(alt_sbrk.o)
 .debug_info    0x0000000000021f1f      0x19d ../Bomberman_bsp/\libhal_bsp.a(alt_times.o)
 .debug_info    0x00000000000220bc       0xb0 ../Bomberman_bsp/\libhal_bsp.a(alt_usleep.o)
 .debug_info    0x000000000002216c      0x4b7 ../Bomberman_bsp/\libhal_bsp.a(alt_write.o)
 .debug_info    0x0000000000022623      0x4d9 ../Bomberman_bsp/\libhal_bsp.a(alt_sys_init.o)
 .debug_info    0x0000000000022afc      0x52e ../Bomberman_bsp/\libhal_bsp.a(altera_avalon_jtag_uart_fd.o)
 .debug_info    0x000000000002302a      0x3a0 ../Bomberman_bsp/\libhal_bsp.a(altera_avalon_jtag_uart_init.o)
 .debug_info    0x00000000000233ca      0x280 ../Bomberman_bsp/\libhal_bsp.a(altera_avalon_jtag_uart_ioctl.o)
 .debug_info    0x000000000002364a      0x345 ../Bomberman_bsp/\libhal_bsp.a(altera_avalon_jtag_uart_read.o)
 .debug_info    0x000000000002398f      0x340 ../Bomberman_bsp/\libhal_bsp.a(altera_avalon_jtag_uart_write.o)
 .debug_info    0x0000000000023ccf      0x226 ../Bomberman_bsp/\libhal_bsp.a(altera_avalon_timer_sc.o)
 .debug_info    0x0000000000023ef5      0x2cc ../Bomberman_bsp/\libhal_bsp.a(alt_alarm_start.o)
 .debug_info    0x00000000000241c1       0xd7 ../Bomberman_bsp/\libhal_bsp.a(alt_busy_sleep.o)
 .debug_info    0x0000000000024298       0x92 ../Bomberman_bsp/\libhal_bsp.a(alt_dcache_flush_all.o)
 .debug_info    0x000000000002432a      0x1a9 ../Bomberman_bsp/\libhal_bsp.a(alt_dev_llist_insert.o)
 .debug_info    0x00000000000244d3       0x83 ../Bomberman_bsp/\libhal_bsp.a(alt_do_ctors.o)
 .debug_info    0x0000000000024556       0x83 ../Bomberman_bsp/\libhal_bsp.a(alt_do_dtors.o)
 .debug_info    0x00000000000245d9       0x92 ../Bomberman_bsp/\libhal_bsp.a(alt_icache_flush_all.o)
 .debug_info    0x000000000002466b      0x350 ../Bomberman_bsp/\libhal_bsp.a(alt_iic.o)
 .debug_info    0x00000000000249bb      0x1ef ../Bomberman_bsp/\libhal_bsp.a(alt_iic_isr_register.o)
 .debug_info    0x0000000000024baa      0x4a5 ../Bomberman_bsp/\libhal_bsp.a(alt_io_redirect.o)
 .debug_info    0x000000000002504f       0xb4 ../Bomberman_bsp/\libhal_bsp.a(alt_irq_entry.o)
 .debug_info    0x0000000000025103      0x187 ../Bomberman_bsp/\libhal_bsp.a(alt_irq_handler.o)
 .debug_info    0x000000000002528a       0x88 ../Bomberman_bsp/\libhal_bsp.a(alt_irq_vars.o)
 .debug_info    0x0000000000025312      0x3bb ../Bomberman_bsp/\libhal_bsp.a(alt_open.o)
 .debug_info    0x00000000000256cd      0x299 ../Bomberman_bsp/\libhal_bsp.a(alt_tick.o)
 .debug_info    0x0000000000025966       0x92 ../Bomberman_bsp/\libhal_bsp.a(altera_nios2_gen2_irq.o)
 .debug_info    0x00000000000259f8       0xba ../Bomberman_bsp/\libhal_bsp.a(alt_exception_entry.o)
 .debug_info    0x0000000000025ab2      0x2e9 ../Bomberman_bsp/\libhal_bsp.a(alt_find_dev.o)
 .debug_info    0x0000000000025d9b      0x2e6 ../Bomberman_bsp/\libhal_bsp.a(alt_find_file.o)
 .debug_info    0x0000000000026081      0x310 ../Bomberman_bsp/\libhal_bsp.a(alt_get_fd.o)
 .debug_info    0x0000000000026391      0x1e7 ../Bomberman_bsp/\libhal_bsp.a(alt_instruction_exception_entry.o)
 .debug_info    0x0000000000026578       0xfe e:/quartus_fpga_design/nios2eds/bin/gnu/h-x86_64-mingw32/bin/../lib/gcc/nios2-elf/5.3.0/../../../../../H-x86_64-mingw32/nios2-elf/lib/mno-hw-mul\libc.a(lib_a-atexit.o)
 .debug_info    0x0000000000026676      0x8e4 e:/quartus_fpga_design/nios2eds/bin/gnu/h-x86_64-mingw32/bin/../lib/gcc/nios2-elf/5.3.0/../../../../../H-x86_64-mingw32/nios2-elf/lib/mno-hw-mul\libc.a(lib_a-exit.o)
 .debug_info    0x0000000000026f5a      0x11a e:/quartus_fpga_design/nios2eds/bin/gnu/h-x86_64-mingw32/bin/../lib/gcc/nios2-elf/5.3.0/../../../../../H-x86_64-mingw32/nios2-elf/lib/mno-hw-mul\libc.a(lib_a-memcmp.o)
 .debug_info    0x0000000000027074      0x934 e:/quartus_fpga_design/nios2eds/bin/gnu/h-x86_64-mingw32/bin/../lib/gcc/nios2-elf/5.3.0/../../../../../H-x86_64-mingw32/nios2-elf/lib/mno-hw-mul\libc.a(lib_a-__atexit.o)
 .debug_info    0x00000000000279a8      0x965 e:/quartus_fpga_design/nios2eds/bin/gnu/h-x86_64-mingw32/bin/../lib/gcc/nios2-elf/5.3.0/../../../../../H-x86_64-mingw32/nios2-elf/lib/mno-hw-mul\libc.a(lib_a-__call_atexit.o)
 .debug_info    0x000000000002830d       0xec ../Bomberman_bsp/\libhal_bsp.a(alt_exit.o)

.debug_abbrev   0x0000000000000000     0xa700
 *(.debug_abbrev)
 .debug_abbrev  0x0000000000000000       0x12 ../Bomberman_bsp//obj/HAL/src/crt0.o
 .debug_abbrev  0x0000000000000012       0x63 obj/default/INIT.o
 .debug_abbrev  0x0000000000000075       0xe2 obj/default/LEDandHEX.o
 .debug_abbrev  0x0000000000000157       0xf1 obj/default/USB_Keyboard_Driver.o
 .debug_abbrev  0x0000000000000248       0xa1 obj/default/USB_Keyboard_Driver_Sup/io_handler.o
 .debug_abbrev  0x00000000000002e9       0xf6 obj/default/USB_Keyboard_Driver_Sup/usb.o
 .debug_abbrev  0x00000000000003df       0xba obj/default/audio_driver.o
 .debug_abbrev  0x0000000000000499      0x116 obj/default/coins.o
 .debug_abbrev  0x00000000000005af      0x116 obj/default/draw_driver.o
 .debug_abbrev  0x00000000000006c5      0x13b obj/default/drawing.o
 .debug_abbrev  0x0000000000000800       0x78 obj/default/ed.o
 .debug_abbrev  0x0000000000000878      0x1ea obj/default/game.o
 .debug_abbrev  0x0000000000000a62       0xeb obj/default/main.o
 .debug_abbrev  0x0000000000000b4d       0x92 obj/default/op.o
 .debug_abbrev  0x0000000000000bdf       0x78 obj/default/readKey.o
 .debug_abbrev  0x0000000000000c57       0xaf obj/default/transition.o
 .debug_abbrev  0x0000000000000d06       0x60 e:/quartus_fpga_design/nios2eds/bin/gnu/h-x86_64-mingw32/bin/../lib/gcc/nios2-elf/5.3.0/mno-hw-mul\libgcc.a(_fixunsdfsi.o)
 .debug_abbrev  0x0000000000000d66      0x10e e:/quartus_fpga_design/nios2eds/bin/gnu/h-x86_64-mingw32/bin/../lib/gcc/nios2-elf/5.3.0/mno-hw-mul\libgcc.a(lib2-divmod.o)
 .debug_abbrev  0x0000000000000e74       0x6f e:/quartus_fpga_design/nios2eds/bin/gnu/h-x86_64-mingw32/bin/../lib/gcc/nios2-elf/5.3.0/mno-hw-mul\libgcc.a(lib2-mul.o)
 .debug_abbrev  0x0000000000000ee3      0x12d e:/quartus_fpga_design/nios2eds/bin/gnu/h-x86_64-mingw32/bin/../lib/gcc/nios2-elf/5.3.0/mno-hw-mul\libgcc.a(divdf3.o)
 .debug_abbrev  0x0000000000001010      0x137 e:/quartus_fpga_design/nios2eds/bin/gnu/h-x86_64-mingw32/bin/../lib/gcc/nios2-elf/5.3.0/mno-hw-mul\libgcc.a(gedf2.o)
 .debug_abbrev  0x0000000000001147      0x133 e:/quartus_fpga_design/nios2eds/bin/gnu/h-x86_64-mingw32/bin/../lib/gcc/nios2-elf/5.3.0/mno-hw-mul\libgcc.a(subdf3.o)
 .debug_abbrev  0x000000000000127a      0x135 e:/quartus_fpga_design/nios2eds/bin/gnu/h-x86_64-mingw32/bin/../lib/gcc/nios2-elf/5.3.0/mno-hw-mul\libgcc.a(fixdfsi.o)
 .debug_abbrev  0x00000000000013af      0x124 e:/quartus_fpga_design/nios2eds/bin/gnu/h-x86_64-mingw32/bin/../lib/gcc/nios2-elf/5.3.0/mno-hw-mul\libgcc.a(floatunsidf.o)
 .debug_abbrev  0x00000000000014d3       0xbe e:/quartus_fpga_design/nios2eds/bin/gnu/h-x86_64-mingw32/bin/../lib/gcc/nios2-elf/5.3.0/mno-hw-mul\libgcc.a(_clzsi2.o)
 .debug_abbrev  0x0000000000001591       0x5d e:/quartus_fpga_design/nios2eds/bin/gnu/h-x86_64-mingw32/bin/../lib/gcc/nios2-elf/5.3.0/mno-hw-mul\libgcc.a(_clz.o)
 .debug_abbrev  0x00000000000015ee      0x1f5 e:/quartus_fpga_design/nios2eds/bin/gnu/h-x86_64-mingw32/bin/../lib/gcc/nios2-elf/5.3.0/../../../../../H-x86_64-mingw32/nios2-elf/lib/mno-hw-mul\libc.a(lib_a-clock.o)
 .debug_abbrev  0x00000000000017e3      0x18f e:/quartus_fpga_design/nios2eds/bin/gnu/h-x86_64-mingw32/bin/../lib/gcc/nios2-elf/5.3.0/../../../../../H-x86_64-mingw32/nios2-elf/lib/mno-hw-mul\libc.a(lib_a-impure.o)
 .debug_abbrev  0x0000000000001972      0x1f4 e:/quartus_fpga_design/nios2eds/bin/gnu/h-x86_64-mingw32/bin/../lib/gcc/nios2-elf/5.3.0/../../../../../H-x86_64-mingw32/nios2-elf/lib/mno-hw-mul\libc.a(lib_a-malloc.o)
 .debug_abbrev  0x0000000000001b66      0x29d e:/quartus_fpga_design/nios2eds/bin/gnu/h-x86_64-mingw32/bin/../lib/gcc/nios2-elf/5.3.0/../../../../../H-x86_64-mingw32/nios2-elf/lib/mno-hw-mul\libc.a(lib_a-mallocr.o)
 .debug_abbrev  0x0000000000001e03      0x233 e:/quartus_fpga_design/nios2eds/bin/gnu/h-x86_64-mingw32/bin/../lib/gcc/nios2-elf/5.3.0/../../../../../H-x86_64-mingw32/nios2-elf/lib/mno-hw-mul\libc.a(lib_a-printf.o)
 .debug_abbrev  0x0000000000002036      0x249 e:/quartus_fpga_design/nios2eds/bin/gnu/h-x86_64-mingw32/bin/../lib/gcc/nios2-elf/5.3.0/../../../../../H-x86_64-mingw32/nios2-elf/lib/mno-hw-mul\libc.a(lib_a-puts.o)
 .debug_abbrev  0x000000000000227f      0x1e5 e:/quartus_fpga_design/nios2eds/bin/gnu/h-x86_64-mingw32/bin/../lib/gcc/nios2-elf/5.3.0/../../../../../H-x86_64-mingw32/nios2-elf/lib/mno-hw-mul\libc.a(lib_a-rand.o)
 .debug_abbrev  0x0000000000002464      0x20a e:/quartus_fpga_design/nios2eds/bin/gnu/h-x86_64-mingw32/bin/../lib/gcc/nios2-elf/5.3.0/../../../../../H-x86_64-mingw32/nios2-elf/lib/mno-hw-mul\libc.a(lib_a-sbrkr.o)
 .debug_abbrev  0x000000000000266e       0x90 e:/quartus_fpga_design/nios2eds/bin/gnu/h-x86_64-mingw32/bin/../lib/gcc/nios2-elf/5.3.0/../../../../../H-x86_64-mingw32/nios2-elf/lib/mno-hw-mul\libc.a(lib_a-strlen.o)
 .debug_abbrev  0x00000000000026fe      0x1f4 e:/quartus_fpga_design/nios2eds/bin/gnu/h-x86_64-mingw32/bin/../lib/gcc/nios2-elf/5.3.0/../../../../../H-x86_64-mingw32/nios2-elf/lib/mno-hw-mul\libc.a(lib_a-timesr.o)
 .debug_abbrev  0x00000000000028f2      0x3bf e:/quartus_fpga_design/nios2eds/bin/gnu/h-x86_64-mingw32/bin/../lib/gcc/nios2-elf/5.3.0/../../../../../H-x86_64-mingw32/nios2-elf/lib/mno-hw-mul\libc.a(lib_a-vfprintf.o)
 .debug_abbrev  0x0000000000002cb1      0x218 e:/quartus_fpga_design/nios2eds/bin/gnu/h-x86_64-mingw32/bin/../lib/gcc/nios2-elf/5.3.0/../../../../../H-x86_64-mingw32/nios2-elf/lib/mno-hw-mul\libc.a(lib_a-wsetup.o)
 .debug_abbrev  0x0000000000002ec9      0x2b8 e:/quartus_fpga_design/nios2eds/bin/gnu/h-x86_64-mingw32/bin/../lib/gcc/nios2-elf/5.3.0/../../../../../H-x86_64-mingw32/nios2-elf/lib/mno-hw-mul\libc.a(lib_a-dtoa.o)
 .debug_abbrev  0x0000000000003181      0x2a0 e:/quartus_fpga_design/nios2eds/bin/gnu/h-x86_64-mingw32/bin/../lib/gcc/nios2-elf/5.3.0/../../../../../H-x86_64-mingw32/nios2-elf/lib/mno-hw-mul\libc.a(lib_a-fflush.o)
 .debug_abbrev  0x0000000000003421      0x3ad e:/quartus_fpga_design/nios2eds/bin/gnu/h-x86_64-mingw32/bin/../lib/gcc/nios2-elf/5.3.0/../../../../../H-x86_64-mingw32/nios2-elf/lib/mno-hw-mul\libc.a(lib_a-findfp.o)
 .debug_abbrev  0x00000000000037ce      0x264 e:/quartus_fpga_design/nios2eds/bin/gnu/h-x86_64-mingw32/bin/../lib/gcc/nios2-elf/5.3.0/../../../../../H-x86_64-mingw32/nios2-elf/lib/mno-hw-mul\libc.a(lib_a-freer.o)
 .debug_abbrev  0x0000000000003a32      0x228 e:/quartus_fpga_design/nios2eds/bin/gnu/h-x86_64-mingw32/bin/../lib/gcc/nios2-elf/5.3.0/../../../../../H-x86_64-mingw32/nios2-elf/lib/mno-hw-mul\libc.a(lib_a-fvwrite.o)
 .debug_abbrev  0x0000000000003c5a      0x1d1 e:/quartus_fpga_design/nios2eds/bin/gnu/h-x86_64-mingw32/bin/../lib/gcc/nios2-elf/5.3.0/../../../../../H-x86_64-mingw32/nios2-elf/lib/mno-hw-mul\libc.a(lib_a-fwalk.o)
 .debug_abbrev  0x0000000000003e2b       0x37 e:/quartus_fpga_design/nios2eds/bin/gnu/h-x86_64-mingw32/bin/../lib/gcc/nios2-elf/5.3.0/../../../../../H-x86_64-mingw32/nios2-elf/lib/mno-hw-mul\libc.a(lib_a-int_errno.o)
 .debug_abbrev  0x0000000000003e62      0x2c0 e:/quartus_fpga_design/nios2eds/bin/gnu/h-x86_64-mingw32/bin/../lib/gcc/nios2-elf/5.3.0/../../../../../H-x86_64-mingw32/nios2-elf/lib/mno-hw-mul\libc.a(lib_a-locale.o)
 .debug_abbrev  0x0000000000004122      0x20f e:/quartus_fpga_design/nios2eds/bin/gnu/h-x86_64-mingw32/bin/../lib/gcc/nios2-elf/5.3.0/../../../../../H-x86_64-mingw32/nios2-elf/lib/mno-hw-mul\libc.a(lib_a-makebuf.o)
 .debug_abbrev  0x0000000000004331       0xab e:/quartus_fpga_design/nios2eds/bin/gnu/h-x86_64-mingw32/bin/../lib/gcc/nios2-elf/5.3.0/../../../../../H-x86_64-mingw32/nios2-elf/lib/mno-hw-mul\libc.a(lib_a-memchr.o)
 .debug_abbrev  0x00000000000043dc       0xa3 e:/quartus_fpga_design/nios2eds/bin/gnu/h-x86_64-mingw32/bin/../lib/gcc/nios2-elf/5.3.0/../../../../../H-x86_64-mingw32/nios2-elf/lib/mno-hw-mul\libc.a(lib_a-memcpy.o)
 .debug_abbrev  0x000000000000447f       0x9c e:/quartus_fpga_design/nios2eds/bin/gnu/h-x86_64-mingw32/bin/../lib/gcc/nios2-elf/5.3.0/../../../../../H-x86_64-mingw32/nios2-elf/lib/mno-hw-mul\libc.a(lib_a-memmove.o)
 .debug_abbrev  0x000000000000451b       0xae e:/quartus_fpga_design/nios2eds/bin/gnu/h-x86_64-mingw32/bin/../lib/gcc/nios2-elf/5.3.0/../../../../../H-x86_64-mingw32/nios2-elf/lib/mno-hw-mul\libc.a(lib_a-memset.o)
 .debug_abbrev  0x00000000000045c9      0x3d7 e:/quartus_fpga_design/nios2eds/bin/gnu/h-x86_64-mingw32/bin/../lib/gcc/nios2-elf/5.3.0/../../../../../H-x86_64-mingw32/nios2-elf/lib/mno-hw-mul\libc.a(lib_a-mprec.o)
 .debug_abbrev  0x00000000000049a0      0x231 e:/quartus_fpga_design/nios2eds/bin/gnu/h-x86_64-mingw32/bin/../lib/gcc/nios2-elf/5.3.0/../../../../../H-x86_64-mingw32/nios2-elf/lib/mno-hw-mul\libc.a(lib_a-reallocr.o)
 .debug_abbrev  0x0000000000004bd1       0x7e e:/quartus_fpga_design/nios2eds/bin/gnu/h-x86_64-mingw32/bin/../lib/gcc/nios2-elf/5.3.0/../../../../../H-x86_64-mingw32/nios2-elf/lib/mno-hw-mul\libc.a(lib_a-s_fpclassify.o)
 .debug_abbrev  0x0000000000004c4f      0x239 e:/quartus_fpga_design/nios2eds/bin/gnu/h-x86_64-mingw32/bin/../lib/gcc/nios2-elf/5.3.0/../../../../../H-x86_64-mingw32/nios2-elf/lib/mno-hw-mul\libc.a(lib_a-stdio.o)
 .debug_abbrev  0x0000000000004e88       0x74 e:/quartus_fpga_design/nios2eds/bin/gnu/h-x86_64-mingw32/bin/../lib/gcc/nios2-elf/5.3.0/../../../../../H-x86_64-mingw32/nios2-elf/lib/mno-hw-mul\libc.a(lib_a-strcmp.o)
 .debug_abbrev  0x0000000000004efc      0x3ce e:/quartus_fpga_design/nios2eds/bin/gnu/h-x86_64-mingw32/bin/../lib/gcc/nios2-elf/5.3.0/../../../../../H-x86_64-mingw32/nios2-elf/lib/mno-hw-mul\libc.a(lib_a-vfiprintf.o)
 .debug_abbrev  0x00000000000052ca      0x1eb e:/quartus_fpga_design/nios2eds/bin/gnu/h-x86_64-mingw32/bin/../lib/gcc/nios2-elf/5.3.0/../../../../../H-x86_64-mingw32/nios2-elf/lib/mno-hw-mul\libc.a(lib_a-writer.o)
 .debug_abbrev  0x00000000000054b5      0x1e6 e:/quartus_fpga_design/nios2eds/bin/gnu/h-x86_64-mingw32/bin/../lib/gcc/nios2-elf/5.3.0/../../../../../H-x86_64-mingw32/nios2-elf/lib/mno-hw-mul\libc.a(closer.o)
 .debug_abbrev  0x000000000000569b      0x1fc e:/quartus_fpga_design/nios2eds/bin/gnu/h-x86_64-mingw32/bin/../lib/gcc/nios2-elf/5.3.0/../../../../../H-x86_64-mingw32/nios2-elf/lib/mno-hw-mul\libc.a(lib_a-callocr.o)
 .debug_abbrev  0x0000000000005897      0x2a2 e:/quartus_fpga_design/nios2eds/bin/gnu/h-x86_64-mingw32/bin/../lib/gcc/nios2-elf/5.3.0/../../../../../H-x86_64-mingw32/nios2-elf/lib/mno-hw-mul\libc.a(lib_a-fclose.o)
 .debug_abbrev  0x0000000000005b39      0x2b9 e:/quartus_fpga_design/nios2eds/bin/gnu/h-x86_64-mingw32/bin/../lib/gcc/nios2-elf/5.3.0/../../../../../H-x86_64-mingw32/nios2-elf/lib/mno-hw-mul\libc.a(lib_a-fputwc.o)
 .debug_abbrev  0x0000000000005df2      0x1f5 e:/quartus_fpga_design/nios2eds/bin/gnu/h-x86_64-mingw32/bin/../lib/gcc/nios2-elf/5.3.0/../../../../../H-x86_64-mingw32/nios2-elf/lib/mno-hw-mul\libc.a(lib_a-fstatr.o)
 .debug_abbrev  0x0000000000005fe7      0x1e6 e:/quartus_fpga_design/nios2eds/bin/gnu/h-x86_64-mingw32/bin/../lib/gcc/nios2-elf/5.3.0/../../../../../H-x86_64-mingw32/nios2-elf/lib/mno-hw-mul\libc.a(lib_a-isattyr.o)
 .debug_abbrev  0x00000000000061cd      0x1f5 e:/quartus_fpga_design/nios2eds/bin/gnu/h-x86_64-mingw32/bin/../lib/gcc/nios2-elf/5.3.0/../../../../../H-x86_64-mingw32/nios2-elf/lib/mno-hw-mul\libc.a(lib_a-lseekr.o)
 .debug_abbrev  0x00000000000063c2      0x1e6 e:/quartus_fpga_design/nios2eds/bin/gnu/h-x86_64-mingw32/bin/../lib/gcc/nios2-elf/5.3.0/../../../../../H-x86_64-mingw32/nios2-elf/lib/mno-hw-mul\libc.a(lib_a-readr.o)
 .debug_abbrev  0x00000000000065a8      0x251 e:/quartus_fpga_design/nios2eds/bin/gnu/h-x86_64-mingw32/bin/../lib/gcc/nios2-elf/5.3.0/../../../../../H-x86_64-mingw32/nios2-elf/lib/mno-hw-mul\libc.a(lib_a-wbuf.o)
 .debug_abbrev  0x00000000000067f9      0x230 e:/quartus_fpga_design/nios2eds/bin/gnu/h-x86_64-mingw32/bin/../lib/gcc/nios2-elf/5.3.0/../../../../../H-x86_64-mingw32/nios2-elf/lib/mno-hw-mul\libc.a(lib_a-wcrtomb.o)
 .debug_abbrev  0x0000000000006a29      0x21f e:/quartus_fpga_design/nios2eds/bin/gnu/h-x86_64-mingw32/bin/../lib/gcc/nios2-elf/5.3.0/../../../../../H-x86_64-mingw32/nios2-elf/lib/mno-hw-mul\libc.a(lib_a-wctomb_r.o)
 .debug_abbrev  0x0000000000006c48       0xe0 e:/quartus_fpga_design/nios2eds/bin/gnu/h-x86_64-mingw32/bin/../lib/gcc/nios2-elf/5.3.0/mno-hw-mul\libgcc.a(_muldi3.o)
 .debug_abbrev  0x0000000000006d28      0x167 e:/quartus_fpga_design/nios2eds/bin/gnu/h-x86_64-mingw32/bin/../lib/gcc/nios2-elf/5.3.0/mno-hw-mul\libgcc.a(_udivdi3.o)
 .debug_abbrev  0x0000000000006e8f      0x193 e:/quartus_fpga_design/nios2eds/bin/gnu/h-x86_64-mingw32/bin/../lib/gcc/nios2-elf/5.3.0/mno-hw-mul\libgcc.a(_umoddi3.o)
 .debug_abbrev  0x0000000000007022      0x13a e:/quartus_fpga_design/nios2eds/bin/gnu/h-x86_64-mingw32/bin/../lib/gcc/nios2-elf/5.3.0/mno-hw-mul\libgcc.a(adddf3.o)
 .debug_abbrev  0x000000000000715c      0x128 e:/quartus_fpga_design/nios2eds/bin/gnu/h-x86_64-mingw32/bin/../lib/gcc/nios2-elf/5.3.0/mno-hw-mul\libgcc.a(eqdf2.o)
 .debug_abbrev  0x0000000000007284      0x137 e:/quartus_fpga_design/nios2eds/bin/gnu/h-x86_64-mingw32/bin/../lib/gcc/nios2-elf/5.3.0/mno-hw-mul\libgcc.a(ledf2.o)
 .debug_abbrev  0x00000000000073bb      0x13f e:/quartus_fpga_design/nios2eds/bin/gnu/h-x86_64-mingw32/bin/../lib/gcc/nios2-elf/5.3.0/mno-hw-mul\libgcc.a(muldf3.o)
 .debug_abbrev  0x00000000000074fa      0x124 e:/quartus_fpga_design/nios2eds/bin/gnu/h-x86_64-mingw32/bin/../lib/gcc/nios2-elf/5.3.0/mno-hw-mul\libgcc.a(floatsidf.o)
 .debug_abbrev  0x000000000000761e      0x11f ../Bomberman_bsp/\libhal_bsp.a(alt_close.o)
 .debug_abbrev  0x000000000000773d       0xd9 ../Bomberman_bsp/\libhal_bsp.a(alt_dev.o)
 .debug_abbrev  0x0000000000007816       0x5a ../Bomberman_bsp/\libhal_bsp.a(alt_errno.o)
 .debug_abbrev  0x0000000000007870      0x11f ../Bomberman_bsp/\libhal_bsp.a(alt_fstat.o)
 .debug_abbrev  0x000000000000798f      0x11f ../Bomberman_bsp/\libhal_bsp.a(alt_isatty.o)
 .debug_abbrev  0x0000000000007aae       0x9f ../Bomberman_bsp/\libhal_bsp.a(alt_load.o)
 .debug_abbrev  0x0000000000007b4d      0x11f ../Bomberman_bsp/\libhal_bsp.a(alt_lseek.o)
 .debug_abbrev  0x0000000000007c6c       0xba ../Bomberman_bsp/\libhal_bsp.a(alt_main.o)
 .debug_abbrev  0x0000000000007d26      0x1b4 ../Bomberman_bsp/\libhal_bsp.a(alt_malloc_lock.o)
 .debug_abbrev  0x0000000000007eda      0x12e ../Bomberman_bsp/\libhal_bsp.a(alt_read.o)
 .debug_abbrev  0x0000000000008008       0xde ../Bomberman_bsp/\libhal_bsp.a(alt_release_fd.o)
 .debug_abbrev  0x00000000000080e6      0x112 ../Bomberman_bsp/\libhal_bsp.a(alt_sbrk.o)
 .debug_abbrev  0x00000000000081f8       0xf1 ../Bomberman_bsp/\libhal_bsp.a(alt_times.o)
 .debug_abbrev  0x00000000000082e9       0x60 ../Bomberman_bsp/\libhal_bsp.a(alt_usleep.o)
 .debug_abbrev  0x0000000000008349      0x133 ../Bomberman_bsp/\libhal_bsp.a(alt_write.o)
 .debug_abbrev  0x000000000000847c      0x187 ../Bomberman_bsp/\libhal_bsp.a(alt_sys_init.o)
 .debug_abbrev  0x0000000000008603      0x127 ../Bomberman_bsp/\libhal_bsp.a(altera_avalon_jtag_uart_fd.o)
 .debug_abbrev  0x000000000000872a      0x19e ../Bomberman_bsp/\libhal_bsp.a(altera_avalon_jtag_uart_init.o)
 .debug_abbrev  0x00000000000088c8      0x111 ../Bomberman_bsp/\libhal_bsp.a(altera_avalon_jtag_uart_ioctl.o)
 .debug_abbrev  0x00000000000089d9      0x1aa ../Bomberman_bsp/\libhal_bsp.a(altera_avalon_jtag_uart_read.o)
 .debug_abbrev  0x0000000000008b83      0x1a8 ../Bomberman_bsp/\libhal_bsp.a(altera_avalon_jtag_uart_write.o)
 .debug_abbrev  0x0000000000008d2b      0x155 ../Bomberman_bsp/\libhal_bsp.a(altera_avalon_timer_sc.o)
 .debug_abbrev  0x0000000000008e80      0x162 ../Bomberman_bsp/\libhal_bsp.a(alt_alarm_start.o)
 .debug_abbrev  0x0000000000008fe2       0x7e ../Bomberman_bsp/\libhal_bsp.a(alt_busy_sleep.o)
 .debug_abbrev  0x0000000000009060       0x42 ../Bomberman_bsp/\libhal_bsp.a(alt_dcache_flush_all.o)
 .debug_abbrev  0x00000000000090a2      0x114 ../Bomberman_bsp/\libhal_bsp.a(alt_dev_llist_insert.o)
 .debug_abbrev  0x00000000000091b6       0x79 ../Bomberman_bsp/\libhal_bsp.a(alt_do_ctors.o)
 .debug_abbrev  0x000000000000922f       0x79 ../Bomberman_bsp/\libhal_bsp.a(alt_do_dtors.o)
 .debug_abbrev  0x00000000000092a8       0x42 ../Bomberman_bsp/\libhal_bsp.a(alt_icache_flush_all.o)
 .debug_abbrev  0x00000000000092ea      0x163 ../Bomberman_bsp/\libhal_bsp.a(alt_iic.o)
 .debug_abbrev  0x000000000000944d      0x169 ../Bomberman_bsp/\libhal_bsp.a(alt_iic_isr_register.o)
 .debug_abbrev  0x00000000000095b6      0x114 ../Bomberman_bsp/\libhal_bsp.a(alt_io_redirect.o)
 .debug_abbrev  0x00000000000096ca       0x12 ../Bomberman_bsp/\libhal_bsp.a(alt_irq_entry.o)
 .debug_abbrev  0x00000000000096dc      0x122 ../Bomberman_bsp/\libhal_bsp.a(alt_irq_handler.o)
 .debug_abbrev  0x00000000000097fe       0x40 ../Bomberman_bsp/\libhal_bsp.a(alt_irq_vars.o)
 .debug_abbrev  0x000000000000983e      0x148 ../Bomberman_bsp/\libhal_bsp.a(alt_open.o)
 .debug_abbrev  0x0000000000009986      0x15a ../Bomberman_bsp/\libhal_bsp.a(alt_tick.o)
 .debug_abbrev  0x0000000000009ae0       0x42 ../Bomberman_bsp/\libhal_bsp.a(altera_nios2_gen2_irq.o)
 .debug_abbrev  0x0000000000009b22       0x12 ../Bomberman_bsp/\libhal_bsp.a(alt_exception_entry.o)
 .debug_abbrev  0x0000000000009b34       0xf0 ../Bomberman_bsp/\libhal_bsp.a(alt_find_dev.o)
 .debug_abbrev  0x0000000000009c24       0xf0 ../Bomberman_bsp/\libhal_bsp.a(alt_find_file.o)
 .debug_abbrev  0x0000000000009d14      0x10d ../Bomberman_bsp/\libhal_bsp.a(alt_get_fd.o)
 .debug_abbrev  0x0000000000009e21       0xdc ../Bomberman_bsp/\libhal_bsp.a(alt_instruction_exception_entry.o)
 .debug_abbrev  0x0000000000009efd       0xaa e:/quartus_fpga_design/nios2eds/bin/gnu/h-x86_64-mingw32/bin/../lib/gcc/nios2-elf/5.3.0/../../../../../H-x86_64-mingw32/nios2-elf/lib/mno-hw-mul\libc.a(lib_a-atexit.o)
 .debug_abbrev  0x0000000000009fa7      0x1e5 e:/quartus_fpga_design/nios2eds/bin/gnu/h-x86_64-mingw32/bin/../lib/gcc/nios2-elf/5.3.0/../../../../../H-x86_64-mingw32/nios2-elf/lib/mno-hw-mul\libc.a(lib_a-exit.o)
 .debug_abbrev  0x000000000000a18c       0x7f e:/quartus_fpga_design/nios2eds/bin/gnu/h-x86_64-mingw32/bin/../lib/gcc/nios2-elf/5.3.0/../../../../../H-x86_64-mingw32/nios2-elf/lib/mno-hw-mul\libc.a(lib_a-memcmp.o)
 .debug_abbrev  0x000000000000a20b      0x21e e:/quartus_fpga_design/nios2eds/bin/gnu/h-x86_64-mingw32/bin/../lib/gcc/nios2-elf/5.3.0/../../../../../H-x86_64-mingw32/nios2-elf/lib/mno-hw-mul\libc.a(lib_a-__atexit.o)
 .debug_abbrev  0x000000000000a429      0x22e e:/quartus_fpga_design/nios2eds/bin/gnu/h-x86_64-mingw32/bin/../lib/gcc/nios2-elf/5.3.0/../../../../../H-x86_64-mingw32/nios2-elf/lib/mno-hw-mul\libc.a(lib_a-__call_atexit.o)
 .debug_abbrev  0x000000000000a657       0xa9 ../Bomberman_bsp/\libhal_bsp.a(alt_exit.o)

.debug_line     0x0000000000000000     0xdbf8
 *(.debug_line)
 .debug_line    0x0000000000000000       0x66 ../Bomberman_bsp//obj/HAL/src/crt0.o
 .debug_line    0x0000000000000066       0x9d obj/default/INIT.o
 .debug_line    0x0000000000000103       0x7a obj/default/LEDandHEX.o
 .debug_line    0x000000000000017d      0x327 obj/default/USB_Keyboard_Driver.o
 .debug_line    0x00000000000004a4       0x9b obj/default/USB_Keyboard_Driver_Sup/io_handler.o
 .debug_line    0x000000000000053f      0x209 obj/default/USB_Keyboard_Driver_Sup/usb.o
 .debug_line    0x0000000000000748       0x72 obj/default/audio_driver.o
 .debug_line    0x00000000000007ba       0xf1 obj/default/coins.o
 .debug_line    0x00000000000008ab       0xe1 obj/default/draw_driver.o
 .debug_line    0x000000000000098c      0x5f5 obj/default/drawing.o
 .debug_line    0x0000000000000f81       0x63 obj/default/ed.o
 .debug_line    0x0000000000000fe4      0x6ce obj/default/game.o
 .debug_line    0x00000000000016b2       0x94 obj/default/main.o
 .debug_line    0x0000000000001746      0x100 obj/default/op.o
 .debug_line    0x0000000000001846      0x346 obj/default/readKey.o
 .debug_line    0x0000000000001b8c      0x16d obj/default/transition.o
 .debug_line    0x0000000000001cf9       0x6e e:/quartus_fpga_design/nios2eds/bin/gnu/h-x86_64-mingw32/bin/../lib/gcc/nios2-elf/5.3.0/mno-hw-mul\libgcc.a(_fixunsdfsi.o)
 .debug_line    0x0000000000001d67      0x105 e:/quartus_fpga_design/nios2eds/bin/gnu/h-x86_64-mingw32/bin/../lib/gcc/nios2-elf/5.3.0/mno-hw-mul\libgcc.a(lib2-divmod.o)
 .debug_line    0x0000000000001e6c       0x80 e:/quartus_fpga_design/nios2eds/bin/gnu/h-x86_64-mingw32/bin/../lib/gcc/nios2-elf/5.3.0/mno-hw-mul\libgcc.a(lib2-mul.o)
 .debug_line    0x0000000000001eec      0x2b0 e:/quartus_fpga_design/nios2eds/bin/gnu/h-x86_64-mingw32/bin/../lib/gcc/nios2-elf/5.3.0/mno-hw-mul\libgcc.a(divdf3.o)
 .debug_line    0x000000000000219c       0xce e:/quartus_fpga_design/nios2eds/bin/gnu/h-x86_64-mingw32/bin/../lib/gcc/nios2-elf/5.3.0/mno-hw-mul\libgcc.a(gedf2.o)
 .debug_line    0x000000000000226a      0x3ab e:/quartus_fpga_design/nios2eds/bin/gnu/h-x86_64-mingw32/bin/../lib/gcc/nios2-elf/5.3.0/mno-hw-mul\libgcc.a(subdf3.o)
 .debug_line    0x0000000000002615       0x9b e:/quartus_fpga_design/nios2eds/bin/gnu/h-x86_64-mingw32/bin/../lib/gcc/nios2-elf/5.3.0/mno-hw-mul\libgcc.a(fixdfsi.o)
 .debug_line    0x00000000000026b0       0x95 e:/quartus_fpga_design/nios2eds/bin/gnu/h-x86_64-mingw32/bin/../lib/gcc/nios2-elf/5.3.0/mno-hw-mul\libgcc.a(floatunsidf.o)
 .debug_line    0x0000000000002745       0xbd e:/quartus_fpga_design/nios2eds/bin/gnu/h-x86_64-mingw32/bin/../lib/gcc/nios2-elf/5.3.0/mno-hw-mul\libgcc.a(_clzsi2.o)
 .debug_line    0x0000000000002802       0x56 e:/quartus_fpga_design/nios2eds/bin/gnu/h-x86_64-mingw32/bin/../lib/gcc/nios2-elf/5.3.0/mno-hw-mul\libgcc.a(_clz.o)
 .debug_line    0x0000000000002858      0x200 e:/quartus_fpga_design/nios2eds/bin/gnu/h-x86_64-mingw32/bin/../lib/gcc/nios2-elf/5.3.0/../../../../../H-x86_64-mingw32/nios2-elf/lib/mno-hw-mul\libc.a(lib_a-clock.o)
 .debug_line    0x0000000000002a58      0x160 e:/quartus_fpga_design/nios2eds/bin/gnu/h-x86_64-mingw32/bin/../lib/gcc/nios2-elf/5.3.0/../../../../../H-x86_64-mingw32/nios2-elf/lib/mno-hw-mul\libc.a(lib_a-impure.o)
 .debug_line    0x0000000000002bb8      0x1f3 e:/quartus_fpga_design/nios2eds/bin/gnu/h-x86_64-mingw32/bin/../lib/gcc/nios2-elf/5.3.0/../../../../../H-x86_64-mingw32/nios2-elf/lib/mno-hw-mul\libc.a(lib_a-malloc.o)
 .debug_line    0x0000000000002dab      0x3fc e:/quartus_fpga_design/nios2eds/bin/gnu/h-x86_64-mingw32/bin/../lib/gcc/nios2-elf/5.3.0/../../../../../H-x86_64-mingw32/nios2-elf/lib/mno-hw-mul\libc.a(lib_a-mallocr.o)
 .debug_line    0x00000000000031a7      0x20b e:/quartus_fpga_design/nios2eds/bin/gnu/h-x86_64-mingw32/bin/../lib/gcc/nios2-elf/5.3.0/../../../../../H-x86_64-mingw32/nios2-elf/lib/mno-hw-mul\libc.a(lib_a-printf.o)
 .debug_line    0x00000000000033b2      0x248 e:/quartus_fpga_design/nios2eds/bin/gnu/h-x86_64-mingw32/bin/../lib/gcc/nios2-elf/5.3.0/../../../../../H-x86_64-mingw32/nios2-elf/lib/mno-hw-mul\libc.a(lib_a-puts.o)
 .debug_line    0x00000000000035fa      0x1f8 e:/quartus_fpga_design/nios2eds/bin/gnu/h-x86_64-mingw32/bin/../lib/gcc/nios2-elf/5.3.0/../../../../../H-x86_64-mingw32/nios2-elf/lib/mno-hw-mul\libc.a(lib_a-rand.o)
 .debug_line    0x00000000000037f2      0x1e9 e:/quartus_fpga_design/nios2eds/bin/gnu/h-x86_64-mingw32/bin/../lib/gcc/nios2-elf/5.3.0/../../../../../H-x86_64-mingw32/nios2-elf/lib/mno-hw-mul\libc.a(lib_a-sbrkr.o)
 .debug_line    0x00000000000039db      0x16f e:/quartus_fpga_design/nios2eds/bin/gnu/h-x86_64-mingw32/bin/../lib/gcc/nios2-elf/5.3.0/../../../../../H-x86_64-mingw32/nios2-elf/lib/mno-hw-mul\libc.a(lib_a-strlen.o)
 .debug_line    0x0000000000003b4a      0x1f3 e:/quartus_fpga_design/nios2eds/bin/gnu/h-x86_64-mingw32/bin/../lib/gcc/nios2-elf/5.3.0/../../../../../H-x86_64-mingw32/nios2-elf/lib/mno-hw-mul\libc.a(lib_a-timesr.o)
 .debug_line    0x0000000000003d3d      0xc9e e:/quartus_fpga_design/nios2eds/bin/gnu/h-x86_64-mingw32/bin/../lib/gcc/nios2-elf/5.3.0/../../../../../H-x86_64-mingw32/nios2-elf/lib/mno-hw-mul\libc.a(lib_a-vfprintf.o)
 .debug_line    0x00000000000049db      0x266 e:/quartus_fpga_design/nios2eds/bin/gnu/h-x86_64-mingw32/bin/../lib/gcc/nios2-elf/5.3.0/../../../../../H-x86_64-mingw32/nios2-elf/lib/mno-hw-mul\libc.a(lib_a-wsetup.o)
 .debug_line    0x0000000000004c41      0x7d1 e:/quartus_fpga_design/nios2eds/bin/gnu/h-x86_64-mingw32/bin/../lib/gcc/nios2-elf/5.3.0/../../../../../H-x86_64-mingw32/nios2-elf/lib/mno-hw-mul\libc.a(lib_a-dtoa.o)
 .debug_line    0x0000000000005412      0x2ea e:/quartus_fpga_design/nios2eds/bin/gnu/h-x86_64-mingw32/bin/../lib/gcc/nios2-elf/5.3.0/../../../../../H-x86_64-mingw32/nios2-elf/lib/mno-hw-mul\libc.a(lib_a-fflush.o)
 .debug_line    0x00000000000056fc      0x375 e:/quartus_fpga_design/nios2eds/bin/gnu/h-x86_64-mingw32/bin/../lib/gcc/nios2-elf/5.3.0/../../../../../H-x86_64-mingw32/nios2-elf/lib/mno-hw-mul\libc.a(lib_a-findfp.o)
 .debug_line    0x0000000000005a71      0x2f7 e:/quartus_fpga_design/nios2eds/bin/gnu/h-x86_64-mingw32/bin/../lib/gcc/nios2-elf/5.3.0/../../../../../H-x86_64-mingw32/nios2-elf/lib/mno-hw-mul\libc.a(lib_a-freer.o)
 .debug_line    0x0000000000005d68      0x346 e:/quartus_fpga_design/nios2eds/bin/gnu/h-x86_64-mingw32/bin/../lib/gcc/nios2-elf/5.3.0/../../../../../H-x86_64-mingw32/nios2-elf/lib/mno-hw-mul\libc.a(lib_a-fvwrite.o)
 .debug_line    0x00000000000060ae      0x23a e:/quartus_fpga_design/nios2eds/bin/gnu/h-x86_64-mingw32/bin/../lib/gcc/nios2-elf/5.3.0/../../../../../H-x86_64-mingw32/nios2-elf/lib/mno-hw-mul\libc.a(lib_a-fwalk.o)
 .debug_line    0x00000000000062e8       0x5f e:/quartus_fpga_design/nios2eds/bin/gnu/h-x86_64-mingw32/bin/../lib/gcc/nios2-elf/5.3.0/../../../../../H-x86_64-mingw32/nios2-elf/lib/mno-hw-mul\libc.a(lib_a-int_errno.o)
 .debug_line    0x0000000000006347      0x28e e:/quartus_fpga_design/nios2eds/bin/gnu/h-x86_64-mingw32/bin/../lib/gcc/nios2-elf/5.3.0/../../../../../H-x86_64-mingw32/nios2-elf/lib/mno-hw-mul\libc.a(lib_a-locale.o)
 .debug_line    0x00000000000065d5      0x274 e:/quartus_fpga_design/nios2eds/bin/gnu/h-x86_64-mingw32/bin/../lib/gcc/nios2-elf/5.3.0/../../../../../H-x86_64-mingw32/nios2-elf/lib/mno-hw-mul\libc.a(lib_a-makebuf.o)
 .debug_line    0x0000000000006849      0x18d e:/quartus_fpga_design/nios2eds/bin/gnu/h-x86_64-mingw32/bin/../lib/gcc/nios2-elf/5.3.0/../../../../../H-x86_64-mingw32/nios2-elf/lib/mno-hw-mul\libc.a(lib_a-memchr.o)
 .debug_line    0x00000000000069d6      0x18c e:/quartus_fpga_design/nios2eds/bin/gnu/h-x86_64-mingw32/bin/../lib/gcc/nios2-elf/5.3.0/../../../../../H-x86_64-mingw32/nios2-elf/lib/mno-hw-mul\libc.a(lib_a-memcpy.o)
 .debug_line    0x0000000000006b62      0x18d e:/quartus_fpga_design/nios2eds/bin/gnu/h-x86_64-mingw32/bin/../lib/gcc/nios2-elf/5.3.0/../../../../../H-x86_64-mingw32/nios2-elf/lib/mno-hw-mul\libc.a(lib_a-memmove.o)
 .debug_line    0x0000000000006cef      0x18f e:/quartus_fpga_design/nios2eds/bin/gnu/h-x86_64-mingw32/bin/../lib/gcc/nios2-elf/5.3.0/../../../../../H-x86_64-mingw32/nios2-elf/lib/mno-hw-mul\libc.a(lib_a-memset.o)
 .debug_line    0x0000000000006e7e      0x786 e:/quartus_fpga_design/nios2eds/bin/gnu/h-x86_64-mingw32/bin/../lib/gcc/nios2-elf/5.3.0/../../../../../H-x86_64-mingw32/nios2-elf/lib/mno-hw-mul\libc.a(lib_a-mprec.o)
 .debug_line    0x0000000000007604      0x2f5 e:/quartus_fpga_design/nios2eds/bin/gnu/h-x86_64-mingw32/bin/../lib/gcc/nios2-elf/5.3.0/../../../../../H-x86_64-mingw32/nios2-elf/lib/mno-hw-mul\libc.a(lib_a-reallocr.o)
 .debug_line    0x00000000000078f9      0x16f e:/quartus_fpga_design/nios2eds/bin/gnu/h-x86_64-mingw32/bin/../lib/gcc/nios2-elf/5.3.0/../../../../../H-x86_64-mingw32/nios2-elf/lib/mno-hw-mul\libc.a(lib_a-s_fpclassify.o)
 .debug_line    0x0000000000007a68      0x26a e:/quartus_fpga_design/nios2eds/bin/gnu/h-x86_64-mingw32/bin/../lib/gcc/nios2-elf/5.3.0/../../../../../H-x86_64-mingw32/nios2-elf/lib/mno-hw-mul\libc.a(lib_a-stdio.o)
 .debug_line    0x0000000000007cd2      0x101 e:/quartus_fpga_design/nios2eds/bin/gnu/h-x86_64-mingw32/bin/../lib/gcc/nios2-elf/5.3.0/../../../../../H-x86_64-mingw32/nios2-elf/lib/mno-hw-mul\libc.a(lib_a-strcmp.o)
 .debug_line    0x0000000000007dd3      0x979 e:/quartus_fpga_design/nios2eds/bin/gnu/h-x86_64-mingw32/bin/../lib/gcc/nios2-elf/5.3.0/../../../../../H-x86_64-mingw32/nios2-elf/lib/mno-hw-mul\libc.a(lib_a-vfiprintf.o)
 .debug_line    0x000000000000874c      0x1f6 e:/quartus_fpga_design/nios2eds/bin/gnu/h-x86_64-mingw32/bin/../lib/gcc/nios2-elf/5.3.0/../../../../../H-x86_64-mingw32/nios2-elf/lib/mno-hw-mul\libc.a(lib_a-writer.o)
 .debug_line    0x0000000000008942      0x1f6 e:/quartus_fpga_design/nios2eds/bin/gnu/h-x86_64-mingw32/bin/../lib/gcc/nios2-elf/5.3.0/../../../../../H-x86_64-mingw32/nios2-elf/lib/mno-hw-mul\libc.a(closer.o)
 .debug_line    0x0000000000008b38      0x1b1 e:/quartus_fpga_design/nios2eds/bin/gnu/h-x86_64-mingw32/bin/../lib/gcc/nios2-elf/5.3.0/../../../../../H-x86_64-mingw32/nios2-elf/lib/mno-hw-mul\libc.a(lib_a-callocr.o)
 .debug_line    0x0000000000008ce9      0x239 e:/quartus_fpga_design/nios2eds/bin/gnu/h-x86_64-mingw32/bin/../lib/gcc/nios2-elf/5.3.0/../../../../../H-x86_64-mingw32/nios2-elf/lib/mno-hw-mul\libc.a(lib_a-fclose.o)
 .debug_line    0x0000000000008f22      0x2a5 e:/quartus_fpga_design/nios2eds/bin/gnu/h-x86_64-mingw32/bin/../lib/gcc/nios2-elf/5.3.0/../../../../../H-x86_64-mingw32/nios2-elf/lib/mno-hw-mul\libc.a(lib_a-fputwc.o)
 .debug_line    0x00000000000091c7      0x1ff e:/quartus_fpga_design/nios2eds/bin/gnu/h-x86_64-mingw32/bin/../lib/gcc/nios2-elf/5.3.0/../../../../../H-x86_64-mingw32/nios2-elf/lib/mno-hw-mul\libc.a(lib_a-fstatr.o)
 .debug_line    0x00000000000093c6      0x1f7 e:/quartus_fpga_design/nios2eds/bin/gnu/h-x86_64-mingw32/bin/../lib/gcc/nios2-elf/5.3.0/../../../../../H-x86_64-mingw32/nios2-elf/lib/mno-hw-mul\libc.a(lib_a-isattyr.o)
 .debug_line    0x00000000000095bd      0x1f6 e:/quartus_fpga_design/nios2eds/bin/gnu/h-x86_64-mingw32/bin/../lib/gcc/nios2-elf/5.3.0/../../../../../H-x86_64-mingw32/nios2-elf/lib/mno-hw-mul\libc.a(lib_a-lseekr.o)
 .debug_line    0x00000000000097b3      0x1f5 e:/quartus_fpga_design/nios2eds/bin/gnu/h-x86_64-mingw32/bin/../lib/gcc/nios2-elf/5.3.0/../../../../../H-x86_64-mingw32/nios2-elf/lib/mno-hw-mul\libc.a(lib_a-readr.o)
 .debug_line    0x00000000000099a8      0x271 e:/quartus_fpga_design/nios2eds/bin/gnu/h-x86_64-mingw32/bin/../lib/gcc/nios2-elf/5.3.0/../../../../../H-x86_64-mingw32/nios2-elf/lib/mno-hw-mul\libc.a(lib_a-wbuf.o)
 .debug_line    0x0000000000009c19      0x226 e:/quartus_fpga_design/nios2eds/bin/gnu/h-x86_64-mingw32/bin/../lib/gcc/nios2-elf/5.3.0/../../../../../H-x86_64-mingw32/nios2-elf/lib/mno-hw-mul\libc.a(lib_a-wcrtomb.o)
 .debug_line    0x0000000000009e3f      0x21a e:/quartus_fpga_design/nios2eds/bin/gnu/h-x86_64-mingw32/bin/../lib/gcc/nios2-elf/5.3.0/../../../../../H-x86_64-mingw32/nios2-elf/lib/mno-hw-mul\libc.a(lib_a-wctomb_r.o)
 .debug_line    0x000000000000a059       0x91 e:/quartus_fpga_design/nios2eds/bin/gnu/h-x86_64-mingw32/bin/../lib/gcc/nios2-elf/5.3.0/mno-hw-mul\libgcc.a(_muldi3.o)
 .debug_line    0x000000000000a0ea      0x12f e:/quartus_fpga_design/nios2eds/bin/gnu/h-x86_64-mingw32/bin/../lib/gcc/nios2-elf/5.3.0/mno-hw-mul\libgcc.a(_udivdi3.o)
 .debug_line    0x000000000000a219      0x142 e:/quartus_fpga_design/nios2eds/bin/gnu/h-x86_64-mingw32/bin/../lib/gcc/nios2-elf/5.3.0/mno-hw-mul\libgcc.a(_umoddi3.o)
 .debug_line    0x000000000000a35b      0x37e e:/quartus_fpga_design/nios2eds/bin/gnu/h-x86_64-mingw32/bin/../lib/gcc/nios2-elf/5.3.0/mno-hw-mul\libgcc.a(adddf3.o)
 .debug_line    0x000000000000a6d9       0xad e:/quartus_fpga_design/nios2eds/bin/gnu/h-x86_64-mingw32/bin/../lib/gcc/nios2-elf/5.3.0/mno-hw-mul\libgcc.a(eqdf2.o)
 .debug_line    0x000000000000a786       0xe6 e:/quartus_fpga_design/nios2eds/bin/gnu/h-x86_64-mingw32/bin/../lib/gcc/nios2-elf/5.3.0/mno-hw-mul\libgcc.a(ledf2.o)
 .debug_line    0x000000000000a86c      0x1ea e:/quartus_fpga_design/nios2eds/bin/gnu/h-x86_64-mingw32/bin/../lib/gcc/nios2-elf/5.3.0/mno-hw-mul\libgcc.a(muldf3.o)
 .debug_line    0x000000000000aa56       0xa2 e:/quartus_fpga_design/nios2eds/bin/gnu/h-x86_64-mingw32/bin/../lib/gcc/nios2-elf/5.3.0/mno-hw-mul\libgcc.a(floatsidf.o)
 .debug_line    0x000000000000aaf8      0x165 ../Bomberman_bsp/\libhal_bsp.a(alt_close.o)
 .debug_line    0x000000000000ac5d       0xf8 ../Bomberman_bsp/\libhal_bsp.a(alt_dev.o)
 .debug_line    0x000000000000ad55       0x51 ../Bomberman_bsp/\libhal_bsp.a(alt_errno.o)
 .debug_line    0x000000000000ada6      0x15e ../Bomberman_bsp/\libhal_bsp.a(alt_fstat.o)
 .debug_line    0x000000000000af04      0x162 ../Bomberman_bsp/\libhal_bsp.a(alt_isatty.o)
 .debug_line    0x000000000000b066       0x8e ../Bomberman_bsp/\libhal_bsp.a(alt_load.o)
 .debug_line    0x000000000000b0f4      0x163 ../Bomberman_bsp/\libhal_bsp.a(alt_lseek.o)
 .debug_line    0x000000000000b257       0xa4 ../Bomberman_bsp/\libhal_bsp.a(alt_main.o)
 .debug_line    0x000000000000b2fb      0x122 ../Bomberman_bsp/\libhal_bsp.a(alt_malloc_lock.o)
 .debug_line    0x000000000000b41d      0x1dc ../Bomberman_bsp/\libhal_bsp.a(alt_read.o)
 .debug_line    0x000000000000b5f9       0xb0 ../Bomberman_bsp/\libhal_bsp.a(alt_release_fd.o)
 .debug_line    0x000000000000b6a9       0xf3 ../Bomberman_bsp/\libhal_bsp.a(alt_sbrk.o)
 .debug_line    0x000000000000b79c      0x136 ../Bomberman_bsp/\libhal_bsp.a(alt_times.o)
 .debug_line    0x000000000000b8d2       0xad ../Bomberman_bsp/\libhal_bsp.a(alt_usleep.o)
 .debug_line    0x000000000000b97f      0x1db ../Bomberman_bsp/\libhal_bsp.a(alt_write.o)
 .debug_line    0x000000000000bb5a      0x152 ../Bomberman_bsp/\libhal_bsp.a(alt_sys_init.o)
 .debug_line    0x000000000000bcac      0x12f ../Bomberman_bsp/\libhal_bsp.a(altera_avalon_jtag_uart_fd.o)
 .debug_line    0x000000000000bddb      0x18b ../Bomberman_bsp/\libhal_bsp.a(altera_avalon_jtag_uart_init.o)
 .debug_line    0x000000000000bf66      0x131 ../Bomberman_bsp/\libhal_bsp.a(altera_avalon_jtag_uart_ioctl.o)
 .debug_line    0x000000000000c097      0x171 ../Bomberman_bsp/\libhal_bsp.a(altera_avalon_jtag_uart_read.o)
 .debug_line    0x000000000000c208      0x170 ../Bomberman_bsp/\libhal_bsp.a(altera_avalon_jtag_uart_write.o)
 .debug_line    0x000000000000c378       0xfd ../Bomberman_bsp/\libhal_bsp.a(altera_avalon_timer_sc.o)
 .debug_line    0x000000000000c475       0xf9 ../Bomberman_bsp/\libhal_bsp.a(alt_alarm_start.o)
 .debug_line    0x000000000000c56e       0xa2 ../Bomberman_bsp/\libhal_bsp.a(alt_busy_sleep.o)
 .debug_line    0x000000000000c610       0x51 ../Bomberman_bsp/\libhal_bsp.a(alt_dcache_flush_all.o)
 .debug_line    0x000000000000c661       0xcf ../Bomberman_bsp/\libhal_bsp.a(alt_dev_llist_insert.o)
 .debug_line    0x000000000000c730       0x59 ../Bomberman_bsp/\libhal_bsp.a(alt_do_ctors.o)
 .debug_line    0x000000000000c789       0x59 ../Bomberman_bsp/\libhal_bsp.a(alt_do_dtors.o)
 .debug_line    0x000000000000c7e2       0x4f ../Bomberman_bsp/\libhal_bsp.a(alt_icache_flush_all.o)
 .debug_line    0x000000000000c831       0xeb ../Bomberman_bsp/\libhal_bsp.a(alt_iic.o)
 .debug_line    0x000000000000c91c       0xdb ../Bomberman_bsp/\libhal_bsp.a(alt_iic_isr_register.o)
 .debug_line    0x000000000000c9f7      0x135 ../Bomberman_bsp/\libhal_bsp.a(alt_io_redirect.o)
 .debug_line    0x000000000000cb2c       0x6b ../Bomberman_bsp/\libhal_bsp.a(alt_irq_entry.o)
 .debug_line    0x000000000000cb97       0xaa ../Bomberman_bsp/\libhal_bsp.a(alt_irq_handler.o)
 .debug_line    0x000000000000cc41       0x50 ../Bomberman_bsp/\libhal_bsp.a(alt_irq_vars.o)
 .debug_line    0x000000000000cc91      0x12b ../Bomberman_bsp/\libhal_bsp.a(alt_open.o)
 .debug_line    0x000000000000cdbc       0xff ../Bomberman_bsp/\libhal_bsp.a(alt_tick.o)
 .debug_line    0x000000000000cebb       0x51 ../Bomberman_bsp/\libhal_bsp.a(altera_nios2_gen2_irq.o)
 .debug_line    0x000000000000cf0c       0xb3 ../Bomberman_bsp/\libhal_bsp.a(alt_exception_entry.o)
 .debug_line    0x000000000000cfbf       0xb5 ../Bomberman_bsp/\libhal_bsp.a(alt_find_dev.o)
 .debug_line    0x000000000000d074       0xd1 ../Bomberman_bsp/\libhal_bsp.a(alt_find_file.o)
 .debug_line    0x000000000000d145       0xd7 ../Bomberman_bsp/\libhal_bsp.a(alt_get_fd.o)
 .debug_line    0x000000000000d21c       0xb9 ../Bomberman_bsp/\libhal_bsp.a(alt_instruction_exception_entry.o)
 .debug_line    0x000000000000d2d5       0xe7 e:/quartus_fpga_design/nios2eds/bin/gnu/h-x86_64-mingw32/bin/../lib/gcc/nios2-elf/5.3.0/../../../../../H-x86_64-mingw32/nios2-elf/lib/mno-hw-mul\libc.a(lib_a-atexit.o)
 .debug_line    0x000000000000d3bc      0x1fc e:/quartus_fpga_design/nios2eds/bin/gnu/h-x86_64-mingw32/bin/../lib/gcc/nios2-elf/5.3.0/../../../../../H-x86_64-mingw32/nios2-elf/lib/mno-hw-mul\libc.a(lib_a-exit.o)
 .debug_line    0x000000000000d5b8      0x176 e:/quartus_fpga_design/nios2eds/bin/gnu/h-x86_64-mingw32/bin/../lib/gcc/nios2-elf/5.3.0/../../../../../H-x86_64-mingw32/nios2-elf/lib/mno-hw-mul\libc.a(lib_a-memcmp.o)
 .debug_line    0x000000000000d72e      0x21f e:/quartus_fpga_design/nios2eds/bin/gnu/h-x86_64-mingw32/bin/../lib/gcc/nios2-elf/5.3.0/../../../../../H-x86_64-mingw32/nios2-elf/lib/mno-hw-mul\libc.a(lib_a-__atexit.o)
 .debug_line    0x000000000000d94d      0x23a e:/quartus_fpga_design/nios2eds/bin/gnu/h-x86_64-mingw32/bin/../lib/gcc/nios2-elf/5.3.0/../../../../../H-x86_64-mingw32/nios2-elf/lib/mno-hw-mul\libc.a(lib_a-__call_atexit.o)
 .debug_line    0x000000000000db87       0x71 ../Bomberman_bsp/\libhal_bsp.a(alt_exit.o)

.debug_frame    0x0000000000000000     0x3014
 *(.debug_frame)
 .debug_frame   0x0000000000000000       0x40 obj/default/INIT.o
 .debug_frame   0x0000000000000040       0x60 obj/default/LEDandHEX.o
 .debug_frame   0x00000000000000a0       0x68 obj/default/USB_Keyboard_Driver.o
 .debug_frame   0x0000000000000108       0x7c obj/default/USB_Keyboard_Driver_Sup/io_handler.o
 .debug_frame   0x0000000000000184      0x268 obj/default/USB_Keyboard_Driver_Sup/usb.o
 .debug_frame   0x00000000000003ec       0xd0 obj/default/audio_driver.o
 .debug_frame   0x00000000000004bc       0x88 obj/default/coins.o
 .debug_frame   0x0000000000000544       0xac obj/default/draw_driver.o
 .debug_frame   0x00000000000005f0      0x220 obj/default/drawing.o
 .debug_frame   0x0000000000000810       0x60 obj/default/ed.o
 .debug_frame   0x0000000000000870      0x224 obj/default/game.o
 .debug_frame   0x0000000000000a94       0x58 obj/default/main.o
 .debug_frame   0x0000000000000aec       0x60 obj/default/op.o
 .debug_frame   0x0000000000000b4c      0x208 obj/default/readKey.o
 .debug_frame   0x0000000000000d54       0x40 obj/default/transition.o
 .debug_frame   0x0000000000000d94       0x38 e:/quartus_fpga_design/nios2eds/bin/gnu/h-x86_64-mingw32/bin/../lib/gcc/nios2-elf/5.3.0/mno-hw-mul\libgcc.a(_fixunsdfsi.o)
 .debug_frame   0x0000000000000dcc       0x50 e:/quartus_fpga_design/nios2eds/bin/gnu/h-x86_64-mingw32/bin/../lib/gcc/nios2-elf/5.3.0/mno-hw-mul\libgcc.a(lib2-divmod.o)
 .debug_frame   0x0000000000000e1c       0x20 e:/quartus_fpga_design/nios2eds/bin/gnu/h-x86_64-mingw32/bin/../lib/gcc/nios2-elf/5.3.0/mno-hw-mul\libgcc.a(lib2-mul.o)
 .debug_frame   0x0000000000000e3c       0x58 e:/quartus_fpga_design/nios2eds/bin/gnu/h-x86_64-mingw32/bin/../lib/gcc/nios2-elf/5.3.0/mno-hw-mul\libgcc.a(divdf3.o)
 .debug_frame   0x0000000000000e94       0x20 e:/quartus_fpga_design/nios2eds/bin/gnu/h-x86_64-mingw32/bin/../lib/gcc/nios2-elf/5.3.0/mno-hw-mul\libgcc.a(gedf2.o)
 .debug_frame   0x0000000000000eb4       0x44 e:/quartus_fpga_design/nios2eds/bin/gnu/h-x86_64-mingw32/bin/../lib/gcc/nios2-elf/5.3.0/mno-hw-mul\libgcc.a(subdf3.o)
 .debug_frame   0x0000000000000ef8       0x20 e:/quartus_fpga_design/nios2eds/bin/gnu/h-x86_64-mingw32/bin/../lib/gcc/nios2-elf/5.3.0/mno-hw-mul\libgcc.a(fixdfsi.o)
 .debug_frame   0x0000000000000f18       0x34 e:/quartus_fpga_design/nios2eds/bin/gnu/h-x86_64-mingw32/bin/../lib/gcc/nios2-elf/5.3.0/mno-hw-mul\libgcc.a(floatunsidf.o)
 .debug_frame   0x0000000000000f4c       0x20 e:/quartus_fpga_design/nios2eds/bin/gnu/h-x86_64-mingw32/bin/../lib/gcc/nios2-elf/5.3.0/mno-hw-mul\libgcc.a(_clzsi2.o)
 .debug_frame   0x0000000000000f6c       0x2c e:/quartus_fpga_design/nios2eds/bin/gnu/h-x86_64-mingw32/bin/../lib/gcc/nios2-elf/5.3.0/../../../../../H-x86_64-mingw32/nios2-elf/lib/mno-hw-mul\libc.a(lib_a-clock.o)
 .debug_frame   0x0000000000000f98       0x30 e:/quartus_fpga_design/nios2eds/bin/gnu/h-x86_64-mingw32/bin/../lib/gcc/nios2-elf/5.3.0/../../../../../H-x86_64-mingw32/nios2-elf/lib/mno-hw-mul\libc.a(lib_a-malloc.o)
 .debug_frame   0x0000000000000fc8       0x54 e:/quartus_fpga_design/nios2eds/bin/gnu/h-x86_64-mingw32/bin/../lib/gcc/nios2-elf/5.3.0/../../../../../H-x86_64-mingw32/nios2-elf/lib/mno-hw-mul\libc.a(lib_a-mallocr.o)
 .debug_frame   0x000000000000101c       0x48 e:/quartus_fpga_design/nios2eds/bin/gnu/h-x86_64-mingw32/bin/../lib/gcc/nios2-elf/5.3.0/../../../../../H-x86_64-mingw32/nios2-elf/lib/mno-hw-mul\libc.a(lib_a-printf.o)
 .debug_frame   0x0000000000001064       0x48 e:/quartus_fpga_design/nios2eds/bin/gnu/h-x86_64-mingw32/bin/../lib/gcc/nios2-elf/5.3.0/../../../../../H-x86_64-mingw32/nios2-elf/lib/mno-hw-mul\libc.a(lib_a-puts.o)
 .debug_frame   0x00000000000010ac       0x44 e:/quartus_fpga_design/nios2eds/bin/gnu/h-x86_64-mingw32/bin/../lib/gcc/nios2-elf/5.3.0/../../../../../H-x86_64-mingw32/nios2-elf/lib/mno-hw-mul\libc.a(lib_a-rand.o)
 .debug_frame   0x00000000000010f0       0x38 e:/quartus_fpga_design/nios2eds/bin/gnu/h-x86_64-mingw32/bin/../lib/gcc/nios2-elf/5.3.0/../../../../../H-x86_64-mingw32/nios2-elf/lib/mno-hw-mul\libc.a(lib_a-sbrkr.o)
 .debug_frame   0x0000000000001128       0x20 e:/quartus_fpga_design/nios2eds/bin/gnu/h-x86_64-mingw32/bin/../lib/gcc/nios2-elf/5.3.0/../../../../../H-x86_64-mingw32/nios2-elf/lib/mno-hw-mul\libc.a(lib_a-strlen.o)
 .debug_frame   0x0000000000001148       0x20 e:/quartus_fpga_design/nios2eds/bin/gnu/h-x86_64-mingw32/bin/../lib/gcc/nios2-elf/5.3.0/../../../../../H-x86_64-mingw32/nios2-elf/lib/mno-hw-mul\libc.a(lib_a-timesr.o)
 .debug_frame   0x0000000000001168       0x98 e:/quartus_fpga_design/nios2eds/bin/gnu/h-x86_64-mingw32/bin/../lib/gcc/nios2-elf/5.3.0/../../../../../H-x86_64-mingw32/nios2-elf/lib/mno-hw-mul\libc.a(lib_a-vfprintf.o)
 .debug_frame   0x0000000000001200       0x38 e:/quartus_fpga_design/nios2eds/bin/gnu/h-x86_64-mingw32/bin/../lib/gcc/nios2-elf/5.3.0/../../../../../H-x86_64-mingw32/nios2-elf/lib/mno-hw-mul\libc.a(lib_a-wsetup.o)
 .debug_frame   0x0000000000001238       0x9c e:/quartus_fpga_design/nios2eds/bin/gnu/h-x86_64-mingw32/bin/../lib/gcc/nios2-elf/5.3.0/../../../../../H-x86_64-mingw32/nios2-elf/lib/mno-hw-mul\libc.a(lib_a-dtoa.o)
 .debug_frame   0x00000000000012d4       0x7c e:/quartus_fpga_design/nios2eds/bin/gnu/h-x86_64-mingw32/bin/../lib/gcc/nios2-elf/5.3.0/../../../../../H-x86_64-mingw32/nios2-elf/lib/mno-hw-mul\libc.a(lib_a-fflush.o)
 .debug_frame   0x0000000000001350      0x160 e:/quartus_fpga_design/nios2eds/bin/gnu/h-x86_64-mingw32/bin/../lib/gcc/nios2-elf/5.3.0/../../../../../H-x86_64-mingw32/nios2-elf/lib/mno-hw-mul\libc.a(lib_a-findfp.o)
 .debug_frame   0x00000000000014b0       0x70 e:/quartus_fpga_design/nios2eds/bin/gnu/h-x86_64-mingw32/bin/../lib/gcc/nios2-elf/5.3.0/../../../../../H-x86_64-mingw32/nios2-elf/lib/mno-hw-mul\libc.a(lib_a-freer.o)
 .debug_frame   0x0000000000001520       0x78 e:/quartus_fpga_design/nios2eds/bin/gnu/h-x86_64-mingw32/bin/../lib/gcc/nios2-elf/5.3.0/../../../../../H-x86_64-mingw32/nios2-elf/lib/mno-hw-mul\libc.a(lib_a-fvwrite.o)
 .debug_frame   0x0000000000001598       0x90 e:/quartus_fpga_design/nios2eds/bin/gnu/h-x86_64-mingw32/bin/../lib/gcc/nios2-elf/5.3.0/../../../../../H-x86_64-mingw32/nios2-elf/lib/mno-hw-mul\libc.a(lib_a-fwalk.o)
 .debug_frame   0x0000000000001628       0xa8 e:/quartus_fpga_design/nios2eds/bin/gnu/h-x86_64-mingw32/bin/../lib/gcc/nios2-elf/5.3.0/../../../../../H-x86_64-mingw32/nios2-elf/lib/mno-hw-mul\libc.a(lib_a-locale.o)
 .debug_frame   0x00000000000016d0       0x4c e:/quartus_fpga_design/nios2eds/bin/gnu/h-x86_64-mingw32/bin/../lib/gcc/nios2-elf/5.3.0/../../../../../H-x86_64-mingw32/nios2-elf/lib/mno-hw-mul\libc.a(lib_a-makebuf.o)
 .debug_frame   0x000000000000171c       0x20 e:/quartus_fpga_design/nios2eds/bin/gnu/h-x86_64-mingw32/bin/../lib/gcc/nios2-elf/5.3.0/../../../../../H-x86_64-mingw32/nios2-elf/lib/mno-hw-mul\libc.a(lib_a-memchr.o)
 .debug_frame   0x000000000000173c       0x38 e:/quartus_fpga_design/nios2eds/bin/gnu/h-x86_64-mingw32/bin/../lib/gcc/nios2-elf/5.3.0/../../../../../H-x86_64-mingw32/nios2-elf/lib/mno-hw-mul\libc.a(lib_a-memcpy.o)
 .debug_frame   0x0000000000001774       0x20 e:/quartus_fpga_design/nios2eds/bin/gnu/h-x86_64-mingw32/bin/../lib/gcc/nios2-elf/5.3.0/../../../../../H-x86_64-mingw32/nios2-elf/lib/mno-hw-mul\libc.a(lib_a-memmove.o)
 .debug_frame   0x0000000000001794       0x20 e:/quartus_fpga_design/nios2eds/bin/gnu/h-x86_64-mingw32/bin/../lib/gcc/nios2-elf/5.3.0/../../../../../H-x86_64-mingw32/nios2-elf/lib/mno-hw-mul\libc.a(lib_a-memset.o)
 .debug_frame   0x00000000000017b4      0x300 e:/quartus_fpga_design/nios2eds/bin/gnu/h-x86_64-mingw32/bin/../lib/gcc/nios2-elf/5.3.0/../../../../../H-x86_64-mingw32/nios2-elf/lib/mno-hw-mul\libc.a(lib_a-mprec.o)
 .debug_frame   0x0000000000001ab4       0x70 e:/quartus_fpga_design/nios2eds/bin/gnu/h-x86_64-mingw32/bin/../lib/gcc/nios2-elf/5.3.0/../../../../../H-x86_64-mingw32/nios2-elf/lib/mno-hw-mul\libc.a(lib_a-reallocr.o)
 .debug_frame   0x0000000000001b24       0x20 e:/quartus_fpga_design/nios2eds/bin/gnu/h-x86_64-mingw32/bin/../lib/gcc/nios2-elf/5.3.0/../../../../../H-x86_64-mingw32/nios2-elf/lib/mno-hw-mul\libc.a(lib_a-s_fpclassify.o)
 .debug_frame   0x0000000000001b44       0xb4 e:/quartus_fpga_design/nios2eds/bin/gnu/h-x86_64-mingw32/bin/../lib/gcc/nios2-elf/5.3.0/../../../../../H-x86_64-mingw32/nios2-elf/lib/mno-hw-mul\libc.a(lib_a-stdio.o)
 .debug_frame   0x0000000000001bf8       0x20 e:/quartus_fpga_design/nios2eds/bin/gnu/h-x86_64-mingw32/bin/../lib/gcc/nios2-elf/5.3.0/../../../../../H-x86_64-mingw32/nios2-elf/lib/mno-hw-mul\libc.a(lib_a-strcmp.o)
 .debug_frame   0x0000000000001c18       0xec e:/quartus_fpga_design/nios2eds/bin/gnu/h-x86_64-mingw32/bin/../lib/gcc/nios2-elf/5.3.0/../../../../../H-x86_64-mingw32/nios2-elf/lib/mno-hw-mul\libc.a(lib_a-vfiprintf.o)
 .debug_frame   0x0000000000001d04       0x38 e:/quartus_fpga_design/nios2eds/bin/gnu/h-x86_64-mingw32/bin/../lib/gcc/nios2-elf/5.3.0/../../../../../H-x86_64-mingw32/nios2-elf/lib/mno-hw-mul\libc.a(lib_a-writer.o)
 .debug_frame   0x0000000000001d3c       0x38 e:/quartus_fpga_design/nios2eds/bin/gnu/h-x86_64-mingw32/bin/../lib/gcc/nios2-elf/5.3.0/../../../../../H-x86_64-mingw32/nios2-elf/lib/mno-hw-mul\libc.a(closer.o)
 .debug_frame   0x0000000000001d74       0x40 e:/quartus_fpga_design/nios2eds/bin/gnu/h-x86_64-mingw32/bin/../lib/gcc/nios2-elf/5.3.0/../../../../../H-x86_64-mingw32/nios2-elf/lib/mno-hw-mul\libc.a(lib_a-callocr.o)
 .debug_frame   0x0000000000001db4       0x54 e:/quartus_fpga_design/nios2eds/bin/gnu/h-x86_64-mingw32/bin/../lib/gcc/nios2-elf/5.3.0/../../../../../H-x86_64-mingw32/nios2-elf/lib/mno-hw-mul\libc.a(lib_a-fclose.o)
 .debug_frame   0x0000000000001e08       0x80 e:/quartus_fpga_design/nios2eds/bin/gnu/h-x86_64-mingw32/bin/../lib/gcc/nios2-elf/5.3.0/../../../../../H-x86_64-mingw32/nios2-elf/lib/mno-hw-mul\libc.a(lib_a-fputwc.o)
 .debug_frame   0x0000000000001e88       0x38 e:/quartus_fpga_design/nios2eds/bin/gnu/h-x86_64-mingw32/bin/../lib/gcc/nios2-elf/5.3.0/../../../../../H-x86_64-mingw32/nios2-elf/lib/mno-hw-mul\libc.a(lib_a-fstatr.o)
 .debug_frame   0x0000000000001ec0       0x38 e:/quartus_fpga_design/nios2eds/bin/gnu/h-x86_64-mingw32/bin/../lib/gcc/nios2-elf/5.3.0/../../../../../H-x86_64-mingw32/nios2-elf/lib/mno-hw-mul\libc.a(lib_a-isattyr.o)
 .debug_frame   0x0000000000001ef8       0x38 e:/quartus_fpga_design/nios2eds/bin/gnu/h-x86_64-mingw32/bin/../lib/gcc/nios2-elf/5.3.0/../../../../../H-x86_64-mingw32/nios2-elf/lib/mno-hw-mul\libc.a(lib_a-lseekr.o)
 .debug_frame   0x0000000000001f30       0x38 e:/quartus_fpga_design/nios2eds/bin/gnu/h-x86_64-mingw32/bin/../lib/gcc/nios2-elf/5.3.0/../../../../../H-x86_64-mingw32/nios2-elf/lib/mno-hw-mul\libc.a(lib_a-readr.o)
 .debug_frame   0x0000000000001f68       0x50 e:/quartus_fpga_design/nios2eds/bin/gnu/h-x86_64-mingw32/bin/../lib/gcc/nios2-elf/5.3.0/../../../../../H-x86_64-mingw32/nios2-elf/lib/mno-hw-mul\libc.a(lib_a-wbuf.o)
 .debug_frame   0x0000000000001fb8       0x70 e:/quartus_fpga_design/nios2eds/bin/gnu/h-x86_64-mingw32/bin/../lib/gcc/nios2-elf/5.3.0/../../../../../H-x86_64-mingw32/nios2-elf/lib/mno-hw-mul\libc.a(lib_a-wcrtomb.o)
 .debug_frame   0x0000000000002028       0x44 e:/quartus_fpga_design/nios2eds/bin/gnu/h-x86_64-mingw32/bin/../lib/gcc/nios2-elf/5.3.0/../../../../../H-x86_64-mingw32/nios2-elf/lib/mno-hw-mul\libc.a(lib_a-wctomb_r.o)
 .debug_frame   0x000000000000206c       0x54 e:/quartus_fpga_design/nios2eds/bin/gnu/h-x86_64-mingw32/bin/../lib/gcc/nios2-elf/5.3.0/mno-hw-mul\libgcc.a(_muldi3.o)
 .debug_frame   0x00000000000020c0       0x54 e:/quartus_fpga_design/nios2eds/bin/gnu/h-x86_64-mingw32/bin/../lib/gcc/nios2-elf/5.3.0/mno-hw-mul\libgcc.a(_udivdi3.o)
 .debug_frame   0x0000000000002114       0x54 e:/quartus_fpga_design/nios2eds/bin/gnu/h-x86_64-mingw32/bin/../lib/gcc/nios2-elf/5.3.0/mno-hw-mul\libgcc.a(_umoddi3.o)
 .debug_frame   0x0000000000002168       0x40 e:/quartus_fpga_design/nios2eds/bin/gnu/h-x86_64-mingw32/bin/../lib/gcc/nios2-elf/5.3.0/mno-hw-mul\libgcc.a(adddf3.o)
 .debug_frame   0x00000000000021a8       0x20 e:/quartus_fpga_design/nios2eds/bin/gnu/h-x86_64-mingw32/bin/../lib/gcc/nios2-elf/5.3.0/mno-hw-mul\libgcc.a(eqdf2.o)
 .debug_frame   0x00000000000021c8       0x20 e:/quartus_fpga_design/nios2eds/bin/gnu/h-x86_64-mingw32/bin/../lib/gcc/nios2-elf/5.3.0/mno-hw-mul\libgcc.a(ledf2.o)
 .debug_frame   0x00000000000021e8       0x58 e:/quartus_fpga_design/nios2eds/bin/gnu/h-x86_64-mingw32/bin/../lib/gcc/nios2-elf/5.3.0/mno-hw-mul\libgcc.a(muldf3.o)
 .debug_frame   0x0000000000002240       0x38 e:/quartus_fpga_design/nios2eds/bin/gnu/h-x86_64-mingw32/bin/../lib/gcc/nios2-elf/5.3.0/mno-hw-mul\libgcc.a(floatsidf.o)
 .debug_frame   0x0000000000002278       0x60 ../Bomberman_bsp/\libhal_bsp.a(alt_close.o)
 .debug_frame   0x00000000000022d8       0x34 ../Bomberman_bsp/\libhal_bsp.a(alt_dev.o)
 .debug_frame   0x000000000000230c       0x60 ../Bomberman_bsp/\libhal_bsp.a(alt_fstat.o)
 .debug_frame   0x000000000000236c       0x60 ../Bomberman_bsp/\libhal_bsp.a(alt_isatty.o)
 .debug_frame   0x00000000000023cc       0x5c ../Bomberman_bsp/\libhal_bsp.a(alt_load.o)
 .debug_frame   0x0000000000002428       0x60 ../Bomberman_bsp/\libhal_bsp.a(alt_lseek.o)
 .debug_frame   0x0000000000002488       0x2c ../Bomberman_bsp/\libhal_bsp.a(alt_main.o)
 .debug_frame   0x00000000000024b4       0x58 ../Bomberman_bsp/\libhal_bsp.a(alt_malloc_lock.o)
 .debug_frame   0x000000000000250c       0x60 ../Bomberman_bsp/\libhal_bsp.a(alt_read.o)
 .debug_frame   0x000000000000256c       0x3c ../Bomberman_bsp/\libhal_bsp.a(alt_release_fd.o)
 .debug_frame   0x00000000000025a8       0x34 ../Bomberman_bsp/\libhal_bsp.a(alt_sbrk.o)
 .debug_frame   0x00000000000025dc       0x60 ../Bomberman_bsp/\libhal_bsp.a(alt_times.o)
 .debug_frame   0x000000000000263c       0x38 ../Bomberman_bsp/\libhal_bsp.a(alt_usleep.o)
 .debug_frame   0x0000000000002674       0x60 ../Bomberman_bsp/\libhal_bsp.a(alt_write.o)
 .debug_frame   0x00000000000026d4       0x88 ../Bomberman_bsp/\libhal_bsp.a(alt_sys_init.o)
 .debug_frame   0x000000000000275c       0xb0 ../Bomberman_bsp/\libhal_bsp.a(altera_avalon_jtag_uart_fd.o)
 .debug_frame   0x000000000000280c       0xa4 ../Bomberman_bsp/\libhal_bsp.a(altera_avalon_jtag_uart_init.o)
 .debug_frame   0x00000000000028b0       0x34 ../Bomberman_bsp/\libhal_bsp.a(altera_avalon_jtag_uart_ioctl.o)
 .debug_frame   0x00000000000028e4       0x38 ../Bomberman_bsp/\libhal_bsp.a(altera_avalon_jtag_uart_read.o)
 .debug_frame   0x000000000000291c       0x38 ../Bomberman_bsp/\libhal_bsp.a(altera_avalon_jtag_uart_write.o)
 .debug_frame   0x0000000000002954       0x60 ../Bomberman_bsp/\libhal_bsp.a(altera_avalon_timer_sc.o)
 .debug_frame   0x00000000000029b4       0x34 ../Bomberman_bsp/\libhal_bsp.a(alt_alarm_start.o)
 .debug_frame   0x00000000000029e8       0x38 ../Bomberman_bsp/\libhal_bsp.a(alt_busy_sleep.o)
 .debug_frame   0x0000000000002a20       0x34 ../Bomberman_bsp/\libhal_bsp.a(alt_dcache_flush_all.o)
 .debug_frame   0x0000000000002a54       0x60 ../Bomberman_bsp/\libhal_bsp.a(alt_dev_llist_insert.o)
 .debug_frame   0x0000000000002ab4       0x38 ../Bomberman_bsp/\libhal_bsp.a(alt_do_ctors.o)
 .debug_frame   0x0000000000002aec       0x38 ../Bomberman_bsp/\libhal_bsp.a(alt_do_dtors.o)
 .debug_frame   0x0000000000002b24       0x34 ../Bomberman_bsp/\libhal_bsp.a(alt_icache_flush_all.o)
 .debug_frame   0x0000000000002b58       0xa4 ../Bomberman_bsp/\libhal_bsp.a(alt_iic.o)
 .debug_frame   0x0000000000002bfc       0x38 ../Bomberman_bsp/\libhal_bsp.a(alt_iic_isr_register.o)
 .debug_frame   0x0000000000002c34       0x64 ../Bomberman_bsp/\libhal_bsp.a(alt_io_redirect.o)
 .debug_frame   0x0000000000002c98       0x38 ../Bomberman_bsp/\libhal_bsp.a(alt_irq_handler.o)
 .debug_frame   0x0000000000002cd0       0x8c ../Bomberman_bsp/\libhal_bsp.a(alt_open.o)
 .debug_frame   0x0000000000002d5c       0x5c ../Bomberman_bsp/\libhal_bsp.a(alt_tick.o)
 .debug_frame   0x0000000000002db8       0x34 ../Bomberman_bsp/\libhal_bsp.a(altera_nios2_gen2_irq.o)
 .debug_frame   0x0000000000002dec       0x38 ../Bomberman_bsp/\libhal_bsp.a(alt_find_dev.o)
 .debug_frame   0x0000000000002e24       0x38 ../Bomberman_bsp/\libhal_bsp.a(alt_find_file.o)
 .debug_frame   0x0000000000002e5c       0x3c ../Bomberman_bsp/\libhal_bsp.a(alt_get_fd.o)
 .debug_frame   0x0000000000002e98       0x5c ../Bomberman_bsp/\libhal_bsp.a(alt_instruction_exception_entry.o)
 .debug_frame   0x0000000000002ef4       0x20 e:/quartus_fpga_design/nios2eds/bin/gnu/h-x86_64-mingw32/bin/../lib/gcc/nios2-elf/5.3.0/../../../../../H-x86_64-mingw32/nios2-elf/lib/mno-hw-mul\libc.a(lib_a-atexit.o)
 .debug_frame   0x0000000000002f14       0x28 e:/quartus_fpga_design/nios2eds/bin/gnu/h-x86_64-mingw32/bin/../lib/gcc/nios2-elf/5.3.0/../../../../../H-x86_64-mingw32/nios2-elf/lib/mno-hw-mul\libc.a(lib_a-exit.o)
 .debug_frame   0x0000000000002f3c       0x20 e:/quartus_fpga_design/nios2eds/bin/gnu/h-x86_64-mingw32/bin/../lib/gcc/nios2-elf/5.3.0/../../../../../H-x86_64-mingw32/nios2-elf/lib/mno-hw-mul\libc.a(lib_a-memcmp.o)
 .debug_frame   0x0000000000002f5c       0x38 e:/quartus_fpga_design/nios2eds/bin/gnu/h-x86_64-mingw32/bin/../lib/gcc/nios2-elf/5.3.0/../../../../../H-x86_64-mingw32/nios2-elf/lib/mno-hw-mul\libc.a(lib_a-__atexit.o)
 .debug_frame   0x0000000000002f94       0x54 e:/quartus_fpga_design/nios2eds/bin/gnu/h-x86_64-mingw32/bin/../lib/gcc/nios2-elf/5.3.0/../../../../../H-x86_64-mingw32/nios2-elf/lib/mno-hw-mul\libc.a(lib_a-__call_atexit.o)
 .debug_frame   0x0000000000002fe8       0x2c ../Bomberman_bsp/\libhal_bsp.a(alt_exit.o)

.debug_str      0x0000000000000000     0x4230
 *(.debug_str)
 .debug_str     0x0000000000000000      0x128 obj/default/INIT.o
                                        0x166 (size before relaxing)
 .debug_str     0x0000000000000128       0xc0 obj/default/LEDandHEX.o
                                        0x1bb (size before relaxing)
 .debug_str     0x00000000000001e8       0xae obj/default/USB_Keyboard_Driver.o
                                        0x20d (size before relaxing)
 .debug_str     0x0000000000000296       0x48 obj/default/USB_Keyboard_Driver_Sup/io_handler.o
                                        0x1b9 (size before relaxing)
 .debug_str     0x00000000000002de       0xfb obj/default/USB_Keyboard_Driver_Sup/usb.o
                                        0x27b (size before relaxing)
 .debug_str     0x00000000000003d9       0x7e obj/default/audio_driver.o
                                        0x1dd (size before relaxing)
 .debug_str     0x0000000000000457       0x4a obj/default/coins.o
                                        0x1c0 (size before relaxing)
 .debug_str     0x00000000000004a1       0x8e obj/default/draw_driver.o
                                        0x1e8 (size before relaxing)
 .debug_str     0x000000000000052f       0xc1 obj/default/drawing.o
                                        0x2ce (size before relaxing)
 .debug_str     0x00000000000005f0        0xc obj/default/ed.o
                                        0x17d (size before relaxing)
 .debug_str     0x00000000000005fc      0x11b obj/default/game.o
                                        0x35c (size before relaxing)
 .debug_str     0x0000000000000717        0x6 obj/default/main.o
                                        0x191 (size before relaxing)
 .debug_str     0x000000000000071d       0x20 obj/default/op.o
                                        0x196 (size before relaxing)
 .debug_str     0x000000000000073d       0x6b obj/default/readKey.o
                                        0x141 (size before relaxing)
 .debug_str     0x00000000000007a8       0x35 obj/default/transition.o
                                        0x19c (size before relaxing)
 .debug_str     0x00000000000007dd      0x162 e:/quartus_fpga_design/nios2eds/bin/gnu/h-x86_64-mingw32/bin/../lib/gcc/nios2-elf/5.3.0/mno-hw-mul\libgcc.a(_fixunsdfsi.o)
                                        0x1eb (size before relaxing)
 .debug_str     0x000000000000093f       0x7f e:/quartus_fpga_design/nios2eds/bin/gnu/h-x86_64-mingw32/bin/../lib/gcc/nios2-elf/5.3.0/mno-hw-mul\libgcc.a(lib2-divmod.o)
                                        0x1d2 (size before relaxing)
 .debug_str     0x00000000000009be       0x40 e:/quartus_fpga_design/nios2eds/bin/gnu/h-x86_64-mingw32/bin/../lib/gcc/nios2-elf/5.3.0/mno-hw-mul\libgcc.a(lib2-mul.o)
                                        0x193 (size before relaxing)
 .debug_str     0x00000000000009fe      0x1cf e:/quartus_fpga_design/nios2eds/bin/gnu/h-x86_64-mingw32/bin/../lib/gcc/nios2-elf/5.3.0/mno-hw-mul\libgcc.a(divdf3.o)
                                        0x361 (size before relaxing)
 .debug_str     0x0000000000000bcd       0x5b e:/quartus_fpga_design/nios2eds/bin/gnu/h-x86_64-mingw32/bin/../lib/gcc/nios2-elf/5.3.0/mno-hw-mul\libgcc.a(gedf2.o)
                                        0x233 (size before relaxing)
 .debug_str     0x0000000000000c28       0xaf e:/quartus_fpga_design/nios2eds/bin/gnu/h-x86_64-mingw32/bin/../lib/gcc/nios2-elf/5.3.0/mno-hw-mul\libgcc.a(subdf3.o)
                                        0x2a9 (size before relaxing)
 .debug_str     0x0000000000000cd7       0x4e e:/quartus_fpga_design/nios2eds/bin/gnu/h-x86_64-mingw32/bin/../lib/gcc/nios2-elf/5.3.0/mno-hw-mul\libgcc.a(fixdfsi.o)
                                        0x22b (size before relaxing)
 .debug_str     0x0000000000000d25       0x70 e:/quartus_fpga_design/nios2eds/bin/gnu/h-x86_64-mingw32/bin/../lib/gcc/nios2-elf/5.3.0/mno-hw-mul\libgcc.a(floatunsidf.o)
                                        0x23f (size before relaxing)
 .debug_str     0x0000000000000d95       0x20 e:/quartus_fpga_design/nios2eds/bin/gnu/h-x86_64-mingw32/bin/../lib/gcc/nios2-elf/5.3.0/mno-hw-mul\libgcc.a(_clzsi2.o)
                                        0x200 (size before relaxing)
 .debug_str     0x0000000000000db5      0x1e3 e:/quartus_fpga_design/nios2eds/bin/gnu/h-x86_64-mingw32/bin/../lib/gcc/nios2-elf/5.3.0/mno-hw-mul\libgcc.a(_clz.o)
 .debug_str     0x0000000000000db5      0x4b4 e:/quartus_fpga_design/nios2eds/bin/gnu/h-x86_64-mingw32/bin/../lib/gcc/nios2-elf/5.3.0/../../../../../H-x86_64-mingw32/nios2-elf/lib/mno-hw-mul\libc.a(lib_a-clock.o)
                                        0x5da (size before relaxing)
 .debug_str     0x0000000000001269       0xe9 e:/quartus_fpga_design/nios2eds/bin/gnu/h-x86_64-mingw32/bin/../lib/gcc/nios2-elf/5.3.0/../../../../../H-x86_64-mingw32/nios2-elf/lib/mno-hw-mul\libc.a(lib_a-impure.o)
                                        0x5b5 (size before relaxing)
 .debug_str     0x0000000000001352       0xea e:/quartus_fpga_design/nios2eds/bin/gnu/h-x86_64-mingw32/bin/../lib/gcc/nios2-elf/5.3.0/../../../../../H-x86_64-mingw32/nios2-elf/lib/mno-hw-mul\libc.a(lib_a-malloc.o)
                                        0x5c9 (size before relaxing)
 .debug_str     0x000000000000143c      0x226 e:/quartus_fpga_design/nios2eds/bin/gnu/h-x86_64-mingw32/bin/../lib/gcc/nios2-elf/5.3.0/../../../../../H-x86_64-mingw32/nios2-elf/lib/mno-hw-mul\libc.a(lib_a-mallocr.o)
                                        0x7ba (size before relaxing)
 .debug_str     0x0000000000001662      0x120 e:/quartus_fpga_design/nios2eds/bin/gnu/h-x86_64-mingw32/bin/../lib/gcc/nios2-elf/5.3.0/../../../../../H-x86_64-mingw32/nios2-elf/lib/mno-hw-mul\libc.a(lib_a-printf.o)
                                        0x5fb (size before relaxing)
 .debug_str     0x0000000000001782       0xaf e:/quartus_fpga_design/nios2eds/bin/gnu/h-x86_64-mingw32/bin/../lib/gcc/nios2-elf/5.3.0/../../../../../H-x86_64-mingw32/nios2-elf/lib/mno-hw-mul\libc.a(lib_a-puts.o)
                                        0x61c (size before relaxing)
 .debug_str     0x0000000000001831       0x41 e:/quartus_fpga_design/nios2eds/bin/gnu/h-x86_64-mingw32/bin/../lib/gcc/nios2-elf/5.3.0/../../../../../H-x86_64-mingw32/nios2-elf/lib/mno-hw-mul\libc.a(lib_a-rand.o)
                                        0x5ac (size before relaxing)
 .debug_str     0x0000000000001872       0x4f e:/quartus_fpga_design/nios2eds/bin/gnu/h-x86_64-mingw32/bin/../lib/gcc/nios2-elf/5.3.0/../../../../../H-x86_64-mingw32/nios2-elf/lib/mno-hw-mul\libc.a(lib_a-sbrkr.o)
                                        0x5ab (size before relaxing)
 .debug_str     0x00000000000018c1       0xd9 e:/quartus_fpga_design/nios2eds/bin/gnu/h-x86_64-mingw32/bin/../lib/gcc/nios2-elf/5.3.0/../../../../../H-x86_64-mingw32/nios2-elf/lib/mno-hw-mul\libc.a(lib_a-strlen.o)
                                        0x1f7 (size before relaxing)
 .debug_str     0x000000000000199a       0x47 e:/quartus_fpga_design/nios2eds/bin/gnu/h-x86_64-mingw32/bin/../lib/gcc/nios2-elf/5.3.0/../../../../../H-x86_64-mingw32/nios2-elf/lib/mno-hw-mul\libc.a(lib_a-timesr.o)
                                        0x5d0 (size before relaxing)
 .debug_str     0x00000000000019e1      0x231 e:/quartus_fpga_design/nios2eds/bin/gnu/h-x86_64-mingw32/bin/../lib/gcc/nios2-elf/5.3.0/../../../../../H-x86_64-mingw32/nios2-elf/lib/mno-hw-mul\libc.a(lib_a-vfprintf.o)
                                        0x83d (size before relaxing)
 .debug_str     0x0000000000001c12       0x49 e:/quartus_fpga_design/nios2eds/bin/gnu/h-x86_64-mingw32/bin/../lib/gcc/nios2-elf/5.3.0/../../../../../H-x86_64-mingw32/nios2-elf/lib/mno-hw-mul\libc.a(lib_a-wsetup.o)
                                        0x5d4 (size before relaxing)
 .debug_str     0x0000000000001c5b      0x160 e:/quartus_fpga_design/nios2eds/bin/gnu/h-x86_64-mingw32/bin/../lib/gcc/nios2-elf/5.3.0/../../../../../H-x86_64-mingw32/nios2-elf/lib/mno-hw-mul\libc.a(lib_a-dtoa.o)
                                        0x6f4 (size before relaxing)
 .debug_str     0x0000000000001dbb       0x6c e:/quartus_fpga_design/nios2eds/bin/gnu/h-x86_64-mingw32/bin/../lib/gcc/nios2-elf/5.3.0/../../../../../H-x86_64-mingw32/nios2-elf/lib/mno-hw-mul\libc.a(lib_a-fflush.o)
                                        0x615 (size before relaxing)
 .debug_str     0x0000000000001e27      0x11c e:/quartus_fpga_design/nios2eds/bin/gnu/h-x86_64-mingw32/bin/../lib/gcc/nios2-elf/5.3.0/../../../../../H-x86_64-mingw32/nios2-elf/lib/mno-hw-mul\libc.a(lib_a-findfp.o)
                                        0x6cb (size before relaxing)
 .debug_str     0x0000000000001f43       0x34 e:/quartus_fpga_design/nios2eds/bin/gnu/h-x86_64-mingw32/bin/../lib/gcc/nios2-elf/5.3.0/../../../../../H-x86_64-mingw32/nios2-elf/lib/mno-hw-mul\libc.a(lib_a-freer.o)
                                        0x704 (size before relaxing)
 .debug_str     0x0000000000001f77       0x6e e:/quartus_fpga_design/nios2eds/bin/gnu/h-x86_64-mingw32/bin/../lib/gcc/nios2-elf/5.3.0/../../../../../H-x86_64-mingw32/nios2-elf/lib/mno-hw-mul\libc.a(lib_a-fvwrite.o)
                                        0x647 (size before relaxing)
 .debug_str     0x0000000000001fe5       0x4a e:/quartus_fpga_design/nios2eds/bin/gnu/h-x86_64-mingw32/bin/../lib/gcc/nios2-elf/5.3.0/../../../../../H-x86_64-mingw32/nios2-elf/lib/mno-hw-mul\libc.a(lib_a-fwalk.o)
                                        0x5ba (size before relaxing)
 .debug_str     0x000000000000202f       0x3f e:/quartus_fpga_design/nios2eds/bin/gnu/h-x86_64-mingw32/bin/../lib/gcc/nios2-elf/5.3.0/../../../../../H-x86_64-mingw32/nios2-elf/lib/mno-hw-mul\libc.a(lib_a-int_errno.o)
                                        0x1dd (size before relaxing)
 .debug_str     0x000000000000206e      0x2a0 e:/quartus_fpga_design/nios2eds/bin/gnu/h-x86_64-mingw32/bin/../lib/gcc/nios2-elf/5.3.0/../../../../../H-x86_64-mingw32/nios2-elf/lib/mno-hw-mul\libc.a(lib_a-locale.o)
                                        0x812 (size before relaxing)
 .debug_str     0x000000000000230e      0x124 e:/quartus_fpga_design/nios2eds/bin/gnu/h-x86_64-mingw32/bin/../lib/gcc/nios2-elf/5.3.0/../../../../../H-x86_64-mingw32/nios2-elf/lib/mno-hw-mul\libc.a(lib_a-makebuf.o)
                                        0x6b7 (size before relaxing)
 .debug_str     0x0000000000002432       0x4b e:/quartus_fpga_design/nios2eds/bin/gnu/h-x86_64-mingw32/bin/../lib/gcc/nios2-elf/5.3.0/../../../../../H-x86_64-mingw32/nios2-elf/lib/mno-hw-mul\libc.a(lib_a-memchr.o)
                                        0x1fe (size before relaxing)
 .debug_str     0x000000000000247d       0x64 e:/quartus_fpga_design/nios2eds/bin/gnu/h-x86_64-mingw32/bin/../lib/gcc/nios2-elf/5.3.0/../../../../../H-x86_64-mingw32/nios2-elf/lib/mno-hw-mul\libc.a(lib_a-memcpy.o)
                                        0x20b (size before relaxing)
 .debug_str     0x00000000000024e1       0x47 e:/quartus_fpga_design/nios2eds/bin/gnu/h-x86_64-mingw32/bin/../lib/gcc/nios2-elf/5.3.0/../../../../../H-x86_64-mingw32/nios2-elf/lib/mno-hw-mul\libc.a(lib_a-memmove.o)
                                        0x217 (size before relaxing)
 .debug_str     0x0000000000002528       0x3d e:/quartus_fpga_design/nios2eds/bin/gnu/h-x86_64-mingw32/bin/../lib/gcc/nios2-elf/5.3.0/../../../../../H-x86_64-mingw32/nios2-elf/lib/mno-hw-mul\libc.a(lib_a-memset.o)
                                        0x1f8 (size before relaxing)
 .debug_str     0x0000000000002565       0xa7 e:/quartus_fpga_design/nios2eds/bin/gnu/h-x86_64-mingw32/bin/../lib/gcc/nios2-elf/5.3.0/../../../../../H-x86_64-mingw32/nios2-elf/lib/mno-hw-mul\libc.a(lib_a-mprec.o)
                                        0x6ae (size before relaxing)
 .debug_str     0x000000000000260c       0x49 e:/quartus_fpga_design/nios2eds/bin/gnu/h-x86_64-mingw32/bin/../lib/gcc/nios2-elf/5.3.0/../../../../../H-x86_64-mingw32/nios2-elf/lib/mno-hw-mul\libc.a(lib_a-reallocr.o)
                                        0x696 (size before relaxing)
 .debug_str     0x0000000000002655       0xd2 e:/quartus_fpga_design/nios2eds/bin/gnu/h-x86_64-mingw32/bin/../lib/gcc/nios2-elf/5.3.0/../../../../../H-x86_64-mingw32/nios2-elf/lib/mno-hw-mul\libc.a(lib_a-s_fpclassify.o)
                                        0x202 (size before relaxing)
 .debug_str     0x0000000000002727       0x9b e:/quartus_fpga_design/nios2eds/bin/gnu/h-x86_64-mingw32/bin/../lib/gcc/nios2-elf/5.3.0/../../../../../H-x86_64-mingw32/nios2-elf/lib/mno-hw-mul\libc.a(lib_a-stdio.o)
                                        0x609 (size before relaxing)
 .debug_str     0x00000000000027c2       0x3d e:/quartus_fpga_design/nios2eds/bin/gnu/h-x86_64-mingw32/bin/../lib/gcc/nios2-elf/5.3.0/../../../../../H-x86_64-mingw32/nios2-elf/lib/mno-hw-mul\libc.a(lib_a-strcmp.o)
                                        0x1dd (size before relaxing)
 .debug_str     0x00000000000027ff       0x3f e:/quartus_fpga_design/nios2eds/bin/gnu/h-x86_64-mingw32/bin/../lib/gcc/nios2-elf/5.3.0/../../../../../H-x86_64-mingw32/nios2-elf/lib/mno-hw-mul\libc.a(lib_a-vfiprintf.o)
                                        0x791 (size before relaxing)
 .debug_str     0x000000000000283e       0x3c e:/quartus_fpga_design/nios2eds/bin/gnu/h-x86_64-mingw32/bin/../lib/gcc/nios2-elf/5.3.0/../../../../../H-x86_64-mingw32/nios2-elf/lib/mno-hw-mul\libc.a(lib_a-writer.o)
                                        0x5af (size before relaxing)
 .debug_str     0x000000000000287a       0x3c e:/quartus_fpga_design/nios2eds/bin/gnu/h-x86_64-mingw32/bin/../lib/gcc/nios2-elf/5.3.0/../../../../../H-x86_64-mingw32/nios2-elf/lib/mno-hw-mul\libc.a(closer.o)
                                        0x59f (size before relaxing)
 .debug_str     0x00000000000028b6        0xf e:/quartus_fpga_design/nios2eds/bin/gnu/h-x86_64-mingw32/bin/../lib/gcc/nios2-elf/5.3.0/../../../../../H-x86_64-mingw32/nios2-elf/lib/mno-hw-mul\libc.a(lib_a-callocr.o)
                                        0x5ee (size before relaxing)
 .debug_str     0x00000000000028c5       0x4d e:/quartus_fpga_design/nios2eds/bin/gnu/h-x86_64-mingw32/bin/../lib/gcc/nios2-elf/5.3.0/../../../../../H-x86_64-mingw32/nios2-elf/lib/mno-hw-mul\libc.a(lib_a-fclose.o)
                                        0x602 (size before relaxing)
 .debug_str     0x0000000000002912       0x5a e:/quartus_fpga_design/nios2eds/bin/gnu/h-x86_64-mingw32/bin/../lib/gcc/nios2-elf/5.3.0/../../../../../H-x86_64-mingw32/nios2-elf/lib/mno-hw-mul\libc.a(lib_a-fputwc.o)
                                        0x606 (size before relaxing)
 .debug_str     0x000000000000296c       0x48 e:/quartus_fpga_design/nios2eds/bin/gnu/h-x86_64-mingw32/bin/../lib/gcc/nios2-elf/5.3.0/../../../../../H-x86_64-mingw32/nios2-elf/lib/mno-hw-mul\libc.a(lib_a-fstatr.o)
                                        0x68b (size before relaxing)
 .debug_str     0x00000000000029b4       0x44 e:/quartus_fpga_design/nios2eds/bin/gnu/h-x86_64-mingw32/bin/../lib/gcc/nios2-elf/5.3.0/../../../../../H-x86_64-mingw32/nios2-elf/lib/mno-hw-mul\libc.a(lib_a-isattyr.o)
                                        0x5a2 (size before relaxing)
 .debug_str     0x00000000000029f8       0x42 e:/quartus_fpga_design/nios2eds/bin/gnu/h-x86_64-mingw32/bin/../lib/gcc/nios2-elf/5.3.0/../../../../../H-x86_64-mingw32/nios2-elf/lib/mno-hw-mul\libc.a(lib_a-lseekr.o)
                                        0x5a6 (size before relaxing)
 .debug_str     0x0000000000002a3a       0x3b e:/quartus_fpga_design/nios2eds/bin/gnu/h-x86_64-mingw32/bin/../lib/gcc/nios2-elf/5.3.0/../../../../../H-x86_64-mingw32/nios2-elf/lib/mno-hw-mul\libc.a(lib_a-readr.o)
                                        0x5ac (size before relaxing)
 .debug_str     0x0000000000002a75       0x42 e:/quartus_fpga_design/nios2eds/bin/gnu/h-x86_64-mingw32/bin/../lib/gcc/nios2-elf/5.3.0/../../../../../H-x86_64-mingw32/nios2-elf/lib/mno-hw-mul\libc.a(lib_a-wbuf.o)
                                        0x5d9 (size before relaxing)
 .debug_str     0x0000000000002ab7       0x56 e:/quartus_fpga_design/nios2eds/bin/gnu/h-x86_64-mingw32/bin/../lib/gcc/nios2-elf/5.3.0/../../../../../H-x86_64-mingw32/nios2-elf/lib/mno-hw-mul\libc.a(lib_a-wcrtomb.o)
                                        0x5ec (size before relaxing)
 .debug_str     0x0000000000002b0d       0x5f e:/quartus_fpga_design/nios2eds/bin/gnu/h-x86_64-mingw32/bin/../lib/gcc/nios2-elf/5.3.0/../../../../../H-x86_64-mingw32/nios2-elf/lib/mno-hw-mul\libc.a(lib_a-wctomb_r.o)
                                        0x5f5 (size before relaxing)
 .debug_str     0x0000000000002b6c       0x1f e:/quartus_fpga_design/nios2eds/bin/gnu/h-x86_64-mingw32/bin/../lib/gcc/nios2-elf/5.3.0/mno-hw-mul\libgcc.a(_muldi3.o)
                                        0x225 (size before relaxing)
 .debug_str     0x0000000000002b8b       0xc2 e:/quartus_fpga_design/nios2eds/bin/gnu/h-x86_64-mingw32/bin/../lib/gcc/nios2-elf/5.3.0/mno-hw-mul\libgcc.a(_udivdi3.o)
                                        0x29c (size before relaxing)
 .debug_str     0x0000000000002c4d        0xa e:/quartus_fpga_design/nios2eds/bin/gnu/h-x86_64-mingw32/bin/../lib/gcc/nios2-elf/5.3.0/mno-hw-mul\libgcc.a(_umoddi3.o)
                                        0x29c (size before relaxing)
 .debug_str     0x0000000000002c57       0x39 e:/quartus_fpga_design/nios2eds/bin/gnu/h-x86_64-mingw32/bin/../lib/gcc/nios2-elf/5.3.0/mno-hw-mul\libgcc.a(adddf3.o)
                                        0x2a9 (size before relaxing)
 .debug_str     0x0000000000002c90       0x37 e:/quartus_fpga_design/nios2eds/bin/gnu/h-x86_64-mingw32/bin/../lib/gcc/nios2-elf/5.3.0/mno-hw-mul\libgcc.a(eqdf2.o)
                                        0x20f (size before relaxing)
 .debug_str     0x0000000000002cc7       0x37 e:/quartus_fpga_design/nios2eds/bin/gnu/h-x86_64-mingw32/bin/../lib/gcc/nios2-elf/5.3.0/mno-hw-mul\libgcc.a(ledf2.o)
                                        0x233 (size before relaxing)
 .debug_str     0x0000000000002cfe      0x15e e:/quartus_fpga_design/nios2eds/bin/gnu/h-x86_64-mingw32/bin/../lib/gcc/nios2-elf/5.3.0/mno-hw-mul\libgcc.a(muldf3.o)
                                        0x3c2 (size before relaxing)
 .debug_str     0x0000000000002e5c       0x3f e:/quartus_fpga_design/nios2eds/bin/gnu/h-x86_64-mingw32/bin/../lib/gcc/nios2-elf/5.3.0/mno-hw-mul\libgcc.a(floatsidf.o)
                                        0x242 (size before relaxing)
 .debug_str     0x0000000000002e9b      0x121 ../Bomberman_bsp/\libhal_bsp.a(alt_close.o)
                                        0x248 (size before relaxing)
 .debug_str     0x0000000000002fbc       0x50 ../Bomberman_bsp/\libhal_bsp.a(alt_dev.o)
                                        0x342 (size before relaxing)
 .debug_str     0x000000000000300c       0x14 ../Bomberman_bsp/\libhal_bsp.a(alt_errno.o)
                                        0x182 (size before relaxing)
 .debug_str     0x0000000000003020       0x14 ../Bomberman_bsp/\libhal_bsp.a(alt_fstat.o)
                                        0x329 (size before relaxing)
 .debug_str     0x0000000000003034       0x15 ../Bomberman_bsp/\libhal_bsp.a(alt_isatty.o)
                                        0x331 (size before relaxing)
 .debug_str     0x0000000000003049       0xf1 ../Bomberman_bsp/\libhal_bsp.a(alt_load.o)
                                        0x24f (size before relaxing)
 .debug_str     0x000000000000313a       0x14 ../Bomberman_bsp/\libhal_bsp.a(alt_lseek.o)
                                        0x24e (size before relaxing)
 .debug_str     0x000000000000314e       0x44 ../Bomberman_bsp/\libhal_bsp.a(alt_main.o)
                                        0x1da (size before relaxing)
 .debug_str     0x0000000000003192       0x1a ../Bomberman_bsp/\libhal_bsp.a(alt_malloc_lock.o)
                                        0x54c (size before relaxing)
 .debug_str     0x00000000000031ac       0x13 ../Bomberman_bsp/\libhal_bsp.a(alt_read.o)
                                        0x334 (size before relaxing)
 .debug_str     0x00000000000031bf       0x28 ../Bomberman_bsp/\libhal_bsp.a(alt_release_fd.o)
                                        0x210 (size before relaxing)
 .debug_str     0x00000000000031e7       0x98 ../Bomberman_bsp/\libhal_bsp.a(alt_sbrk.o)
                                        0x211 (size before relaxing)
 .debug_str     0x000000000000327f       0x44 ../Bomberman_bsp/\libhal_bsp.a(alt_times.o)
                                        0x211 (size before relaxing)
 .debug_str     0x00000000000032c3       0x27 ../Bomberman_bsp/\libhal_bsp.a(alt_usleep.o)
                                        0x185 (size before relaxing)
 .debug_str     0x00000000000032ea       0x14 ../Bomberman_bsp/\libhal_bsp.a(alt_write.o)
                                        0x335 (size before relaxing)
 .debug_str     0x00000000000032fe      0x172 ../Bomberman_bsp/\libhal_bsp.a(alt_sys_init.o)
                                        0x3cd (size before relaxing)
 .debug_str     0x0000000000003470       0xac ../Bomberman_bsp/\libhal_bsp.a(altera_avalon_jtag_uart_fd.o)
                                        0x3e1 (size before relaxing)
 .debug_str     0x000000000000351c       0xbc ../Bomberman_bsp/\libhal_bsp.a(altera_avalon_jtag_uart_init.o)
                                        0x375 (size before relaxing)
 .debug_str     0x00000000000035d8       0x4a ../Bomberman_bsp/\libhal_bsp.a(altera_avalon_jtag_uart_ioctl.o)
                                        0x2d0 (size before relaxing)
 .debug_str     0x0000000000003622       0x48 ../Bomberman_bsp/\libhal_bsp.a(altera_avalon_jtag_uart_read.o)
                                        0x325 (size before relaxing)
 .debug_str     0x000000000000366a       0x4a ../Bomberman_bsp/\libhal_bsp.a(altera_avalon_jtag_uart_write.o)
                                        0x326 (size before relaxing)
 .debug_str     0x00000000000036b4       0x6d ../Bomberman_bsp/\libhal_bsp.a(altera_avalon_timer_sc.o)
                                        0x288 (size before relaxing)
 .debug_str     0x0000000000003721       0x59 ../Bomberman_bsp/\libhal_bsp.a(alt_alarm_start.o)
                                        0x2bb (size before relaxing)
 .debug_str     0x000000000000377a       0x42 ../Bomberman_bsp/\libhal_bsp.a(alt_busy_sleep.o)
                                        0x1a8 (size before relaxing)
 .debug_str     0x00000000000037bc       0x34 ../Bomberman_bsp/\libhal_bsp.a(alt_dcache_flush_all.o)
                                        0x192 (size before relaxing)
 .debug_str     0x00000000000037f0       0x34 ../Bomberman_bsp/\libhal_bsp.a(alt_dev_llist_insert.o)
                                        0x209 (size before relaxing)
 .debug_str     0x0000000000003824       0x48 ../Bomberman_bsp/\libhal_bsp.a(alt_do_ctors.o)
                                        0x10d (size before relaxing)
 .debug_str     0x000000000000386c       0x4c ../Bomberman_bsp/\libhal_bsp.a(alt_do_dtors.o)
                                        0x10c (size before relaxing)
 .debug_str     0x00000000000038b8       0x34 ../Bomberman_bsp/\libhal_bsp.a(alt_icache_flush_all.o)
                                        0x192 (size before relaxing)
 .debug_str     0x00000000000038ec       0xc4 ../Bomberman_bsp/\libhal_bsp.a(alt_iic.o)
                                        0x27b (size before relaxing)
 .debug_str     0x00000000000039b0       0x4c ../Bomberman_bsp/\libhal_bsp.a(alt_iic_isr_register.o)
                                        0x225 (size before relaxing)
 .debug_str     0x00000000000039fc       0x56 ../Bomberman_bsp/\libhal_bsp.a(alt_io_redirect.o)
                                        0x353 (size before relaxing)
 .debug_str     0x0000000000003a52       0x3a ../Bomberman_bsp/\libhal_bsp.a(alt_irq_handler.o)
                                        0x1d4 (size before relaxing)
 .debug_str     0x0000000000003a8c       0x17 ../Bomberman_bsp/\libhal_bsp.a(alt_irq_vars.o)
                                        0x177 (size before relaxing)
 .debug_str     0x0000000000003aa3       0x29 ../Bomberman_bsp/\libhal_bsp.a(alt_open.o)
                                        0x288 (size before relaxing)
 .debug_str     0x0000000000003acc       0x4a ../Bomberman_bsp/\libhal_bsp.a(alt_tick.o)
                                        0x28f (size before relaxing)
 .debug_str     0x0000000000003b16       0x3b ../Bomberman_bsp/\libhal_bsp.a(altera_nios2_gen2_irq.o)
                                        0x199 (size before relaxing)
 .debug_str     0x0000000000003b51       0x24 ../Bomberman_bsp/\libhal_bsp.a(alt_find_dev.o)
                                        0x229 (size before relaxing)
 .debug_str     0x0000000000003b75       0x26 ../Bomberman_bsp/\libhal_bsp.a(alt_find_file.o)
                                        0x237 (size before relaxing)
 .debug_str     0x0000000000003b9b       0x30 ../Bomberman_bsp/\libhal_bsp.a(alt_get_fd.o)
                                        0x259 (size before relaxing)
 .debug_str     0x0000000000003bcb      0x48b ../Bomberman_bsp/\libhal_bsp.a(alt_instruction_exception_entry.o)
                                        0x5dd (size before relaxing)
 .debug_str     0x0000000000004056       0x81 e:/quartus_fpga_design/nios2eds/bin/gnu/h-x86_64-mingw32/bin/../lib/gcc/nios2-elf/5.3.0/../../../../../H-x86_64-mingw32/nios2-elf/lib/mno-hw-mul\libc.a(lib_a-atexit.o)
                                        0x221 (size before relaxing)
 .debug_str     0x00000000000040d7       0x4c e:/quartus_fpga_design/nios2eds/bin/gnu/h-x86_64-mingw32/bin/../lib/gcc/nios2-elf/5.3.0/../../../../../H-x86_64-mingw32/nios2-elf/lib/mno-hw-mul\libc.a(lib_a-exit.o)
                                        0x5be (size before relaxing)
 .debug_str     0x0000000000004123       0x44 e:/quartus_fpga_design/nios2eds/bin/gnu/h-x86_64-mingw32/bin/../lib/gcc/nios2-elf/5.3.0/../../../../../H-x86_64-mingw32/nios2-elf/lib/mno-hw-mul\libc.a(lib_a-memcmp.o)
                                        0x1e4 (size before relaxing)
 .debug_str     0x0000000000004167       0x3f e:/quartus_fpga_design/nios2eds/bin/gnu/h-x86_64-mingw32/bin/../lib/gcc/nios2-elf/5.3.0/../../../../../H-x86_64-mingw32/nios2-elf/lib/mno-hw-mul\libc.a(lib_a-__atexit.o)
                                        0x5f6 (size before relaxing)
 .debug_str     0x00000000000041a6       0x60 e:/quartus_fpga_design/nios2eds/bin/gnu/h-x86_64-mingw32/bin/../lib/gcc/nios2-elf/5.3.0/../../../../../H-x86_64-mingw32/nios2-elf/lib/mno-hw-mul\libc.a(lib_a-__call_atexit.o)
                                        0x5e2 (size before relaxing)
 .debug_str     0x0000000000004206       0x2a ../Bomberman_bsp/\libhal_bsp.a(alt_exit.o)
                                        0x18e (size before relaxing)

.debug_loc      0x0000000000000000    0x17abc
 *(.debug_loc)
 .debug_loc     0x0000000000000000       0x28 e:/quartus_fpga_design/nios2eds/bin/gnu/h-x86_64-mingw32/bin/../lib/gcc/nios2-elf/5.3.0/mno-hw-mul\libgcc.a(_fixunsdfsi.o)
 .debug_loc     0x0000000000000028      0x4ce e:/quartus_fpga_design/nios2eds/bin/gnu/h-x86_64-mingw32/bin/../lib/gcc/nios2-elf/5.3.0/mno-hw-mul\libgcc.a(lib2-divmod.o)
 .debug_loc     0x00000000000004f6       0x93 e:/quartus_fpga_design/nios2eds/bin/gnu/h-x86_64-mingw32/bin/../lib/gcc/nios2-elf/5.3.0/mno-hw-mul\libgcc.a(lib2-mul.o)
 .debug_loc     0x0000000000000589     0x1c20 e:/quartus_fpga_design/nios2eds/bin/gnu/h-x86_64-mingw32/bin/../lib/gcc/nios2-elf/5.3.0/mno-hw-mul\libgcc.a(divdf3.o)
 .debug_loc     0x00000000000021a9       0xf9 e:/quartus_fpga_design/nios2eds/bin/gnu/h-x86_64-mingw32/bin/../lib/gcc/nios2-elf/5.3.0/mno-hw-mul\libgcc.a(gedf2.o)
 .debug_loc     0x00000000000022a2     0x1627 e:/quartus_fpga_design/nios2eds/bin/gnu/h-x86_64-mingw32/bin/../lib/gcc/nios2-elf/5.3.0/mno-hw-mul\libgcc.a(subdf3.o)
 .debug_loc     0x00000000000038c9      0x121 e:/quartus_fpga_design/nios2eds/bin/gnu/h-x86_64-mingw32/bin/../lib/gcc/nios2-elf/5.3.0/mno-hw-mul\libgcc.a(fixdfsi.o)
 .debug_loc     0x00000000000039ea      0x19e e:/quartus_fpga_design/nios2eds/bin/gnu/h-x86_64-mingw32/bin/../lib/gcc/nios2-elf/5.3.0/mno-hw-mul\libgcc.a(floatunsidf.o)
 .debug_loc     0x0000000000003b88       0x6b e:/quartus_fpga_design/nios2eds/bin/gnu/h-x86_64-mingw32/bin/../lib/gcc/nios2-elf/5.3.0/mno-hw-mul\libgcc.a(_clzsi2.o)
 .debug_loc     0x0000000000003bf3       0x1e e:/quartus_fpga_design/nios2eds/bin/gnu/h-x86_64-mingw32/bin/../lib/gcc/nios2-elf/5.3.0/../../../../../H-x86_64-mingw32/nios2-elf/lib/mno-hw-mul\libc.a(lib_a-clock.o)
 .debug_loc     0x0000000000003c11       0x58 e:/quartus_fpga_design/nios2eds/bin/gnu/h-x86_64-mingw32/bin/../lib/gcc/nios2-elf/5.3.0/../../../../../H-x86_64-mingw32/nios2-elf/lib/mno-hw-mul\libc.a(lib_a-malloc.o)
 .debug_loc     0x0000000000003c69      0xb1b e:/quartus_fpga_design/nios2eds/bin/gnu/h-x86_64-mingw32/bin/../lib/gcc/nios2-elf/5.3.0/../../../../../H-x86_64-mingw32/nios2-elf/lib/mno-hw-mul\libc.a(lib_a-mallocr.o)
 .debug_loc     0x0000000000004784       0xd3 e:/quartus_fpga_design/nios2eds/bin/gnu/h-x86_64-mingw32/bin/../lib/gcc/nios2-elf/5.3.0/../../../../../H-x86_64-mingw32/nios2-elf/lib/mno-hw-mul\libc.a(lib_a-printf.o)
 .debug_loc     0x0000000000004857      0x117 e:/quartus_fpga_design/nios2eds/bin/gnu/h-x86_64-mingw32/bin/../lib/gcc/nios2-elf/5.3.0/../../../../../H-x86_64-mingw32/nios2-elf/lib/mno-hw-mul\libc.a(lib_a-puts.o)
 .debug_loc     0x000000000000496e       0x13 e:/quartus_fpga_design/nios2eds/bin/gnu/h-x86_64-mingw32/bin/../lib/gcc/nios2-elf/5.3.0/../../../../../H-x86_64-mingw32/nios2-elf/lib/mno-hw-mul\libc.a(lib_a-rand.o)
 .debug_loc     0x0000000000004981       0x58 e:/quartus_fpga_design/nios2eds/bin/gnu/h-x86_64-mingw32/bin/../lib/gcc/nios2-elf/5.3.0/../../../../../H-x86_64-mingw32/nios2-elf/lib/mno-hw-mul\libc.a(lib_a-sbrkr.o)
 .debug_loc     0x00000000000049d9       0x47 e:/quartus_fpga_design/nios2eds/bin/gnu/h-x86_64-mingw32/bin/../lib/gcc/nios2-elf/5.3.0/../../../../../H-x86_64-mingw32/nios2-elf/lib/mno-hw-mul\libc.a(lib_a-strlen.o)
 .debug_loc     0x0000000000004a20       0x42 e:/quartus_fpga_design/nios2eds/bin/gnu/h-x86_64-mingw32/bin/../lib/gcc/nios2-elf/5.3.0/../../../../../H-x86_64-mingw32/nios2-elf/lib/mno-hw-mul\libc.a(lib_a-timesr.o)
 .debug_loc     0x0000000000004a62     0x32a2 e:/quartus_fpga_design/nios2eds/bin/gnu/h-x86_64-mingw32/bin/../lib/gcc/nios2-elf/5.3.0/../../../../../H-x86_64-mingw32/nios2-elf/lib/mno-hw-mul\libc.a(lib_a-vfprintf.o)
 .debug_loc     0x0000000000007d04       0xa2 e:/quartus_fpga_design/nios2eds/bin/gnu/h-x86_64-mingw32/bin/../lib/gcc/nios2-elf/5.3.0/../../../../../H-x86_64-mingw32/nios2-elf/lib/mno-hw-mul\libc.a(lib_a-wsetup.o)
 .debug_loc     0x0000000000007da6     0x2818 e:/quartus_fpga_design/nios2eds/bin/gnu/h-x86_64-mingw32/bin/../lib/gcc/nios2-elf/5.3.0/../../../../../H-x86_64-mingw32/nios2-elf/lib/mno-hw-mul\libc.a(lib_a-dtoa.o)
 .debug_loc     0x000000000000a5be      0x36f e:/quartus_fpga_design/nios2eds/bin/gnu/h-x86_64-mingw32/bin/../lib/gcc/nios2-elf/5.3.0/../../../../../H-x86_64-mingw32/nios2-elf/lib/mno-hw-mul\libc.a(lib_a-fflush.o)
 .debug_loc     0x000000000000a92d      0x2f9 e:/quartus_fpga_design/nios2eds/bin/gnu/h-x86_64-mingw32/bin/../lib/gcc/nios2-elf/5.3.0/../../../../../H-x86_64-mingw32/nios2-elf/lib/mno-hw-mul\libc.a(lib_a-findfp.o)
 .debug_loc     0x000000000000ac26      0x4e7 e:/quartus_fpga_design/nios2eds/bin/gnu/h-x86_64-mingw32/bin/../lib/gcc/nios2-elf/5.3.0/../../../../../H-x86_64-mingw32/nios2-elf/lib/mno-hw-mul\libc.a(lib_a-freer.o)
 .debug_loc     0x000000000000b10d      0x5c7 e:/quartus_fpga_design/nios2eds/bin/gnu/h-x86_64-mingw32/bin/../lib/gcc/nios2-elf/5.3.0/../../../../../H-x86_64-mingw32/nios2-elf/lib/mno-hw-mul\libc.a(lib_a-fvwrite.o)
 .debug_loc     0x000000000000b6d4      0x25b e:/quartus_fpga_design/nios2eds/bin/gnu/h-x86_64-mingw32/bin/../lib/gcc/nios2-elf/5.3.0/../../../../../H-x86_64-mingw32/nios2-elf/lib/mno-hw-mul\libc.a(lib_a-fwalk.o)
 .debug_loc     0x000000000000b92f      0x131 e:/quartus_fpga_design/nios2eds/bin/gnu/h-x86_64-mingw32/bin/../lib/gcc/nios2-elf/5.3.0/../../../../../H-x86_64-mingw32/nios2-elf/lib/mno-hw-mul\libc.a(lib_a-locale.o)
 .debug_loc     0x000000000000ba60      0x122 e:/quartus_fpga_design/nios2eds/bin/gnu/h-x86_64-mingw32/bin/../lib/gcc/nios2-elf/5.3.0/../../../../../H-x86_64-mingw32/nios2-elf/lib/mno-hw-mul\libc.a(lib_a-makebuf.o)
 .debug_loc     0x000000000000bb82      0x1a1 e:/quartus_fpga_design/nios2eds/bin/gnu/h-x86_64-mingw32/bin/../lib/gcc/nios2-elf/5.3.0/../../../../../H-x86_64-mingw32/nios2-elf/lib/mno-hw-mul\libc.a(lib_a-memchr.o)
 .debug_loc     0x000000000000bd23      0x266 e:/quartus_fpga_design/nios2eds/bin/gnu/h-x86_64-mingw32/bin/../lib/gcc/nios2-elf/5.3.0/../../../../../H-x86_64-mingw32/nios2-elf/lib/mno-hw-mul\libc.a(lib_a-memcpy.o)
 .debug_loc     0x000000000000bf89      0x308 e:/quartus_fpga_design/nios2eds/bin/gnu/h-x86_64-mingw32/bin/../lib/gcc/nios2-elf/5.3.0/../../../../../H-x86_64-mingw32/nios2-elf/lib/mno-hw-mul\libc.a(lib_a-memmove.o)
 .debug_loc     0x000000000000c291      0x1a6 e:/quartus_fpga_design/nios2eds/bin/gnu/h-x86_64-mingw32/bin/../lib/gcc/nios2-elf/5.3.0/../../../../../H-x86_64-mingw32/nios2-elf/lib/mno-hw-mul\libc.a(lib_a-memset.o)
 .debug_loc     0x000000000000c437     0x1d2f e:/quartus_fpga_design/nios2eds/bin/gnu/h-x86_64-mingw32/bin/../lib/gcc/nios2-elf/5.3.0/../../../../../H-x86_64-mingw32/nios2-elf/lib/mno-hw-mul\libc.a(lib_a-mprec.o)
 .debug_loc     0x000000000000e166      0xde4 e:/quartus_fpga_design/nios2eds/bin/gnu/h-x86_64-mingw32/bin/../lib/gcc/nios2-elf/5.3.0/../../../../../H-x86_64-mingw32/nios2-elf/lib/mno-hw-mul\libc.a(lib_a-reallocr.o)
 .debug_loc     0x000000000000ef4a       0x2f e:/quartus_fpga_design/nios2eds/bin/gnu/h-x86_64-mingw32/bin/../lib/gcc/nios2-elf/5.3.0/../../../../../H-x86_64-mingw32/nios2-elf/lib/mno-hw-mul\libc.a(lib_a-s_fpclassify.o)
 .debug_loc     0x000000000000ef79      0x33a e:/quartus_fpga_design/nios2eds/bin/gnu/h-x86_64-mingw32/bin/../lib/gcc/nios2-elf/5.3.0/../../../../../H-x86_64-mingw32/nios2-elf/lib/mno-hw-mul\libc.a(lib_a-stdio.o)
 .debug_loc     0x000000000000f2b3       0xc6 e:/quartus_fpga_design/nios2eds/bin/gnu/h-x86_64-mingw32/bin/../lib/gcc/nios2-elf/5.3.0/../../../../../H-x86_64-mingw32/nios2-elf/lib/mno-hw-mul\libc.a(lib_a-strcmp.o)
 .debug_loc     0x000000000000f379     0x2630 e:/quartus_fpga_design/nios2eds/bin/gnu/h-x86_64-mingw32/bin/../lib/gcc/nios2-elf/5.3.0/../../../../../H-x86_64-mingw32/nios2-elf/lib/mno-hw-mul\libc.a(lib_a-vfiprintf.o)
 .debug_loc     0x00000000000119a9       0xb0 e:/quartus_fpga_design/nios2eds/bin/gnu/h-x86_64-mingw32/bin/../lib/gcc/nios2-elf/5.3.0/../../../../../H-x86_64-mingw32/nios2-elf/lib/mno-hw-mul\libc.a(lib_a-writer.o)
 .debug_loc     0x0000000000011a59       0x58 e:/quartus_fpga_design/nios2eds/bin/gnu/h-x86_64-mingw32/bin/../lib/gcc/nios2-elf/5.3.0/../../../../../H-x86_64-mingw32/nios2-elf/lib/mno-hw-mul\libc.a(closer.o)
 .debug_loc     0x0000000000011ab1      0x244 e:/quartus_fpga_design/nios2eds/bin/gnu/h-x86_64-mingw32/bin/../lib/gcc/nios2-elf/5.3.0/../../../../../H-x86_64-mingw32/nios2-elf/lib/mno-hw-mul\libc.a(lib_a-callocr.o)
 .debug_loc     0x0000000000011cf5      0x199 e:/quartus_fpga_design/nios2eds/bin/gnu/h-x86_64-mingw32/bin/../lib/gcc/nios2-elf/5.3.0/../../../../../H-x86_64-mingw32/nios2-elf/lib/mno-hw-mul\libc.a(lib_a-fclose.o)
 .debug_loc     0x0000000000011e8e      0x2a1 e:/quartus_fpga_design/nios2eds/bin/gnu/h-x86_64-mingw32/bin/../lib/gcc/nios2-elf/5.3.0/../../../../../H-x86_64-mingw32/nios2-elf/lib/mno-hw-mul\libc.a(lib_a-fputwc.o)
 .debug_loc     0x000000000001212f       0x84 e:/quartus_fpga_design/nios2eds/bin/gnu/h-x86_64-mingw32/bin/../lib/gcc/nios2-elf/5.3.0/../../../../../H-x86_64-mingw32/nios2-elf/lib/mno-hw-mul\libc.a(lib_a-fstatr.o)
 .debug_loc     0x00000000000121b3       0x58 e:/quartus_fpga_design/nios2eds/bin/gnu/h-x86_64-mingw32/bin/../lib/gcc/nios2-elf/5.3.0/../../../../../H-x86_64-mingw32/nios2-elf/lib/mno-hw-mul\libc.a(lib_a-isattyr.o)
 .debug_loc     0x000000000001220b       0xb0 e:/quartus_fpga_design/nios2eds/bin/gnu/h-x86_64-mingw32/bin/../lib/gcc/nios2-elf/5.3.0/../../../../../H-x86_64-mingw32/nios2-elf/lib/mno-hw-mul\libc.a(lib_a-lseekr.o)
 .debug_loc     0x00000000000122bb       0xb0 e:/quartus_fpga_design/nios2eds/bin/gnu/h-x86_64-mingw32/bin/../lib/gcc/nios2-elf/5.3.0/../../../../../H-x86_64-mingw32/nios2-elf/lib/mno-hw-mul\libc.a(lib_a-readr.o)
 .debug_loc     0x000000000001236b      0x1b2 e:/quartus_fpga_design/nios2eds/bin/gnu/h-x86_64-mingw32/bin/../lib/gcc/nios2-elf/5.3.0/../../../../../H-x86_64-mingw32/nios2-elf/lib/mno-hw-mul\libc.a(lib_a-wbuf.o)
 .debug_loc     0x000000000001251d      0x24e e:/quartus_fpga_design/nios2eds/bin/gnu/h-x86_64-mingw32/bin/../lib/gcc/nios2-elf/5.3.0/../../../../../H-x86_64-mingw32/nios2-elf/lib/mno-hw-mul\libc.a(lib_a-wcrtomb.o)
 .debug_loc     0x000000000001276b       0x8f e:/quartus_fpga_design/nios2eds/bin/gnu/h-x86_64-mingw32/bin/../lib/gcc/nios2-elf/5.3.0/../../../../../H-x86_64-mingw32/nios2-elf/lib/mno-hw-mul\libc.a(lib_a-wctomb_r.o)
 .debug_loc     0x00000000000127fa      0x15d e:/quartus_fpga_design/nios2eds/bin/gnu/h-x86_64-mingw32/bin/../lib/gcc/nios2-elf/5.3.0/mno-hw-mul\libgcc.a(_muldi3.o)
 .debug_loc     0x0000000000012957     0x1110 e:/quartus_fpga_design/nios2eds/bin/gnu/h-x86_64-mingw32/bin/../lib/gcc/nios2-elf/5.3.0/mno-hw-mul\libgcc.a(_udivdi3.o)
 .debug_loc     0x0000000000013a67     0x10d4 e:/quartus_fpga_design/nios2eds/bin/gnu/h-x86_64-mingw32/bin/../lib/gcc/nios2-elf/5.3.0/mno-hw-mul\libgcc.a(_umoddi3.o)
 .debug_loc     0x0000000000014b3b     0x16f9 e:/quartus_fpga_design/nios2eds/bin/gnu/h-x86_64-mingw32/bin/../lib/gcc/nios2-elf/5.3.0/mno-hw-mul\libgcc.a(adddf3.o)
 .debug_loc     0x0000000000016234       0x68 e:/quartus_fpga_design/nios2eds/bin/gnu/h-x86_64-mingw32/bin/../lib/gcc/nios2-elf/5.3.0/mno-hw-mul\libgcc.a(eqdf2.o)
 .debug_loc     0x000000000001629c      0x163 e:/quartus_fpga_design/nios2eds/bin/gnu/h-x86_64-mingw32/bin/../lib/gcc/nios2-elf/5.3.0/mno-hw-mul\libgcc.a(ledf2.o)
 .debug_loc     0x00000000000163ff     0x1085 e:/quartus_fpga_design/nios2eds/bin/gnu/h-x86_64-mingw32/bin/../lib/gcc/nios2-elf/5.3.0/mno-hw-mul\libgcc.a(muldf3.o)
 .debug_loc     0x0000000000017484      0x175 e:/quartus_fpga_design/nios2eds/bin/gnu/h-x86_64-mingw32/bin/../lib/gcc/nios2-elf/5.3.0/mno-hw-mul\libgcc.a(floatsidf.o)
 .debug_loc     0x00000000000175f9       0x2c e:/quartus_fpga_design/nios2eds/bin/gnu/h-x86_64-mingw32/bin/../lib/gcc/nios2-elf/5.3.0/../../../../../H-x86_64-mingw32/nios2-elf/lib/mno-hw-mul\libc.a(lib_a-atexit.o)
 .debug_loc     0x0000000000017625       0x1e e:/quartus_fpga_design/nios2eds/bin/gnu/h-x86_64-mingw32/bin/../lib/gcc/nios2-elf/5.3.0/../../../../../H-x86_64-mingw32/nios2-elf/lib/mno-hw-mul\libc.a(lib_a-exit.o)
 .debug_loc     0x0000000000017643      0x126 e:/quartus_fpga_design/nios2eds/bin/gnu/h-x86_64-mingw32/bin/../lib/gcc/nios2-elf/5.3.0/../../../../../H-x86_64-mingw32/nios2-elf/lib/mno-hw-mul\libc.a(lib_a-memcmp.o)
 .debug_loc     0x0000000000017769      0x185 e:/quartus_fpga_design/nios2eds/bin/gnu/h-x86_64-mingw32/bin/../lib/gcc/nios2-elf/5.3.0/../../../../../H-x86_64-mingw32/nios2-elf/lib/mno-hw-mul\libc.a(lib_a-__atexit.o)
 .debug_loc     0x00000000000178ee      0x1ce e:/quartus_fpga_design/nios2eds/bin/gnu/h-x86_64-mingw32/bin/../lib/gcc/nios2-elf/5.3.0/../../../../../H-x86_64-mingw32/nios2-elf/lib/mno-hw-mul\libc.a(lib_a-__call_atexit.o)

.debug_macinfo
 *(.debug_macinfo)

.debug_weaknames
 *(.debug_weaknames)

.debug_funcnames
 *(.debug_funcnames)

.debug_typenames
 *(.debug_typenames)

.debug_varnames
 *(.debug_varnames)

.debug_alt_sim_info
                0x0000000000000000       0x40
 *(.debug_alt_sim_info)
 .debug_alt_sim_info
                0x0000000000000000       0x10 ../Bomberman_bsp//obj/HAL/src/crt0.o
 .debug_alt_sim_info
                0x0000000000000010       0x30 ../Bomberman_bsp/\libhal_bsp.a(alt_busy_sleep.o)
                0x0000000008000000                __alt_data_end = 0x8000000
                0x0000000008000000                PROVIDE (__alt_stack_pointer, __alt_data_end)
                [!provide]                        PROVIDE (__alt_stack_limit, __alt_stack_base)
                0x0000000000020468                PROVIDE (__alt_heap_start, end)
                0x0000000008000000                PROVIDE (__alt_heap_limit, 0x8000000)
OUTPUT(Bomberman.elf elf32-littlenios2)

.debug_ranges   0x0000000000000000     0x1998
 .debug_ranges  0x0000000000000000       0x20 ../Bomberman_bsp//obj/HAL/src/crt0.o
 .debug_ranges  0x0000000000000020       0x18 obj/default/coins.o
 .debug_ranges  0x0000000000000038       0x30 obj/default/drawing.o
 .debug_ranges  0x0000000000000068       0x60 e:/quartus_fpga_design/nios2eds/bin/gnu/h-x86_64-mingw32/bin/../lib/gcc/nios2-elf/5.3.0/mno-hw-mul\libgcc.a(lib2-divmod.o)
 .debug_ranges  0x00000000000000c8      0x158 e:/quartus_fpga_design/nios2eds/bin/gnu/h-x86_64-mingw32/bin/../lib/gcc/nios2-elf/5.3.0/mno-hw-mul\libgcc.a(divdf3.o)
 .debug_ranges  0x0000000000000220       0x88 e:/quartus_fpga_design/nios2eds/bin/gnu/h-x86_64-mingw32/bin/../lib/gcc/nios2-elf/5.3.0/mno-hw-mul\libgcc.a(gedf2.o)
 .debug_ranges  0x00000000000002a8      0x268 e:/quartus_fpga_design/nios2eds/bin/gnu/h-x86_64-mingw32/bin/../lib/gcc/nios2-elf/5.3.0/mno-hw-mul\libgcc.a(subdf3.o)
 .debug_ranges  0x0000000000000510       0x30 e:/quartus_fpga_design/nios2eds/bin/gnu/h-x86_64-mingw32/bin/../lib/gcc/nios2-elf/5.3.0/mno-hw-mul\libgcc.a(fixdfsi.o)
 .debug_ranges  0x0000000000000540       0x18 e:/quartus_fpga_design/nios2eds/bin/gnu/h-x86_64-mingw32/bin/../lib/gcc/nios2-elf/5.3.0/mno-hw-mul\libgcc.a(floatunsidf.o)
 .debug_ranges  0x0000000000000558       0x18 e:/quartus_fpga_design/nios2eds/bin/gnu/h-x86_64-mingw32/bin/../lib/gcc/nios2-elf/5.3.0/mno-hw-mul\libgcc.a(_clzsi2.o)
 .debug_ranges  0x0000000000000570       0x10 e:/quartus_fpga_design/nios2eds/bin/gnu/h-x86_64-mingw32/bin/../lib/gcc/nios2-elf/5.3.0/../../../../../H-x86_64-mingw32/nios2-elf/lib/mno-hw-mul\libc.a(lib_a-clock.o)
 .debug_ranges  0x0000000000000580       0x18 e:/quartus_fpga_design/nios2eds/bin/gnu/h-x86_64-mingw32/bin/../lib/gcc/nios2-elf/5.3.0/../../../../../H-x86_64-mingw32/nios2-elf/lib/mno-hw-mul\libc.a(lib_a-malloc.o)
 .debug_ranges  0x0000000000000598       0x48 e:/quartus_fpga_design/nios2eds/bin/gnu/h-x86_64-mingw32/bin/../lib/gcc/nios2-elf/5.3.0/../../../../../H-x86_64-mingw32/nios2-elf/lib/mno-hw-mul\libc.a(lib_a-mallocr.o)
 .debug_ranges  0x00000000000005e0       0x18 e:/quartus_fpga_design/nios2eds/bin/gnu/h-x86_64-mingw32/bin/../lib/gcc/nios2-elf/5.3.0/../../../../../H-x86_64-mingw32/nios2-elf/lib/mno-hw-mul\libc.a(lib_a-printf.o)
 .debug_ranges  0x00000000000005f8       0x30 e:/quartus_fpga_design/nios2eds/bin/gnu/h-x86_64-mingw32/bin/../lib/gcc/nios2-elf/5.3.0/../../../../../H-x86_64-mingw32/nios2-elf/lib/mno-hw-mul\libc.a(lib_a-puts.o)
 .debug_ranges  0x0000000000000628       0x18 e:/quartus_fpga_design/nios2eds/bin/gnu/h-x86_64-mingw32/bin/../lib/gcc/nios2-elf/5.3.0/../../../../../H-x86_64-mingw32/nios2-elf/lib/mno-hw-mul\libc.a(lib_a-rand.o)
 .debug_ranges  0x0000000000000640       0x10 e:/quartus_fpga_design/nios2eds/bin/gnu/h-x86_64-mingw32/bin/../lib/gcc/nios2-elf/5.3.0/../../../../../H-x86_64-mingw32/nios2-elf/lib/mno-hw-mul\libc.a(lib_a-sbrkr.o)
 .debug_ranges  0x0000000000000650       0x10 e:/quartus_fpga_design/nios2eds/bin/gnu/h-x86_64-mingw32/bin/../lib/gcc/nios2-elf/5.3.0/../../../../../H-x86_64-mingw32/nios2-elf/lib/mno-hw-mul\libc.a(lib_a-strlen.o)
 .debug_ranges  0x0000000000000660       0x10 e:/quartus_fpga_design/nios2eds/bin/gnu/h-x86_64-mingw32/bin/../lib/gcc/nios2-elf/5.3.0/../../../../../H-x86_64-mingw32/nios2-elf/lib/mno-hw-mul\libc.a(lib_a-timesr.o)
 .debug_ranges  0x0000000000000670      0x178 e:/quartus_fpga_design/nios2eds/bin/gnu/h-x86_64-mingw32/bin/../lib/gcc/nios2-elf/5.3.0/../../../../../H-x86_64-mingw32/nios2-elf/lib/mno-hw-mul\libc.a(lib_a-vfprintf.o)
 .debug_ranges  0x00000000000007e8       0x40 e:/quartus_fpga_design/nios2eds/bin/gnu/h-x86_64-mingw32/bin/../lib/gcc/nios2-elf/5.3.0/../../../../../H-x86_64-mingw32/nios2-elf/lib/mno-hw-mul\libc.a(lib_a-wsetup.o)
 .debug_ranges  0x0000000000000828       0x18 e:/quartus_fpga_design/nios2eds/bin/gnu/h-x86_64-mingw32/bin/../lib/gcc/nios2-elf/5.3.0/../../../../../H-x86_64-mingw32/nios2-elf/lib/mno-hw-mul\libc.a(lib_a-dtoa.o)
 .debug_ranges  0x0000000000000840       0x58 e:/quartus_fpga_design/nios2eds/bin/gnu/h-x86_64-mingw32/bin/../lib/gcc/nios2-elf/5.3.0/../../../../../H-x86_64-mingw32/nios2-elf/lib/mno-hw-mul\libc.a(lib_a-fflush.o)
 .debug_ranges  0x0000000000000898       0xc8 e:/quartus_fpga_design/nios2eds/bin/gnu/h-x86_64-mingw32/bin/../lib/gcc/nios2-elf/5.3.0/../../../../../H-x86_64-mingw32/nios2-elf/lib/mno-hw-mul\libc.a(lib_a-findfp.o)
 .debug_ranges  0x0000000000000960       0x18 e:/quartus_fpga_design/nios2eds/bin/gnu/h-x86_64-mingw32/bin/../lib/gcc/nios2-elf/5.3.0/../../../../../H-x86_64-mingw32/nios2-elf/lib/mno-hw-mul\libc.a(lib_a-freer.o)
 .debug_ranges  0x0000000000000978       0x30 e:/quartus_fpga_design/nios2eds/bin/gnu/h-x86_64-mingw32/bin/../lib/gcc/nios2-elf/5.3.0/../../../../../H-x86_64-mingw32/nios2-elf/lib/mno-hw-mul\libc.a(lib_a-fvwrite.o)
 .debug_ranges  0x00000000000009a8       0x18 e:/quartus_fpga_design/nios2eds/bin/gnu/h-x86_64-mingw32/bin/../lib/gcc/nios2-elf/5.3.0/../../../../../H-x86_64-mingw32/nios2-elf/lib/mno-hw-mul\libc.a(lib_a-fwalk.o)
 .debug_ranges  0x00000000000009c0       0x60 e:/quartus_fpga_design/nios2eds/bin/gnu/h-x86_64-mingw32/bin/../lib/gcc/nios2-elf/5.3.0/../../../../../H-x86_64-mingw32/nios2-elf/lib/mno-hw-mul\libc.a(lib_a-locale.o)
 .debug_ranges  0x0000000000000a20       0x10 e:/quartus_fpga_design/nios2eds/bin/gnu/h-x86_64-mingw32/bin/../lib/gcc/nios2-elf/5.3.0/../../../../../H-x86_64-mingw32/nios2-elf/lib/mno-hw-mul\libc.a(lib_a-makebuf.o)
 .debug_ranges  0x0000000000000a30       0x10 e:/quartus_fpga_design/nios2eds/bin/gnu/h-x86_64-mingw32/bin/../lib/gcc/nios2-elf/5.3.0/../../../../../H-x86_64-mingw32/nios2-elf/lib/mno-hw-mul\libc.a(lib_a-memchr.o)
 .debug_ranges  0x0000000000000a40       0x10 e:/quartus_fpga_design/nios2eds/bin/gnu/h-x86_64-mingw32/bin/../lib/gcc/nios2-elf/5.3.0/../../../../../H-x86_64-mingw32/nios2-elf/lib/mno-hw-mul\libc.a(lib_a-memcpy.o)
 .debug_ranges  0x0000000000000a50       0x10 e:/quartus_fpga_design/nios2eds/bin/gnu/h-x86_64-mingw32/bin/../lib/gcc/nios2-elf/5.3.0/../../../../../H-x86_64-mingw32/nios2-elf/lib/mno-hw-mul\libc.a(lib_a-memmove.o)
 .debug_ranges  0x0000000000000a60       0x10 e:/quartus_fpga_design/nios2eds/bin/gnu/h-x86_64-mingw32/bin/../lib/gcc/nios2-elf/5.3.0/../../../../../H-x86_64-mingw32/nios2-elf/lib/mno-hw-mul\libc.a(lib_a-memset.o)
 .debug_ranges  0x0000000000000a70       0xe8 e:/quartus_fpga_design/nios2eds/bin/gnu/h-x86_64-mingw32/bin/../lib/gcc/nios2-elf/5.3.0/../../../../../H-x86_64-mingw32/nios2-elf/lib/mno-hw-mul\libc.a(lib_a-mprec.o)
 .debug_ranges  0x0000000000000b58      0x148 e:/quartus_fpga_design/nios2eds/bin/gnu/h-x86_64-mingw32/bin/../lib/gcc/nios2-elf/5.3.0/../../../../../H-x86_64-mingw32/nios2-elf/lib/mno-hw-mul\libc.a(lib_a-reallocr.o)
 .debug_ranges  0x0000000000000ca0       0x10 e:/quartus_fpga_design/nios2eds/bin/gnu/h-x86_64-mingw32/bin/../lib/gcc/nios2-elf/5.3.0/../../../../../H-x86_64-mingw32/nios2-elf/lib/mno-hw-mul\libc.a(lib_a-s_fpclassify.o)
 .debug_ranges  0x0000000000000cb0       0x30 e:/quartus_fpga_design/nios2eds/bin/gnu/h-x86_64-mingw32/bin/../lib/gcc/nios2-elf/5.3.0/../../../../../H-x86_64-mingw32/nios2-elf/lib/mno-hw-mul\libc.a(lib_a-stdio.o)
 .debug_ranges  0x0000000000000ce0       0x10 e:/quartus_fpga_design/nios2eds/bin/gnu/h-x86_64-mingw32/bin/../lib/gcc/nios2-elf/5.3.0/../../../../../H-x86_64-mingw32/nios2-elf/lib/mno-hw-mul\libc.a(lib_a-strcmp.o)
 .debug_ranges  0x0000000000000cf0      0x1d8 e:/quartus_fpga_design/nios2eds/bin/gnu/h-x86_64-mingw32/bin/../lib/gcc/nios2-elf/5.3.0/../../../../../H-x86_64-mingw32/nios2-elf/lib/mno-hw-mul\libc.a(lib_a-vfiprintf.o)
 .debug_ranges  0x0000000000000ec8       0x10 e:/quartus_fpga_design/nios2eds/bin/gnu/h-x86_64-mingw32/bin/../lib/gcc/nios2-elf/5.3.0/../../../../../H-x86_64-mingw32/nios2-elf/lib/mno-hw-mul\libc.a(lib_a-writer.o)
 .debug_ranges  0x0000000000000ed8       0x10 e:/quartus_fpga_design/nios2eds/bin/gnu/h-x86_64-mingw32/bin/../lib/gcc/nios2-elf/5.3.0/../../../../../H-x86_64-mingw32/nios2-elf/lib/mno-hw-mul\libc.a(closer.o)
 .debug_ranges  0x0000000000000ee8       0x48 e:/quartus_fpga_design/nios2eds/bin/gnu/h-x86_64-mingw32/bin/../lib/gcc/nios2-elf/5.3.0/../../../../../H-x86_64-mingw32/nios2-elf/lib/mno-hw-mul\libc.a(lib_a-callocr.o)
 .debug_ranges  0x0000000000000f30       0x48 e:/quartus_fpga_design/nios2eds/bin/gnu/h-x86_64-mingw32/bin/../lib/gcc/nios2-elf/5.3.0/../../../../../H-x86_64-mingw32/nios2-elf/lib/mno-hw-mul\libc.a(lib_a-fclose.o)
 .debug_ranges  0x0000000000000f78       0x50 e:/quartus_fpga_design/nios2eds/bin/gnu/h-x86_64-mingw32/bin/../lib/gcc/nios2-elf/5.3.0/../../../../../H-x86_64-mingw32/nios2-elf/lib/mno-hw-mul\libc.a(lib_a-fputwc.o)
 .debug_ranges  0x0000000000000fc8       0x10 e:/quartus_fpga_design/nios2eds/bin/gnu/h-x86_64-mingw32/bin/../lib/gcc/nios2-elf/5.3.0/../../../../../H-x86_64-mingw32/nios2-elf/lib/mno-hw-mul\libc.a(lib_a-fstatr.o)
 .debug_ranges  0x0000000000000fd8       0x10 e:/quartus_fpga_design/nios2eds/bin/gnu/h-x86_64-mingw32/bin/../lib/gcc/nios2-elf/5.3.0/../../../../../H-x86_64-mingw32/nios2-elf/lib/mno-hw-mul\libc.a(lib_a-isattyr.o)
 .debug_ranges  0x0000000000000fe8       0x10 e:/quartus_fpga_design/nios2eds/bin/gnu/h-x86_64-mingw32/bin/../lib/gcc/nios2-elf/5.3.0/../../../../../H-x86_64-mingw32/nios2-elf/lib/mno-hw-mul\libc.a(lib_a-lseekr.o)
 .debug_ranges  0x0000000000000ff8       0x10 e:/quartus_fpga_design/nios2eds/bin/gnu/h-x86_64-mingw32/bin/../lib/gcc/nios2-elf/5.3.0/../../../../../H-x86_64-mingw32/nios2-elf/lib/mno-hw-mul\libc.a(lib_a-readr.o)
 .debug_ranges  0x0000000000001008       0x30 e:/quartus_fpga_design/nios2eds/bin/gnu/h-x86_64-mingw32/bin/../lib/gcc/nios2-elf/5.3.0/../../../../../H-x86_64-mingw32/nios2-elf/lib/mno-hw-mul\libc.a(lib_a-wbuf.o)
 .debug_ranges  0x0000000000001038       0x18 e:/quartus_fpga_design/nios2eds/bin/gnu/h-x86_64-mingw32/bin/../lib/gcc/nios2-elf/5.3.0/../../../../../H-x86_64-mingw32/nios2-elf/lib/mno-hw-mul\libc.a(lib_a-wcrtomb.o)
 .debug_ranges  0x0000000000001050       0x18 e:/quartus_fpga_design/nios2eds/bin/gnu/h-x86_64-mingw32/bin/../lib/gcc/nios2-elf/5.3.0/../../../../../H-x86_64-mingw32/nios2-elf/lib/mno-hw-mul\libc.a(lib_a-wctomb_r.o)
 .debug_ranges  0x0000000000001068       0x30 e:/quartus_fpga_design/nios2eds/bin/gnu/h-x86_64-mingw32/bin/../lib/gcc/nios2-elf/5.3.0/mno-hw-mul\libgcc.a(_muldi3.o)
 .debug_ranges  0x0000000000001098      0x148 e:/quartus_fpga_design/nios2eds/bin/gnu/h-x86_64-mingw32/bin/../lib/gcc/nios2-elf/5.3.0/mno-hw-mul\libgcc.a(_udivdi3.o)
 .debug_ranges  0x00000000000011e0      0x160 e:/quartus_fpga_design/nios2eds/bin/gnu/h-x86_64-mingw32/bin/../lib/gcc/nios2-elf/5.3.0/mno-hw-mul\libgcc.a(_umoddi3.o)
 .debug_ranges  0x0000000000001340      0x240 e:/quartus_fpga_design/nios2eds/bin/gnu/h-x86_64-mingw32/bin/../lib/gcc/nios2-elf/5.3.0/mno-hw-mul\libgcc.a(adddf3.o)
 .debug_ranges  0x0000000000001580       0x48 e:/quartus_fpga_design/nios2eds/bin/gnu/h-x86_64-mingw32/bin/../lib/gcc/nios2-elf/5.3.0/mno-hw-mul\libgcc.a(eqdf2.o)
 .debug_ranges  0x00000000000015c8       0xa8 e:/quartus_fpga_design/nios2eds/bin/gnu/h-x86_64-mingw32/bin/../lib/gcc/nios2-elf/5.3.0/mno-hw-mul\libgcc.a(ledf2.o)
 .debug_ranges  0x0000000000001670      0x1d0 e:/quartus_fpga_design/nios2eds/bin/gnu/h-x86_64-mingw32/bin/../lib/gcc/nios2-elf/5.3.0/mno-hw-mul\libgcc.a(muldf3.o)
 .debug_ranges  0x0000000000001840       0x20 e:/quartus_fpga_design/nios2eds/bin/gnu/h-x86_64-mingw32/bin/../lib/gcc/nios2-elf/5.3.0/mno-hw-mul\libgcc.a(floatsidf.o)
 .debug_ranges  0x0000000000001860       0x30 ../Bomberman_bsp/\libhal_bsp.a(altera_avalon_jtag_uart_init.o)
 .debug_ranges  0x0000000000001890       0x18 ../Bomberman_bsp/\libhal_bsp.a(altera_avalon_jtag_uart_read.o)
 .debug_ranges  0x00000000000018a8       0x28 ../Bomberman_bsp/\libhal_bsp.a(alt_irq_entry.o)
 .debug_ranges  0x00000000000018d0       0x10 ../Bomberman_bsp/\libhal_bsp.a(alt_irq_handler.o)
 .debug_ranges  0x00000000000018e0       0x30 ../Bomberman_bsp/\libhal_bsp.a(alt_exception_entry.o)
 .debug_ranges  0x0000000000001910       0x18 ../Bomberman_bsp/\libhal_bsp.a(alt_instruction_exception_entry.o)
 .debug_ranges  0x0000000000001928       0x10 e:/quartus_fpga_design/nios2eds/bin/gnu/h-x86_64-mingw32/bin/../lib/gcc/nios2-elf/5.3.0/../../../../../H-x86_64-mingw32/nios2-elf/lib/mno-hw-mul\libc.a(lib_a-atexit.o)
 .debug_ranges  0x0000000000001938       0x10 e:/quartus_fpga_design/nios2eds/bin/gnu/h-x86_64-mingw32/bin/../lib/gcc/nios2-elf/5.3.0/../../../../../H-x86_64-mingw32/nios2-elf/lib/mno-hw-mul\libc.a(lib_a-exit.o)
 .debug_ranges  0x0000000000001948       0x10 e:/quartus_fpga_design/nios2eds/bin/gnu/h-x86_64-mingw32/bin/../lib/gcc/nios2-elf/5.3.0/../../../../../H-x86_64-mingw32/nios2-elf/lib/mno-hw-mul\libc.a(lib_a-memcmp.o)
 .debug_ranges  0x0000000000001958       0x10 e:/quartus_fpga_design/nios2eds/bin/gnu/h-x86_64-mingw32/bin/../lib/gcc/nios2-elf/5.3.0/../../../../../H-x86_64-mingw32/nios2-elf/lib/mno-hw-mul\libc.a(lib_a-__atexit.o)
 .debug_ranges  0x0000000000001968       0x30 e:/quartus_fpga_design/nios2eds/bin/gnu/h-x86_64-mingw32/bin/../lib/gcc/nios2-elf/5.3.0/../../../../../H-x86_64-mingw32/nios2-elf/lib/mno-hw-mul\libc.a(lib_a-__call_atexit.o)
