
Bomberman.elf:     file format elf32-littlenios2
Bomberman.elf
architecture: nios2:r1, flags 0x00000112:
EXEC_P, HAS_SYMS, D_PAGED
start address 0x00000230

Program Header:
    LOAD off    0x00001000 vaddr 0x00000000 paddr 0x00000000 align 2**12
         filesz 0x00000020 memsz 0x00000020 flags r-x
    LOAD off    0x00001020 vaddr 0x00000020 paddr 0x00000020 align 2**12
         filesz 0x0001cbd8 memsz 0x0001cbd8 flags r-x
    LOAD off    0x0001dbf8 vaddr 0x0001cbf8 paddr 0x0001e75c align 2**12
         filesz 0x00001b64 memsz 0x00001b64 flags rw-
    LOAD off    0x000202c0 vaddr 0x000202c0 paddr 0x000202c0 align 2**12
         filesz 0x00000000 memsz 0x000001a8 flags rw-

Sections:
Idx Name          Size      VMA       LMA       File off  Algn
  0 .entry        00000020  00000000  00000000  00001000  2**5
                  CONTENTS, ALLOC, LOAD, READONLY, CODE
  1 .exceptions   00000210  00000020  00000020  00001020  2**2
                  CONTENTS, ALLOC, LOAD, READONLY, CODE
  2 .text         0001bdcc  00000230  00000230  00001230  2**2
                  CONTENTS, ALLOC, LOAD, READONLY, CODE
  3 .rodata       00000bfc  0001bffc  0001bffc  0001cffc  2**2
                  CONTENTS, ALLOC, LOAD, READONLY, DATA
  4 .rwdata       00001b64  0001cbf8  0001e75c  0001dbf8  2**2
                  CONTENTS, ALLOC, LOAD, DATA, SMALL_DATA
  5 .bss          000001a8  000202c0  000202c0  000202c0  2**2
                  ALLOC, SMALL_DATA
  6 .sdram        00000000  00020468  00020468  0001f75c  2**0
                  CONTENTS
  7 .comment      00000023  00000000  00000000  0001f75c  2**0
                  CONTENTS, READONLY
  8 .debug_aranges 000011a8  00000000  00000000  0001f780  2**3
                  CONTENTS, READONLY, DEBUGGING
  9 .debug_info   000283f9  00000000  00000000  00020928  2**0
                  CONTENTS, READONLY, DEBUGGING
 10 .debug_abbrev 0000a700  00000000  00000000  00048d21  2**0
                  CONTENTS, READONLY, DEBUGGING
 11 .debug_line   0000dbf8  00000000  00000000  00053421  2**0
                  CONTENTS, READONLY, DEBUGGING
 12 .debug_frame  00003014  00000000  00000000  0006101c  2**2
                  CONTENTS, READONLY, DEBUGGING
 13 .debug_str    00004230  00000000  00000000  00064030  2**0
                  CONTENTS, READONLY, DEBUGGING
 14 .debug_loc    00017abc  00000000  00000000  00068260  2**0
                  CONTENTS, READONLY, DEBUGGING
 15 .debug_alt_sim_info 00000040  00000000  00000000  0007fd1c  2**2
                  CONTENTS, READONLY, DEBUGGING
 16 .debug_ranges 00001998  00000000  00000000  0007fd60  2**3
                  CONTENTS, READONLY, DEBUGGING
 17 .thread_model 00000003  00000000  00000000  0008562e  2**0
                  CONTENTS, READONLY
 18 .cpu          0000000c  00000000  00000000  00085631  2**0
                  CONTENTS, READONLY
 19 .qsys         00000001  00000000  00000000  0008563d  2**0
                  CONTENTS, READONLY
 20 .simulation_enabled 00000001  00000000  00000000  0008563e  2**0
                  CONTENTS, READONLY
 21 .sysid_hash   00000004  00000000  00000000  0008563f  2**0
                  CONTENTS, READONLY
 22 .sysid_base   00000004  00000000  00000000  00085643  2**0
                  CONTENTS, READONLY
 23 .sysid_time   00000004  00000000  00000000  00085647  2**0
                  CONTENTS, READONLY
 24 .stderr_dev   0000000b  00000000  00000000  0008564b  2**0
                  CONTENTS, READONLY
 25 .stdin_dev    0000000b  00000000  00000000  00085656  2**0
                  CONTENTS, READONLY
 26 .stdout_dev   0000000b  00000000  00000000  00085661  2**0
                  CONTENTS, READONLY
 27 .sopc_system_name 00000009  00000000  00000000  0008566c  2**0
                  CONTENTS, READONLY
 28 .quartus_project_dir 0000005f  00000000  00000000  00085675  2**0
                  CONTENTS, READONLY
 29 .jdi          00006728  00000000  00000000  000856d4  2**0
                  CONTENTS, READONLY
 30 .sopcinfo     000cd0b5  00000000  00000000  0008bdfc  2**0
                  CONTENTS, READONLY
SYMBOL TABLE:
00000000 l    d  .entry	00000000 .entry
00000020 l    d  .exceptions	00000000 .exceptions
00000230 l    d  .text	00000000 .text
0001bffc l    d  .rodata	00000000 .rodata
0001cbf8 l    d  .rwdata	00000000 .rwdata
000202c0 l    d  .bss	00000000 .bss
00020468 l    d  .sdram	00000000 .sdram
00000000 l    d  .comment	00000000 .comment
00000000 l    d  .debug_aranges	00000000 .debug_aranges
00000000 l    d  .debug_info	00000000 .debug_info
00000000 l    d  .debug_abbrev	00000000 .debug_abbrev
00000000 l    d  .debug_line	00000000 .debug_line
00000000 l    d  .debug_frame	00000000 .debug_frame
00000000 l    d  .debug_str	00000000 .debug_str
00000000 l    d  .debug_loc	00000000 .debug_loc
00000000 l    d  .debug_alt_sim_info	00000000 .debug_alt_sim_info
00000000 l    d  .debug_ranges	00000000 .debug_ranges
00000000 l    df *ABS*	00000000 ../Bomberman_bsp//obj/HAL/src/crt0.o
00000268 l       .text	00000000 alt_after_alt_main
00000000 l    df *ABS*	00000000 alt_irq_handler.c
00000000 l    df *ABS*	00000000 alt_instruction_exception_entry.c
00000000 l    df *ABS*	00000000 INIT.c
00000000 l    df *ABS*	00000000 LEDandHEX.c
00000000 l    df *ABS*	00000000 USB_Keyboard_Driver.c
000202c0 l     O .bss	00000002 ctl_reg
000202c2 l     O .bss	00000002 no_device
00000000 l    df *ABS*	00000000 io_handler.c
00000000 l    df *ABS*	00000000 usb.c
00000000 l    df *ABS*	00000000 audio_driver.c
00000000 l    df *ABS*	00000000 coins.c
00000000 l    df *ABS*	00000000 draw_driver.c
00000000 l    df *ABS*	00000000 drawing.c
00000000 l    df *ABS*	00000000 ed.c
00000000 l    df *ABS*	00000000 game.c
00008424 l     F .text	00000118 shuffle
0001cbf8 l     O .rwdata	00000024 player1
0001cc1c l     O .rwdata	00000024 player2
000202d0 l     O .bss	00000004 stage
000202d4 l     O .bss	00000004 coinHead
000202d8 l     O .bss	00000004 coinTail
000202dc l     O .bss	00000004 begin
0001e700 l     O .rwdata	00000004 currentSec
0001e704 l     O .rwdata	00000004 beginFlag
0001e708 l     O .rwdata	00000004 bgmFlag
00000000 l    df *ABS*	00000000 main.c
0000ac64 l     F .text	00000118 shuffle
00000000 l    df *ABS*	00000000 op.c
0001e714 l     O .rwdata	00000004 vol
0001e718 l     O .rwdata	00000004 B_vol
000202e8 l     O .bss	00000004 vol_counter
000202ec l     O .bss	00000004 B_vol_counter
00000000 l    df *ABS*	00000000 readKey.c
00000000 l    df *ABS*	00000000 transition.c
00000000 l    df *ABS*	00000000 libgcc2.c
00000000 l    df *ABS*	00000000 lib2-divmod.c
00000000 l    df *ABS*	00000000 lib2-mul.c
00000000 l    df *ABS*	00000000 divdf3.c
00000000 l    df *ABS*	00000000 gedf2.c
00000000 l    df *ABS*	00000000 subdf3.c
00000000 l    df *ABS*	00000000 fixdfsi.c
00000000 l    df *ABS*	00000000 floatunsidf.c
00000000 l    df *ABS*	00000000 libgcc2.c
00000000 l    df *ABS*	00000000 libgcc2.c
00000000 l    df *ABS*	00000000 clock.c
00000000 l    df *ABS*	00000000 impure.c
0001cc40 l     O .rwdata	00000424 impure_data
00000000 l    df *ABS*	00000000 malloc.c
00000000 l    df *ABS*	00000000 mallocr.c
00000000 l    df *ABS*	00000000 printf.c
00000000 l    df *ABS*	00000000 puts.c
00000000 l    df *ABS*	00000000 rand.c
00000000 l    df *ABS*	00000000 sbrkr.c
00000000 l    df *ABS*	00000000 strlen.c
00000000 l    df *ABS*	00000000 timesr.c
00000000 l    df *ABS*	00000000 vfprintf.c
0001ca42 l     O .rodata	00000010 zeroes.4404
00010a10 l     F .text	000000bc __sbprintf
0001ca52 l     O .rodata	00000010 blanks.4403
00000000 l    df *ABS*	00000000 wsetup.c
00000000 l    df *ABS*	00000000 dtoa.c
00010c20 l     F .text	00000228 quorem
00000000 l    df *ABS*	00000000 fflush.c
00000000 l    df *ABS*	00000000 findfp.c
00012778 l     F .text	00000008 __fp_unlock
0001278c l     F .text	0000019c __sinit.part.1
00012928 l     F .text	00000008 __fp_lock
00000000 l    df *ABS*	00000000 mallocr.c
00000000 l    df *ABS*	00000000 fvwrite.c
00000000 l    df *ABS*	00000000 fwalk.c
00000000 l    df *ABS*	00000000 int_errno.c
00000000 l    df *ABS*	00000000 locale.c
0001d48c l     O .rwdata	00000020 lc_ctype_charset
0001d46c l     O .rwdata	00000020 lc_message_charset
0001d4ac l     O .rwdata	00000038 lconv
00000000 l    df *ABS*	00000000 makebuf.c
00000000 l    df *ABS*	00000000 memchr.c
00000000 l    df *ABS*	00000000 memcpy.c
00000000 l    df *ABS*	00000000 memmove.c
00000000 l    df *ABS*	00000000 memset.c
00000000 l    df *ABS*	00000000 mprec.c
0001ca80 l     O .rodata	0000000c p05.2768
00000000 l    df *ABS*	00000000 mallocr.c
00000000 l    df *ABS*	00000000 s_fpclassify.c
00000000 l    df *ABS*	00000000 stdio.c
00000000 l    df *ABS*	00000000 strcmp.c
00000000 l    df *ABS*	00000000 vfprintf.c
0001559c l     F .text	000000fc __sprint_r.part.0
0001cba4 l     O .rodata	00000010 zeroes.4349
00016bd8 l     F .text	000000bc __sbprintf
0001cbb4 l     O .rodata	00000010 blanks.4348
00000000 l    df *ABS*	00000000 writer.c
00000000 l    df *ABS*	00000000 closer.c
00000000 l    df *ABS*	00000000 mallocr.c
00000000 l    df *ABS*	00000000 fclose.c
00000000 l    df *ABS*	00000000 fputwc.c
00000000 l    df *ABS*	00000000 fstatr.c
00000000 l    df *ABS*	00000000 isattyr.c
00000000 l    df *ABS*	00000000 lseekr.c
00000000 l    df *ABS*	00000000 readr.c
00000000 l    df *ABS*	00000000 wbuf.c
00000000 l    df *ABS*	00000000 wcrtomb.c
00000000 l    df *ABS*	00000000 wctomb_r.c
00000000 l    df *ABS*	00000000 libgcc2.c
00000000 l    df *ABS*	00000000 libgcc2.c
00000000 l    df *ABS*	00000000 libgcc2.c
00000000 l    df *ABS*	00000000 adddf3.c
00000000 l    df *ABS*	00000000 eqdf2.c
00000000 l    df *ABS*	00000000 ledf2.c
00000000 l    df *ABS*	00000000 muldf3.c
00000000 l    df *ABS*	00000000 floatsidf.c
00000000 l    df *ABS*	00000000 alt_close.c
0001961c l     F .text	0000003c alt_get_errno
00000000 l    df *ABS*	00000000 alt_dev.c
00019730 l     F .text	0000002c alt_dev_null_write
00000000 l    df *ABS*	00000000 alt_errno.c
00000000 l    df *ABS*	00000000 alt_fstat.c
0001975c l     F .text	0000003c alt_get_errno
00000000 l    df *ABS*	00000000 alt_isatty.c
00019850 l     F .text	0000003c alt_get_errno
00000000 l    df *ABS*	00000000 alt_load.c
00019938 l     F .text	00000068 alt_load_section
00000000 l    df *ABS*	00000000 alt_lseek.c
00019a24 l     F .text	0000003c alt_get_errno
00000000 l    df *ABS*	00000000 alt_main.c
00000000 l    df *ABS*	00000000 alt_malloc_lock.c
00000000 l    df *ABS*	00000000 alt_read.c
00019c00 l     F .text	0000003c alt_get_errno
00000000 l    df *ABS*	00000000 alt_release_fd.c
00000000 l    df *ABS*	00000000 alt_sbrk.c
0001e74c l     O .rwdata	00000004 heap_end
00000000 l    df *ABS*	00000000 alt_times.c
00019e74 l     F .text	0000003c alt_get_errno
00000000 l    df *ABS*	00000000 alt_usleep.c
00000000 l    df *ABS*	00000000 alt_write.c
00019f58 l     F .text	0000003c alt_get_errno
00000000 l    df *ABS*	00000000 alt_sys_init.c
0001a094 l     F .text	00000034 alt_dev_reg
0001d68c l     O .rwdata	00001060 jtag_uart_0
00000000 l    df *ABS*	00000000 altera_avalon_jtag_uart_fd.c
00000000 l    df *ABS*	00000000 altera_avalon_jtag_uart_init.c
0001a388 l     F .text	0000020c altera_avalon_jtag_uart_irq
0001a594 l     F .text	000000a0 altera_avalon_jtag_uart_timeout
00000000 l    df *ABS*	00000000 altera_avalon_jtag_uart_ioctl.c
00000000 l    df *ABS*	00000000 altera_avalon_jtag_uart_read.c
00000000 l    df *ABS*	00000000 altera_avalon_jtag_uart_write.c
00000000 l    df *ABS*	00000000 altera_avalon_timer_sc.c
0001abcc l     F .text	00000078 alt_avalon_timer_sc_irq
00000000 l    df *ABS*	00000000 alt_alarm_start.c
00000000 l    df *ABS*	00000000 alt_busy_sleep.c
00000000 l    df *ABS*	00000000 alt_dcache_flush_all.c
00000000 l    df *ABS*	00000000 alt_dev_llist_insert.c
0001af64 l     F .text	0000003c alt_get_errno
00000000 l    df *ABS*	00000000 alt_do_ctors.c
00000000 l    df *ABS*	00000000 alt_do_dtors.c
00000000 l    df *ABS*	00000000 alt_icache_flush_all.c
00000000 l    df *ABS*	00000000 alt_iic.c
00000000 l    df *ABS*	00000000 alt_iic_isr_register.c
00000000 l    df *ABS*	00000000 alt_io_redirect.c
0001b3c4 l     F .text	000000e4 alt_open_fd
00000000 l    df *ABS*	00000000 alt_irq_vars.c
00000000 l    df *ABS*	00000000 alt_open.c
0001b524 l     F .text	0000003c alt_get_errno
0001b560 l     F .text	000000ec alt_file_locked
00000000 l    df *ABS*	00000000 alt_tick.c
00000000 l    df *ABS*	00000000 altera_nios2_gen2_irq.c
00000000 l    df *ABS*	00000000 alt_find_dev.c
00000000 l    df *ABS*	00000000 alt_find_file.c
00000000 l    df *ABS*	00000000 alt_get_fd.c
00000000 l    df *ABS*	00000000 atexit.c
00000000 l    df *ABS*	00000000 exit.c
00000000 l    df *ABS*	00000000 memcmp.c
00000000 l    df *ABS*	00000000 __atexit.c
00000000 l    df *ABS*	00000000 __call_atexit.c
00000000 l    df *ABS*	00000000 alt_exit.c
00020324 g     O .bss	00000004 alt_instruction_exception_handler
00014c34 g     F .text	00000074 _mprec_log10
00014d20 g     F .text	0000008c __any_on
0001718c g     F .text	00000054 _isatty_r
0001ca8c g     O .rodata	00000028 __mprec_tinytens
00019b3c g     F .text	0000007c alt_main
0000b364 g     F .text	000000c8 D_en
0000e4d4 g     F .text	000000c0 _puts_r
00020368 g     O .bss	00000100 alt_irq
000171e0 g     F .text	00000060 _lseek_r
0001e75c g       *ABS*	00000000 __flash_rwdata_start
00018b58 g     F .text	00000088 .hidden __eqdf2
0000b29c g     F .text	000000c8 A_en
00020468 g       *ABS*	00000000 __alt_heap_start
0000aefc g     F .text	00000210 op
0000e498 g     F .text	0000003c printf
000173f8 g     F .text	0000009c _wcrtomb_r
000202c4 g     O .bss	00000002 usb_ctl_val
0000b1d4 g     F .text	000000c8 S_en
0001545c g     F .text	0000005c __sseek
00012ad8 g     F .text	00000010 __sinit
00020350 g     O .bss	00000018 keycode
000172a0 g     F .text	00000140 __swbuf_r
000135ac g     F .text	0000007c _setlocale_r
00012930 g     F .text	00000078 __sfmoreglue
0000b74c g     F .text	000000c8 SPACE_en
00019bdc g     F .text	00000024 __malloc_unlock
00002b64 g     F .text	00000080 UsbGetRetryCnt
00013a70 g     F .text	0000015c memmove
00001944 g     F .text	000000a4 IO_init
00012ac0 g     F .text	00000018 _cleanup
00003934 g     F .text	000000a8 drawSolidWall
00013cf4 g     F .text	000000a8 _Balloc
00003828 g     F .text	00000028 draw_driver_speed
00007e94 g     F .text	000002b8 drawCoin
0000d084 g     F .text	000000dc .hidden __gtdf2
0001b94c g     F .text	00000024 altera_nios2_gen2_irq_init
0000b684 g     F .text	000000c8 RIGHT_en
00000000 g     F .entry	0000000c __reset
00019eb0 g     F .text	00000078 times
00000020 g       *ABS*	00000000 __flash_exceptions_start
00017130 g     F .text	0000005c _fstat_r
000202fc g     O .bss	00000004 errno
000153d8 g     F .text	00000008 __seofread
00020310 g     O .bss	00000004 alt_argv
000266ec g       *ABS*	00000000 _gp
00019f28 g     F .text	00000030 usleep
0000853c g     F .text	00000684 game
0000ae48 g     F .text	000000b4 initOP
0000b814 g     F .text	000000c8 ENTER_en
00002c64 g     F .text	00000054 changeBackVolume
00000484 g     F .text	000000f0 displayScore
00005b2c g     F .text	000009f4 drawFiringWall
000034ac g     F .text	00000158 UpdateCoins
0001d50c g     O .rwdata	00000180 alt_fd_list
0001b970 g     F .text	00000090 alt_find_dev
00013928 g     F .text	00000148 memcpy
0000e710 g     F .text	00000008 _times_r
00012780 g     F .text	0000000c _cleanup_r
00019540 g     F .text	000000dc .hidden __floatsidf
0001b4a8 g     F .text	0000007c alt_io_redirect
0001e6f8 g     O .rwdata	00000004 Audio_Sel_ptr
000202c6 g     O .bss	00000001 data_size
00018be0 g     F .text	000000f4 .hidden __ltdf2
0001bffc g       *ABS*	00000000 __DTOR_END__
0000e594 g     F .text	00000014 puts
0001bbcc g     F .text	0000009c alt_exception_cause_generated_bad_addr
00003604 g     F .text	00000108 draw_driver
00015310 g     F .text	00000074 __fpclassifyd
00014b90 g     F .text	000000a4 __ratio
00016bbc g     F .text	0000001c __vfiprintf_internal
0001a78c g     F .text	0000021c altera_avalon_jtag_uart_read
0000dc34 g     F .text	00000014 malloc
0000e468 g     F .text	00000030 _printf_r
00009b8c g     F .text	00000694 placeBomb
0000c5d0 g     F .text	00000064 .hidden __udivsi3
0001988c g     F .text	000000ac isatty
0001cadc g     O .rodata	000000c8 __mprec_tens
00013628 g     F .text	0000000c __locale_charset
0000c464 g     F .text	00000074 .hidden __fixunsdfsi
000202f8 g     O .bss	00000004 __malloc_top_pad
000021f0 g     F .text	00000268 UsbGetConfigDesc2
0000b4f4 g     F .text	000000c8 DOWN_en
0001e72c g     O .rwdata	00000004 __mb_cur_max
00013658 g     F .text	0000000c _localeconv_r
00014128 g     F .text	0000003c __i2b
00012f5c g     F .text	000004c8 __sfvwrite_r
0000e624 g     F .text	00000054 _sbrk_r
00009468 g     F .text	00000490 canMove
000202cc g     O .bss	00000004 BI_counter
00017240 g     F .text	00000060 _read_r
0001e6ec g     O .rwdata	00000004 Back_Vol_ptr
0001e744 g     O .rwdata	00000004 alt_max_fd
00016e24 g     F .text	000000f0 _fclose_r
00012748 g     F .text	00000030 fflush
000202f4 g     O .bss	00000004 __malloc_max_sbrked_mem
000182ac g     F .text	000008ac .hidden __adddf3
00014938 g     F .text	0000010c __b2d
0001e70c g     O .rwdata	00000004 L1
00017ce8 g     F .text	000005c4 .hidden __umoddi3
00019a60 g     F .text	000000dc lseek
0001e71c g     O .rwdata	00000004 _global_impure_ptr
0000ba6c g     F .text	000000c8 ZERO_en
0000bbfc g     F .text	00000868 begin_anim
00014dac g     F .text	00000564 _realloc_r
00020468 g       *ABS*	00000000 __bss_end
0001b2d4 g     F .text	000000f0 alt_iic_isr_register
0001b844 g     F .text	00000108 alt_tick
000176ec g     F .text	000005fc .hidden __udivdi3
0001708c g     F .text	00000024 _fputwc_r
0001cab4 g     O .rodata	00000028 __mprec_bigtens
00013f0c g     F .text	00000104 __s2b
0000dadc g     F .text	000000a8 .hidden __floatunsidf
00014678 g     F .text	00000060 __mcmp
00001c40 g     F .text	00000100 UsbSetAddress
00012af8 g     F .text	00000018 __fp_lock_all
0001b288 g     F .text	0000004c alt_ic_irq_enabled
0001b7a8 g     F .text	0000009c alt_alarm_stop
00020318 g     O .bss	00000004 alt_irq_active
000000fc g     F .exceptions	000000d4 alt_irq_handler
0001d4e4 g     O .rwdata	00000028 alt_dev_null
000039dc g     F .text	000000a8 drawSoftWall
0001af44 g     F .text	00000020 alt_dcache_flush_all
00014010 g     F .text	00000068 __hi0bits
00001a70 g     F .text	00000080 IO_read
0000da5c g     F .text	00000080 .hidden __fixdfsi
0001e75c g       *ABS*	00000000 __ram_rwdata_end
0001e73c g     O .rwdata	00000008 alt_dev_list
00019f94 g     F .text	00000100 write
0001e6f0 g     O .rwdata	00000004 Bomb_Vol_ptr
0001cbf8 g       *ABS*	00000000 __ram_rodata_end
00019798 g     F .text	000000b8 fstat
0000bb34 g     F .text	000000c8 NINE_en
00018be0 g     F .text	000000f4 .hidden __ledf2
00002be4 g     F .text	00000080 UsbPrintMem
0000b5bc g     F .text	000000c8 LEFT_en
000143f0 g     F .text	00000140 __pow5mult
000156b0 g     F .text	0000150c ___vfiprintf_internal_r
00020308 g     O .bss	00000004 __nlocale_changed
0000c634 g     F .text	00000058 .hidden __umodsi3
00020468 g       *ABS*	00000000 end
0001a2c8 g     F .text	000000c0 altera_avalon_jtag_uart_init
000202e0 g     O .bss	00000004 i
000001d0 g     F .exceptions	00000060 alt_instruction_exception_entry
0001bffc g       *ABS*	00000000 __CTOR_LIST__
08000000 g       *ABS*	00000000 __alt_stack_pointer
0000921c g     F .text	0000024c move
0001ac44 g     F .text	0000007c alt_avalon_timer_sc_init
0000db84 g     F .text	00000064 .hidden __clzsi2
0001a9a8 g     F .text	00000224 altera_avalon_jtag_uart_write
00012ae8 g     F .text	00000004 __sfp_lock_acquire
00013844 g     F .text	000000e4 memchr
0000e718 g     F .text	000022dc ___vfprintf_internal_r
0001e6fc g     O .rwdata	00000004 BI
00002558 g     F .text	00000100 UsbClassRequest
00002d0c g     F .text	00000048 Audio_init
00012c4c g     F .text	00000310 _free_r
00013634 g     F .text	00000010 __locale_mb_cur_max
00003a84 g     F .text	000000cc cleanPlayer
0001be48 g     F .text	00000180 __call_exitprocs
00020304 g     O .bss	00000004 __mlocale_changed
0001e724 g     O .rwdata	00000004 __malloc_sbrk_base
00000230 g     F .text	0000003c _start
0002031c g     O .bss	00000004 _alt_tick_rate
0000e5c0 g     F .text	00000064 rand
00009ac8 g     F .text	000000c4 catchFire
00014530 g     F .text	00000148 __lshift
00002cb8 g     F .text	00000054 changeBombVolume
00020320 g     O .bss	00000004 _alt_nticks
00019c3c g     F .text	00000104 read
0001a100 g     F .text	00000064 alt_sys_init
0001bd30 g     F .text	00000118 __register_exitproc
00002d88 g     F .text	000000d4 Audio_Select
0000370c g     F .text	0000011c draw_driver_init
0000a658 g     F .text	000001d4 HPcheck
00014164 g     F .text	0000028c __multiply
0001a634 g     F .text	00000068 altera_avalon_jtag_uart_close
0000c68c g     F .text	00000028 .hidden __mulsi3
0001cbf8 g       *ABS*	00000000 __ram_rwdata_start
0001bffc g       *ABS*	00000000 __ram_rodata_start
00020328 g     O .bss	00000028 __malloc_current_mallinfo
00014a44 g     F .text	0000014c __d2b
00001d40 g     F .text	00000148 UsbGetDeviceDesc1
0001a164 g     F .text	00000060 altera_avalon_jtag_uart_read_fd
0001bb08 g     F .text	000000c4 alt_get_fd
0001adec g     F .text	00000158 alt_busy_sleep
00016cf4 g     F .text	00000054 _close_r
0001bcb4 g     F .text	0000007c memcmp
0001a224 g     F .text	00000050 altera_avalon_jtag_uart_close_fd
0000a8a0 g     F .text	000003c4 displayHP
00020468 g       *ABS*	00000000 __alt_stack_base
0001a274 g     F .text	00000054 altera_avalon_jtag_uart_ioctl_fd
00010acc g     F .text	00000154 __swsetup_r
0000c6b4 g     F .text	000009d0 .hidden __divdf3
000129a8 g     F .text	00000118 __sfp
00014ca8 g     F .text	00000078 __copybits
0001d064 g     O .rwdata	00000408 __malloc_av_
00012af4 g     F .text	00000004 __sinit_lock_release
00018cd4 g     F .text	0000086c .hidden __muldf3
00015384 g     F .text	00000054 __sread
000202e4 g     O .bss	00000004 counter
00002ae0 g     F .text	00000084 UsbWaitTDListDone
000043d0 g     F .text	000009f4 drawExplosion
0001ba00 g     F .text	00000108 alt_find_file
0001afa0 g     F .text	000000a4 alt_dev_llist_insert
00019bb8 g     F .text	00000024 __malloc_lock
00019dc4 g     F .text	000000b0 sbrk
000126ec g     F .text	0000005c _fflush_r
00016d48 g     F .text	000000dc _calloc_r
000202c7 g     O .bss	00000001 hot_plug_count
000202c0 g       *ABS*	00000000 __bss_start
00013bcc g     F .text	00000128 memset
0000ad7c g     F .text	000000cc main
00020314 g     O .bss	00000004 alt_envp
000202f0 g     O .bss	00000004 __malloc_max_total_mem
00002d54 g     F .text	00000034 Bomb
0001a1c4 g     F .text	00000060 altera_avalon_jtag_uart_write_fd
00002458 g     F .text	00000100 UsbSetConfig
000173e0 g     F .text	00000018 __swbuf
0000e5a8 g     F .text	00000018 srand
000202c8 g     O .bss	00000004 keycode_read
000081dc g     F .text	00000180 initED
000154b8 g     F .text	00000008 __sclose
000038a0 g     F .text	00000094 cleanCell
08000000 g       *ABS*	00000000 __alt_heap_limit
00016f14 g     F .text	00000014 fclose
00010e48 g     F .text	00001688 _dtoa_r
0000dc5c g     F .text	0000080c _malloc_r
00017554 g     F .text	00000030 __ascii_wctomb
0001e748 g     O .rwdata	00000004 alt_errno
00000634 g     F .text	0000101c Keyboard_INIT
00013424 g     F .text	000000c4 _fwalk
0000c4d8 g     F .text	00000084 .hidden __divsi3
00012b28 g     F .text	00000124 _malloc_trim_r
00002658 g     F .text	00000148 UsbGetHidDesc
0001bffc g       *ABS*	00000000 __CTOR_END__
000154c0 g     F .text	000000dc strcmp
0001bffc g       *ABS*	00000000 __flash_rodata_start
0001bffc g       *ABS*	00000000 __DTOR_LIST__
00003850 g     F .text	00000050 delay
00018b58 g     F .text	00000088 .hidden __nedf2
00004dc4 g     F .text	00000d68 drawBomb
00001b48 g     F .text	00000044 UsbRead
00006520 g     F .text	000018a4 drawBombAndExplosion
0001a0c8 g     F .text	00000038 alt_irq_init
0000b8dc g     F .text	000000c8 PLUS_en
00019d40 g     F .text	00000084 alt_release_fd
0001c8f8 g     O .rodata	00000100 .hidden __clz_tab
0000835c g     F .text	000000c8 ed
0000a220 g     F .text	00000438 UpdateBomb
00020300 g     O .bss	00000004 _PathLocale
0001bc68 g     F .text	00000014 atexit
00016c94 g     F .text	00000060 _write_r
00013664 g     F .text	00000018 setlocale
0000026c g     F .text	00000218 INIT
0001e720 g     O .rwdata	00000004 _impure_ptr
0002030c g     O .bss	00000004 alt_argc
0000814c g     F .text	00000090 cleanCoin
000124d0 g     F .text	0000021c __sflush_r
0001b0a4 g     F .text	00000060 _do_dtors
00013650 g     F .text	00000008 __locale_cjk_lang
00003004 g     F .text	000004a8 getCoins
00004310 g     F .text	000000c0 drawPlayerHurt
00000020 g       .exceptions	00000000 alt_irq_entry
000148d4 g     F .text	00000064 __ulp
00012b10 g     F .text	00000018 __fp_unlock_all
0001e734 g     O .rwdata	00000008 alt_fs_list
000027a0 g     F .text	00000340 UsbGetReportDesc
00000020 g       *ABS*	00000000 __ram_exceptions_start
0001367c g     F .text	0000000c localeconv
00008bc0 g     F .text	00000414 initStage
0001b124 g     F .text	00000050 alt_ic_isr_register
00000574 g     F .text	000000c0 displayTime
0001e6f4 g     O .rwdata	00000004 Bomb_Act_ptr
0001e75c g       *ABS*	00000000 _edata
00002e5c g     F .text	000001a8 deleteCoins
00020468 g       *ABS*	00000000 _end
00001af0 g     F .text	00000058 UsbWrite
00016f28 g     F .text	00000164 __fputwc
00000230 g       *ABS*	00000000 __ram_exceptions_end
0001a69c g     F .text	000000f0 altera_avalon_jtag_uart_ioctl
00001650 g     F .text	000002f4 FetchKey
0001b1fc g     F .text	0000008c alt_ic_irq_disable
0000a82c g     F .text	00000074 scoreCompare
000098f8 g     F .text	000001d0 onFire
000153e0 g     F .text	0000007c __swrite
0001e728 g     O .rwdata	00000004 __malloc_trim_threshold
00013644 g     F .text	0000000c __locale_msgcharset
0001bc7c g     F .text	00000038 exit
000134e8 g     F .text	000000c4 _fwalk_reent
000146d8 g     F .text	000001fc __mdiff
0000c55c g     F .text	00000074 .hidden __modsi3
08000000 g       *ABS*	00000000 __alt_data_end
00000020 g     F .exceptions	00000000 alt_exception
00012aec g     F .text	00000004 __sfp_lock_release
00000000 g       *ABS*	00000000 __alt_mem_sdram
000019e8 g     F .text	00000088 IO_write
0000b10c g     F .text	000000c8 W_en
0000b42c g     F .text	000000c8 UP_en
0001bfc8 g     F .text	00000034 _exit
0001acc0 g     F .text	0000012c alt_alarm_start
000175e0 g     F .text	0000010c .hidden __muldi3
00013688 g     F .text	000001bc __smakebuf_r
0000e678 g     F .text	00000098 strlen
0001b64c g     F .text	0000015c open
00003b50 g     F .text	000007c0 drawPlayer
0000d084 g     F .text	000000dc .hidden __gedf2
0000dbe8 g     F .text	0000004c clock
0001e730 g     O .rwdata	00000004 __wctomb
00015698 g     F .text	00000018 __sprint_r
0001b104 g     F .text	00000020 alt_icache_flush_all
0001e750 g     O .rwdata	00000004 alt_priority_mask
0001b174 g     F .text	00000088 alt_ic_irq_enable
000109f4 g     F .text	0000001c __vfprintf_internal
00017584 g     F .text	0000005c _wctomb_r
0000d160 g     F .text	000008fc .hidden __subdf3
00014078 g     F .text	000000b0 __lo0bits
0000b9a4 g     F .text	000000c8 MINOR_en
00002060 g     F .text	00000190 UsbGetConfigDesc1
0001e754 g     O .rwdata	00000008 alt_alarm_list
0001b044 g     F .text	00000060 _do_ctors
00001b8c g     F .text	000000b4 UsbSoftReset
00008fd4 g     F .text	00000248 initPlayer
00007dc4 g     F .text	000000d0 pushToCoinList
00017494 g     F .text	000000c0 wcrtomb
00019658 g     F .text	000000d8 close
00001e88 g     F .text	000001d8 UsbGetDeviceDesc2
0001e710 g     O .rwdata	00000004 L2
000199a0 g     F .text	00000084 alt_load
000170b0 g     F .text	00000080 fputwc
0000dc48 g     F .text	00000014 free
00012af0 g     F .text	00000004 __sinit_lock_acquire
00013dc4 g     F .text	00000148 __multadd
00013d9c g     F .text	00000028 _Bfree



Disassembly of section .entry:

00000000 <__reset>:
 * Jump to the _start entry point in the .text section if reset code
 * is allowed or if optimizing for RTL simulation.
 */
#if defined(ALT_ALLOW_CODE_AT_RESET) || defined(ALT_SIM_OPTIMIZE)
    /* Jump to the _start entry point in the .text section. */
    movhi r1, %hi(_start)
   0:	00400034 	movhi	at,0
    ori r1, r1, %lo(_start)
   4:	08408c14 	ori	at,at,560
    jmp r1
   8:	0800683a 	jmp	at
	...

Disassembly of section .exceptions:

00000020 <alt_exception>:

#else /* ALT_EXCEPTION_STACK disabled */
        /* 
         * Reserve space on normal stack for registers about to be pushed.
         */
        addi  sp, sp, -76
  20:	deffed04 	addi	sp,sp,-76
         * documentation for details).
         *
         * Leave a gap in the stack frame at 4(sp) for the muldiv handler to
         * store zero into.
         */
        stw   ra,  0(sp)
  24:	dfc00015 	stw	ra,0(sp)
        stw   r1,   8(sp)
  28:	d8400215 	stw	at,8(sp)
        stw   r2,  12(sp)
  2c:	d8800315 	stw	r2,12(sp)
        stw   r3,  16(sp)
  30:	d8c00415 	stw	r3,16(sp)
        stw   r4,  20(sp)
  34:	d9000515 	stw	r4,20(sp)
        stw   r5,  24(sp)
  38:	d9400615 	stw	r5,24(sp)
        stw   r6,  28(sp)
  3c:	d9800715 	stw	r6,28(sp)
        stw   r7,  32(sp)
  40:	d9c00815 	stw	r7,32(sp)
        rdctl r5, estatus   /* Read early to avoid usage stall */
  44:	000b307a 	rdctl	r5,estatus
        stw   r8,  36(sp)
  48:	da000915 	stw	r8,36(sp)
        stw   r9,  40(sp)
  4c:	da400a15 	stw	r9,40(sp)
        stw   r10, 44(sp)
  50:	da800b15 	stw	r10,44(sp)
        stw   r11, 48(sp)
  54:	dac00c15 	stw	r11,48(sp)
        stw   r12, 52(sp)
  58:	db000d15 	stw	r12,52(sp)
        stw   r13, 56(sp)
  5c:	db400e15 	stw	r13,56(sp)
        stw   r14, 60(sp)
  60:	db800f15 	stw	r14,60(sp)
        stw   r15, 64(sp)
  64:	dbc01015 	stw	r15,64(sp)
        /*
         * ea-4 contains the address of the instruction being executed
         * when the exception occured. For interrupt exceptions, we will
         * will be re-issue the isntruction. Store it in 72(sp)
         */
        stw   r5,  68(sp)  /* estatus */
  68:	d9401115 	stw	r5,68(sp)
        addi  r15, ea, -4  /* instruction that caused exception */
  6c:	ebffff04 	addi	r15,ea,-4
        stw   r15,  72(sp)
  70:	dbc01215 	stw	r15,72(sp)
#else
        /*
         * Test to see if the exception was a software exception or caused 
         * by an external interrupt, and vector accordingly.
         */
        rdctl r4, ipending
  74:	0009313a 	rdctl	r4,ipending
        andi  r2, r5, 1
  78:	2880004c 	andi	r2,r5,1
        beq   r2, zero, .Lnot_irq
  7c:	10000326 	beq	r2,zero,8c <alt_exception+0x6c>
        beq   r4, zero, .Lnot_irq
  80:	20000226 	beq	r4,zero,8c <alt_exception+0x6c>
        /*
         * Now that all necessary registers have been preserved, call 
         * alt_irq_handler() to process the interrupts.
         */

        call alt_irq_handler
  84:	00000fc0 	call	fc <alt_irq_handler>

        .section .exceptions.irqreturn, "xa"

        br    .Lexception_exit
  88:	00000706 	br	a8 <alt_exception+0x88>
         * upon completion, so we write ea (address of instruction *after*
         * the one where the exception occured) into 72(sp). The actual
         * instruction that caused the exception is written in r2, which these
         * handlers will utilize.
         */
        stw ea, 72(sp) /* EA is PC+4 so will skip over instruction causing exception */
  8c:	df401215 	stw	ea,72(sp)
.Lunknown_16bit:
        addi.n r4, r4, 2 /* Need PC+2 to skip over instruction causing exception */
        stw r4, 72(sp)

#else /* CDX is not Enabled and all instructions are 32bits */
        ldw r2, -4(ea) /* Instruction value that caused exception */
  90:	e8bfff17 	ldw	r2,-4(ea)
         * debugger is present) or go into an infinite loop since the
         * handling behavior is undefined; in that case we will not return here.
         */

        /* Load exception-causing address as first argument (r4) */
        addi   r4, ea, -4
  94:	e93fff04 	addi	r4,ea,-4

        /* Call the instruction-exception entry */
        call   alt_instruction_exception_entry
  98:	00001d00 	call	1d0 <alt_instruction_exception_entry>
         * instruction
         *
         * Return code was 0: Skip. The instruction after the exception is
         * already stored in 72(sp).
         */
        bne   r2, r0, .Lexception_exit
  9c:	1000021e 	bne	r2,zero,a8 <alt_exception+0x88>

        /*
         * Otherwise, modify 72(sp) to re-issue the instruction that caused the
         * exception.
         */
        addi  r15, ea, -4  /* instruction that caused exception */
  a0:	ebffff04 	addi	r15,ea,-4
        stw   r15,  72(sp)
  a4:	dbc01215 	stw	r15,72(sp)
        /* 
         * Restore the saved registers, so that all general purpose registers 
         * have been restored to their state at the time the interrupt occured.
         */

        ldw   r5,  68(sp)
  a8:	d9401117 	ldw	r5,68(sp)
        ldw   ea,  72(sp)  /* This becomes the PC once eret is executed */
  ac:	df401217 	ldw	ea,72(sp)
        ldw   ra,   0(sp)
  b0:	dfc00017 	ldw	ra,0(sp)

        wrctl estatus, r5
  b4:	2801707a 	wrctl	estatus,r5

        ldw   r1,   8(sp)
  b8:	d8400217 	ldw	at,8(sp)
        ldw   r2,  12(sp)
  bc:	d8800317 	ldw	r2,12(sp)
        ldw   r3,  16(sp)
  c0:	d8c00417 	ldw	r3,16(sp)
        ldw   r4,  20(sp)
  c4:	d9000517 	ldw	r4,20(sp)
        ldw   r5,  24(sp)
  c8:	d9400617 	ldw	r5,24(sp)
        ldw   r6,  28(sp)
  cc:	d9800717 	ldw	r6,28(sp)
        ldw   r7,  32(sp)
  d0:	d9c00817 	ldw	r7,32(sp)

#if defined(ALT_EXCEPTION_STACK) && defined(ALT_STACK_CHECK)
        ldw   et, %gprel(alt_exception_old_stack_limit)(gp)
#endif

        ldw   r8,  36(sp)
  d4:	da000917 	ldw	r8,36(sp)
        ldw   r9,  40(sp)
  d8:	da400a17 	ldw	r9,40(sp)
        ldw   r10, 44(sp)
  dc:	da800b17 	ldw	r10,44(sp)
        ldw   r11, 48(sp)
  e0:	dac00c17 	ldw	r11,48(sp)
        ldw   r12, 52(sp)
  e4:	db000d17 	ldw	r12,52(sp)
        ldw   r13, 56(sp)
  e8:	db400e17 	ldw	r13,56(sp)
        ldw   r14, 60(sp)
  ec:	db800f17 	ldw	r14,60(sp)
        ldw   r15, 64(sp)
  f0:	dbc01017 	ldw	r15,64(sp)
        stw   et, %gprel(alt_stack_limit_value)(gp)
        stw   zero, %gprel(alt_exception_old_stack_limit)(gp)
#endif /* ALT_STACK_CHECK */
        ldw   sp,  76(sp)
#else /* ALT_EXCEPTION_STACK disabled */
        addi  sp, sp, 76
  f4:	dec01304 	addi	sp,sp,76

        /*
         * Return to the interrupted instruction.
         */

        eret
  f8:	ef80083a 	eret

000000fc <alt_irq_handler>:
 * instruction is present if the macro ALT_CI_INTERRUPT_VECTOR defined.
 */

void alt_irq_handler (void) __attribute__ ((section (".exceptions")));
void alt_irq_handler (void)
{
  fc:	defff904 	addi	sp,sp,-28
 100:	dfc00615 	stw	ra,24(sp)
 104:	df000515 	stw	fp,20(sp)
 108:	df000504 	addi	fp,sp,20
  
  /*
   * Notify the operating system that we are at interrupt level.
   */ 
  
  ALT_OS_INT_ENTER();
 10c:	0001883a 	nop
#ifndef NIOS2_EIC_PRESENT
static ALT_INLINE alt_u32 ALT_ALWAYS_INLINE alt_irq_pending (void)
{
  alt_u32 active;

  NIOS2_READ_IPENDING (active);
 110:	0005313a 	rdctl	r2,ipending
 114:	e0bffe15 	stw	r2,-8(fp)

  return active;
 118:	e0bffe17 	ldw	r2,-8(fp)
   * Consider the case where the high priority interupt is asserted during
   * the interrupt entry sequence for a lower priority interrupt to see why
   * this is the case.
   */

  active = alt_irq_pending ();
 11c:	e0bffb15 	stw	r2,-20(fp)

  do
  {
    i = 0;
 120:	e03ffd15 	stw	zero,-12(fp)
    mask = 1;
 124:	00800044 	movi	r2,1
 128:	e0bffc15 	stw	r2,-16(fp)
     * called to clear the interrupt condition.
     */

    do
    {
      if (active & mask)
 12c:	e0fffb17 	ldw	r3,-20(fp)
 130:	e0bffc17 	ldw	r2,-16(fp)
 134:	1884703a 	and	r2,r3,r2
 138:	10001426 	beq	r2,zero,18c <alt_irq_handler+0x90>
      { 
#ifdef ALT_ENHANCED_INTERRUPT_API_PRESENT
        alt_irq[i].handler(alt_irq[i].context); 
 13c:	008000b4 	movhi	r2,2
 140:	1080da04 	addi	r2,r2,872
 144:	e0fffd17 	ldw	r3,-12(fp)
 148:	180690fa 	slli	r3,r3,3
 14c:	10c5883a 	add	r2,r2,r3
 150:	10c00017 	ldw	r3,0(r2)
 154:	008000b4 	movhi	r2,2
 158:	1080da04 	addi	r2,r2,872
 15c:	e13ffd17 	ldw	r4,-12(fp)
 160:	200890fa 	slli	r4,r4,3
 164:	1105883a 	add	r2,r2,r4
 168:	10800104 	addi	r2,r2,4
 16c:	10800017 	ldw	r2,0(r2)
 170:	1009883a 	mov	r4,r2
 174:	183ee83a 	callr	r3
#else
        alt_irq[i].handler(alt_irq[i].context, i); 
#endif
        break;
 178:	0001883a 	nop
#ifndef NIOS2_EIC_PRESENT
static ALT_INLINE alt_u32 ALT_ALWAYS_INLINE alt_irq_pending (void)
{
  alt_u32 active;

  NIOS2_READ_IPENDING (active);
 17c:	0005313a 	rdctl	r2,ipending
 180:	e0bfff15 	stw	r2,-4(fp)

  return active;
 184:	e0bfff17 	ldw	r2,-4(fp)
 188:	00000706 	br	1a8 <alt_irq_handler+0xac>
      }
      mask <<= 1;
 18c:	e0bffc17 	ldw	r2,-16(fp)
 190:	1085883a 	add	r2,r2,r2
 194:	e0bffc15 	stw	r2,-16(fp)
      i++;
 198:	e0bffd17 	ldw	r2,-12(fp)
 19c:	10800044 	addi	r2,r2,1
 1a0:	e0bffd15 	stw	r2,-12(fp)

    } while (1);
 1a4:	003fe106 	br	12c <__alt_data_end+0xf800012c>

    active = alt_irq_pending ();
 1a8:	e0bffb15 	stw	r2,-20(fp)
    
  } while (active);
 1ac:	e0bffb17 	ldw	r2,-20(fp)
 1b0:	103fdb1e 	bne	r2,zero,120 <__alt_data_end+0xf8000120>

  /*
   * Notify the operating system that interrupt processing is complete.
   */ 

  ALT_OS_INT_EXIT();
 1b4:	0001883a 	nop
}
 1b8:	0001883a 	nop
 1bc:	e037883a 	mov	sp,fp
 1c0:	dfc00117 	ldw	ra,4(sp)
 1c4:	df000017 	ldw	fp,0(sp)
 1c8:	dec00204 	addi	sp,sp,8
 1cc:	f800283a 	ret

000001d0 <alt_instruction_exception_entry>:
 * that handler if it has been registered. Absent a handler, it will
 * break break or hang as discussed below.
 */
int 
alt_instruction_exception_entry (alt_u32 exception_pc)
{
 1d0:	defffb04 	addi	sp,sp,-20
 1d4:	dfc00415 	stw	ra,16(sp)
 1d8:	df000315 	stw	fp,12(sp)
 1dc:	df000304 	addi	fp,sp,12
 1e0:	e13fff15 	stw	r4,-4(fp)
  cause = ( (cause & NIOS2_EXCEPTION_REG_CAUSE_MASK) >>
              NIOS2_EXCEPTION_REG_CAUSE_OFST );

  NIOS2_READ_BADADDR(badaddr);
#else
  cause = NIOS2_EXCEPTION_CAUSE_NOT_PRESENT;
 1e4:	00bfffc4 	movi	r2,-1
 1e8:	e0bffd15 	stw	r2,-12(fp)
  badaddr = 0;
 1ec:	e03ffe15 	stw	zero,-8(fp)
#endif /* NIOS2_HAS_EXTRA_EXCEPTION_INFO */

  if(alt_instruction_exception_handler) {
 1f0:	d0a70e17 	ldw	r2,-25544(gp)
 1f4:	10000726 	beq	r2,zero,214 <alt_instruction_exception_entry+0x44>
     * Call handler. Its return value indicates whether the exception-causing
     * instruction should be re-issued. The code that called us,
     * alt_eceptions_entry.S, will look at this value and adjust the ea
     * register as necessary
     */
    return alt_instruction_exception_handler(cause, exception_pc, badaddr);
 1f8:	d0a70e17 	ldw	r2,-25544(gp)
 1fc:	e0fffd17 	ldw	r3,-12(fp)
 200:	e1bffe17 	ldw	r6,-8(fp)
 204:	e17fff17 	ldw	r5,-4(fp)
 208:	1809883a 	mov	r4,r3
 20c:	103ee83a 	callr	r2
 210:	00000206 	br	21c <alt_instruction_exception_entry+0x4c>
   *    (a peripheral which negates its interrupt output before its
   *    interrupt handler has been executed will cause spurious interrupts)
   */
  else {
#ifdef NIOS2_HAS_DEBUG_STUB
    NIOS2_BREAK();
 214:	003da03a 	break	0
      ;
#endif /* NIOS2_HAS_DEBUG_STUB */
  }

  /* We should not get here. Remove compiler warning. */
  return NIOS2_EXCEPTION_RETURN_REISSUE_INST;
 218:	0005883a 	mov	r2,zero
}
 21c:	e037883a 	mov	sp,fp
 220:	dfc00117 	ldw	ra,4(sp)
 224:	df000017 	ldw	fp,0(sp)
 228:	dec00204 	addi	sp,sp,8
 22c:	f800283a 	ret

Disassembly of section .text:

00000230 <_start>:

    /*
     * Now that the caches are initialized, set up the stack pointer and global pointer.
     * The values provided by the linker are assumed to be correctly aligned.
     */
    movhi sp, %hi(__alt_stack_pointer)
     230:	06c20034 	movhi	sp,2048
    ori sp, sp, %lo(__alt_stack_pointer)
     234:	dec00014 	ori	sp,sp,0
    movhi gp, %hi(_gp)
     238:	068000b4 	movhi	gp,2
    ori gp, gp, %lo(_gp)
     23c:	d699bb14 	ori	gp,gp,26348
 */
#ifndef ALT_SIM_OPTIMIZE
    /* Log that the BSS is about to be cleared. */
    ALT_LOG_PUTS(alt_log_msg_bss)

    movhi r2, %hi(__bss_start)
     240:	008000b4 	movhi	r2,2
    ori r2, r2, %lo(__bss_start)
     244:	1080b014 	ori	r2,r2,704

    movhi r3, %hi(__bss_end)
     248:	00c000b4 	movhi	r3,2
    ori r3, r3, %lo(__bss_end)
     24c:	18c11a14 	ori	r3,r3,1128

    beq r2, r3, 1f
     250:	10c00326 	beq	r2,r3,260 <_start+0x30>

0:
    stw zero, (r2)
     254:	10000015 	stw	zero,0(r2)
    addi r2, r2, 4
     258:	10800104 	addi	r2,r2,4
    bltu r2, r3, 0b
     25c:	10fffd36 	bltu	r2,r3,254 <__alt_data_end+0xf8000254>
     * section aren't defined until alt_load() has been called).
     */
    mov   et, zero
#endif

    call alt_load
     260:	00199a00 	call	199a0 <alt_load>

    /* Log that alt_main is about to be called. */
    ALT_LOG_PUTS(alt_log_msg_alt_main)

    /* Call the C entry point. It should never return. */
    call alt_main
     264:	0019b3c0 	call	19b3c <alt_main>

00000268 <alt_after_alt_main>:

    /* Wait in infinite loop in case alt_main does return. */
alt_after_alt_main:
    br alt_after_alt_main
     268:	003fff06 	br	268 <__alt_data_end+0xf8000268>

0000026c <INIT>:
#include "./header_file/draw_driver.h"
#include "./header_file/USB_Keyboard_Driver.h"
#include "./header_file/audio_driver.h"

volatile unsigned int * Boot_Up = (unsigned int *) 0x080000d0;

     26c:	defff604 	addi	sp,sp,-40
     270:	dfc00915 	stw	ra,36(sp)
     274:	df000815 	stw	fp,32(sp)
     278:	dc000715 	stw	r16,28(sp)
     27c:	df000804 	addi	fp,sp,32

void INIT(){
     280:	000370c0 	call	370c <draw_driver_init>
///////////////////////////////////////////////////////////////////////Init Stage
	draw_driver_init();

     284:	e03ffb15 	stw	zero,-20(fp)
     288:	00001e06 	br	304 <INIT+0x98>
	//Draw Black Background
	for (int i = 0; i < 4; i++ ){
     28c:	e03ffc15 	stw	zero,-16(fp)
     290:	00001606 	br	2ec <INIT+0x80>
		//Loop  Row
     294:	01402804 	movi	r5,160
     298:	e13ffb17 	ldw	r4,-20(fp)
     29c:	000c68c0 	call	c68c <__mulsi3>
     2a0:	1021883a 	mov	r16,r2
     2a4:	01402804 	movi	r5,160
     2a8:	e13ffc17 	ldw	r4,-16(fp)
     2ac:	000c68c0 	call	c68c <__mulsi3>
     2b0:	1007883a 	mov	r3,r2
     2b4:	00800104 	movi	r2,4
     2b8:	d8800215 	stw	r2,8(sp)
     2bc:	d8c00115 	stw	r3,4(sp)
     2c0:	dc000015 	stw	r16,0(sp)
     2c4:	01c02984 	movi	r7,166
     2c8:	01808f44 	movi	r6,573
     2cc:	014001c4 	movi	r5,7
     2d0:	01006784 	movi	r4,414
     2d4:	00036040 	call	3604 <draw_driver>
		for (int z = 0; z < 3; z++){
     2d8:	01000044 	movi	r4,1
     2dc:	00038500 	call	3850 <delay>
void INIT(){
///////////////////////////////////////////////////////////////////////Init Stage
	draw_driver_init();

	//Draw Black Background
	for (int i = 0; i < 4; i++ ){
     2e0:	e0bffc17 	ldw	r2,-16(fp)
     2e4:	10800044 	addi	r2,r2,1
     2e8:	e0bffc15 	stw	r2,-16(fp)
     2ec:	e0bffc17 	ldw	r2,-16(fp)
     2f0:	108000d0 	cmplti	r2,r2,3
     2f4:	103fe71e 	bne	r2,zero,294 <__alt_data_end+0xf8000294>


void INIT(){
///////////////////////////////////////////////////////////////////////Init Stage
	draw_driver_init();

     2f8:	e0bffb17 	ldw	r2,-20(fp)
     2fc:	10800044 	addi	r2,r2,1
     300:	e0bffb15 	stw	r2,-20(fp)
     304:	e0bffb17 	ldw	r2,-20(fp)
     308:	10800110 	cmplti	r2,r2,4
     30c:	103fdf1e 	bne	r2,zero,28c <__alt_data_end+0xf800028c>
		//Loop  Row
		for (int z = 0; z < 3; z++){
			draw_driver(414,7,414+159,7+159,i*160,160*z,4);
			delay(1);
		}
	}
     310:	00800104 	movi	r2,4
     314:	d8800215 	stw	r2,8(sp)
     318:	00800284 	movi	r2,10
     31c:	d8800115 	stw	r2,4(sp)
     320:	00800284 	movi	r2,10
     324:	d8800015 	stw	r2,0(sp)
     328:	01c00944 	movi	r7,37
     32c:	01803984 	movi	r6,230
     330:	01400404 	movi	r5,16
     334:	01000344 	movi	r4,13
     338:	00036040 	call	3604 <draw_driver>

     33c:	0002d0c0 	call	2d0c <Audio_init>
	//Wait until the Boot_Up bottom being pressed
	while (!(*Boot_Up)){}
     340:	e03ffd15 	stw	zero,-12(fp)
     344:	00001306 	br	394 <INIT+0x128>

     348:	01400284 	movi	r5,10
     34c:	e13ffd17 	ldw	r4,-12(fp)
     350:	000c68c0 	call	c68c <__mulsi3>
     354:	1007883a 	mov	r3,r2
     358:	00800104 	movi	r2,4
     35c:	d8800215 	stw	r2,8(sp)
     360:	00806404 	movi	r2,400
     364:	d8800115 	stw	r2,4(sp)
     368:	d8c00015 	stw	r3,0(sp)
     36c:	01c04504 	movi	r7,276
     370:	01800704 	movi	r6,28
     374:	01404104 	movi	r5,260
     378:	01000304 	movi	r4,12
     37c:	00036040 	call	3604 <draw_driver>

     380:	01000784 	movi	r4,30
     384:	00038500 	call	3850 <delay>
			delay(1);
		}
	}

	//Wait until the Boot_Up bottom being pressed
	while (!(*Boot_Up)){}
     388:	e0bffd17 	ldw	r2,-12(fp)
     38c:	10800044 	addi	r2,r2,1
     390:	e0bffd15 	stw	r2,-12(fp)
     394:	e0bffd17 	ldw	r2,-12(fp)
     398:	10800310 	cmplti	r2,r2,12
     39c:	103fea1e 	bne	r2,zero,348 <__alt_data_end+0xf8000348>



	draw_driver(13,16,13+217,16+21,10,10,4);
	Audio_init();
     3a0:	00800104 	movi	r2,4
     3a4:	d8800215 	stw	r2,8(sp)
     3a8:	00800c84 	movi	r2,50
     3ac:	d8800115 	stw	r2,4(sp)
     3b0:	00800244 	movi	r2,9
     3b4:	d8800015 	stw	r2,0(sp)
     3b8:	01c01484 	movi	r7,82
     3bc:	01803ac4 	movi	r6,235
     3c0:	01400e84 	movi	r5,58
     3c4:	01000344 	movi	r4,13
     3c8:	00036040 	call	3604 <draw_driver>

     3cc:	01007d04 	movi	r4,500
     3d0:	00038500 	call	3850 <delay>
	for (int i = 0; i < 12; i++){
		draw_driver(12,260,28,276,i*10,400,4);
     3d4:	00800304 	movi	r2,12
     3d8:	e0bffe15 	stw	r2,-8(fp)
     3dc:	00001306 	br	42c <INIT+0x1c0>
		delay(30);
     3e0:	01400284 	movi	r5,10
     3e4:	e13ffe17 	ldw	r4,-8(fp)
     3e8:	000c68c0 	call	c68c <__mulsi3>
     3ec:	1007883a 	mov	r3,r2
     3f0:	00800104 	movi	r2,4
     3f4:	d8800215 	stw	r2,8(sp)
     3f8:	00806404 	movi	r2,400
     3fc:	d8800115 	stw	r2,4(sp)
     400:	d8c00015 	stw	r3,0(sp)
     404:	01c04504 	movi	r7,276
     408:	01800704 	movi	r6,28
     40c:	01404104 	movi	r5,260
     410:	01000304 	movi	r4,12
     414:	00036040 	call	3604 <draw_driver>
	}
     418:	01000784 	movi	r4,30
     41c:	00038500 	call	3850 <delay>

	draw_driver(13,16,13+217,16+21,10,10,4);
	Audio_init();

	for (int i = 0; i < 12; i++){
		draw_driver(12,260,28,276,i*10,400,4);
     420:	e0bffe17 	ldw	r2,-8(fp)
     424:	10800044 	addi	r2,r2,1
     428:	e0bffe15 	stw	r2,-8(fp)
     42c:	e0bffe17 	ldw	r2,-8(fp)
     430:	10800510 	cmplti	r2,r2,20
     434:	103fea1e 	bne	r2,zero,3e0 <__alt_data_end+0xf80003e0>
		delay(30);
	}

	draw_driver(13,58,13+222,24+58,9,50,4);
	delay(500);
     438:	00800104 	movi	r2,4
     43c:	d8800215 	stw	r2,8(sp)
     440:	00801684 	movi	r2,90
     444:	d8800115 	stw	r2,4(sp)
     448:	00800304 	movi	r2,12
     44c:	d8800015 	stw	r2,0(sp)
     450:	01c02004 	movi	r7,128
     454:	01803e44 	movi	r6,249
     458:	01401b44 	movi	r5,109
     45c:	010002c4 	movi	r4,11
     460:	00036040 	call	3604 <draw_driver>

     464:	00006340 	call	634 <Keyboard_INIT>
	for (int i = 12; i < 20; i++){
		draw_driver(12,260,28,276,i*10,400,4);
		delay(30);
     468:	0001883a 	nop
     46c:	e6ffff04 	addi	sp,fp,-4
     470:	dfc00217 	ldw	ra,8(sp)
     474:	df000117 	ldw	fp,4(sp)
     478:	dc000017 	ldw	r16,0(sp)
     47c:	dec00304 	addi	sp,sp,12
     480:	f800283a 	ret

00000484 <displayScore>:
#include "./header_file/LEDandHEX.h"


void displayScore(player* playerA, player* playerB){
     484:	defff804 	addi	sp,sp,-32
     488:	dfc00715 	stw	ra,28(sp)
     48c:	df000615 	stw	fp,24(sp)
     490:	df000604 	addi	fp,sp,24
     494:	e13ffe15 	stw	r4,-8(fp)
     498:	e17fff15 	stw	r5,-4(fp)
	if(playerA->score<=99){
     49c:	e0bffe17 	ldw	r2,-8(fp)
     4a0:	10800317 	ldw	r2,12(r2)
     4a4:	10801928 	cmpgeui	r2,r2,100
     4a8:	1000141e 	bne	r2,zero,4fc <displayScore+0x78>
		unsigned int score0 = playerA->score%10;
     4ac:	e0bffe17 	ldw	r2,-8(fp)
     4b0:	10800317 	ldw	r2,12(r2)
     4b4:	01400284 	movi	r5,10
     4b8:	1009883a 	mov	r4,r2
     4bc:	000c6340 	call	c634 <__umodsi3>
     4c0:	e0bffa15 	stw	r2,-24(fp)
		unsigned int score1 = playerA->score/10;
     4c4:	e0bffe17 	ldw	r2,-8(fp)
     4c8:	10800317 	ldw	r2,12(r2)
     4cc:	01400284 	movi	r5,10
     4d0:	1009883a 	mov	r4,r2
     4d4:	000c5d00 	call	c5d0 <__udivsi3>
     4d8:	e0bffb15 	stw	r2,-20(fp)
		*player1Score1 = score1;
     4dc:	00820034 	movhi	r2,2048
     4e0:	10805804 	addi	r2,r2,352
     4e4:	e0fffb17 	ldw	r3,-20(fp)
     4e8:	10c00015 	stw	r3,0(r2)
		*player1Score0 = score0;
     4ec:	00820034 	movhi	r2,2048
     4f0:	10805c04 	addi	r2,r2,368
     4f4:	e0fffa17 	ldw	r3,-24(fp)
     4f8:	10c00015 	stw	r3,0(r2)
	}
	if(playerB->score<=99){
     4fc:	e0bfff17 	ldw	r2,-4(fp)
     500:	10800317 	ldw	r2,12(r2)
     504:	10801928 	cmpgeui	r2,r2,100
     508:	1000141e 	bne	r2,zero,55c <displayScore+0xd8>
		unsigned int score0 = playerB->score%10;
     50c:	e0bfff17 	ldw	r2,-4(fp)
     510:	10800317 	ldw	r2,12(r2)
     514:	01400284 	movi	r5,10
     518:	1009883a 	mov	r4,r2
     51c:	000c6340 	call	c634 <__umodsi3>
     520:	e0bffc15 	stw	r2,-16(fp)
		unsigned int score1 = playerB->score/10;
     524:	e0bfff17 	ldw	r2,-4(fp)
     528:	10800317 	ldw	r2,12(r2)
     52c:	01400284 	movi	r5,10
     530:	1009883a 	mov	r4,r2
     534:	000c5d00 	call	c5d0 <__udivsi3>
     538:	e0bffd15 	stw	r2,-12(fp)
		*player2Score1 = score1;
     53c:	00820034 	movhi	r2,2048
     540:	10806004 	addi	r2,r2,384
     544:	e0fffd17 	ldw	r3,-12(fp)
     548:	10c00015 	stw	r3,0(r2)
		*player2Score0 = score0;
     54c:	00820034 	movhi	r2,2048
     550:	10806404 	addi	r2,r2,400
     554:	e0fffc17 	ldw	r3,-16(fp)
     558:	10c00015 	stw	r3,0(r2)
	}

}
     55c:	0001883a 	nop
     560:	e037883a 	mov	sp,fp
     564:	dfc00117 	ldw	ra,4(sp)
     568:	df000017 	ldw	fp,0(sp)
     56c:	dec00204 	addi	sp,sp,8
     570:	f800283a 	ret

00000574 <displayTime>:

void displayTime(unsigned int sec){
     574:	defff904 	addi	sp,sp,-28
     578:	dfc00615 	stw	ra,24(sp)
     57c:	df000515 	stw	fp,20(sp)
     580:	df000504 	addi	fp,sp,20
     584:	e13fff15 	stw	r4,-4(fp)
	if(sec>180){sec = 180;}
     588:	e0bfff17 	ldw	r2,-4(fp)
     58c:	10802d70 	cmpltui	r2,r2,181
     590:	1000021e 	bne	r2,zero,59c <displayTime+0x28>
     594:	00802d04 	movi	r2,180
     598:	e0bfff15 	stw	r2,-4(fp)
	unsigned int min = sec/60;
     59c:	e0bfff17 	ldw	r2,-4(fp)
     5a0:	01400f04 	movi	r5,60
     5a4:	1009883a 	mov	r4,r2
     5a8:	000c5d00 	call	c5d0 <__udivsi3>
     5ac:	e0bffb15 	stw	r2,-20(fp)
	unsigned int sec_offset = sec%60;
     5b0:	e0bfff17 	ldw	r2,-4(fp)
     5b4:	01400f04 	movi	r5,60
     5b8:	1009883a 	mov	r4,r2
     5bc:	000c6340 	call	c634 <__umodsi3>
     5c0:	e0bffc15 	stw	r2,-16(fp)
	unsigned int sec_1 =sec_offset/10;
     5c4:	e0bffc17 	ldw	r2,-16(fp)
     5c8:	01400284 	movi	r5,10
     5cc:	1009883a 	mov	r4,r2
     5d0:	000c5d00 	call	c5d0 <__udivsi3>
     5d4:	e0bffd15 	stw	r2,-12(fp)
	unsigned int sec_0 =sec_offset%10;
     5d8:	e0bffc17 	ldw	r2,-16(fp)
     5dc:	01400284 	movi	r5,10
     5e0:	1009883a 	mov	r4,r2
     5e4:	000c6340 	call	c634 <__umodsi3>
     5e8:	e0bffe15 	stw	r2,-8(fp)
	*timeScreen2 = min;
     5ec:	00820034 	movhi	r2,2048
     5f0:	10805004 	addi	r2,r2,320
     5f4:	e0fffb17 	ldw	r3,-20(fp)
     5f8:	10c00015 	stw	r3,0(r2)
	*timeScreen1 = sec_1;
     5fc:	00820034 	movhi	r2,2048
     600:	10805404 	addi	r2,r2,336
     604:	e0fffd17 	ldw	r3,-12(fp)
     608:	10c00015 	stw	r3,0(r2)
	*timeScreen0 = sec_0;
     60c:	00820034 	movhi	r2,2048
     610:	10804c04 	addi	r2,r2,304
     614:	e0fffe17 	ldw	r3,-8(fp)
     618:	10c00015 	stw	r3,0(r2)
}
     61c:	0001883a 	nop
     620:	e037883a 	mov	sp,fp
     624:	dfc00117 	ldw	ra,4(sp)
     628:	df000017 	ldw	fp,0(sp)
     62c:	dec00204 	addi	sp,sp,8
     630:	f800283a 	ret

00000634 <Keyboard_INIT>:
alt_u8 	hot_plug_count;

int keycode_read;


void Keyboard_INIT(){
     634:	deffed04 	addi	sp,sp,-76
     638:	dfc01215 	stw	ra,72(sp)
     63c:	df001115 	stw	fp,68(sp)
     640:	df001104 	addi	fp,sp,68

	IO_init();
     644:	00019440 	call	1944 <IO_init>
			//UsbRead(0xc008);
			usleep(10*10000);
		}*/

		alt_u16 intStat;
		alt_u16 fs_device = 0;
     648:	e03ffe0d 	sth	zero,-8(fp)
		alt_u16 code;

		ctl_reg = 0;
     64c:	d026f50d 	sth	zero,-25644(gp)
		no_device = 0;
     650:	d026f58d 	sth	zero,-25642(gp)


		printf("USB keyboard setup...\n\n");
     654:	010000b4 	movhi	r4,2
     658:	212fff04 	addi	r4,r4,-16388
     65c:	000e5940 	call	e594 <puts>
		USB_HOT_PLUG:


		draw_driver(414,7,414+160,7+40,12,130,4);
     660:	00800104 	movi	r2,4
     664:	d8800215 	stw	r2,8(sp)
     668:	00802084 	movi	r2,130
     66c:	d8800115 	stw	r2,4(sp)
     670:	00800304 	movi	r2,12
     674:	d8800015 	stw	r2,0(sp)
     678:	01c00bc4 	movi	r7,47
     67c:	01808f84 	movi	r6,574
     680:	014001c4 	movi	r5,7
     684:	01006784 	movi	r4,414
     688:	00036040 	call	3604 <draw_driver>
		draw_driver(414,7,414+160,7+40,12+160,130,4);
     68c:	00800104 	movi	r2,4
     690:	d8800215 	stw	r2,8(sp)
     694:	00802084 	movi	r2,130
     698:	d8800115 	stw	r2,4(sp)
     69c:	00802b04 	movi	r2,172
     6a0:	d8800015 	stw	r2,0(sp)
     6a4:	01c00bc4 	movi	r7,47
     6a8:	01808f84 	movi	r6,574
     6ac:	014001c4 	movi	r5,7
     6b0:	01006784 	movi	r4,414
     6b4:	00036040 	call	3604 <draw_driver>

		for (int i = 20; i < 61; i++){
     6b8:	00800504 	movi	r2,20
     6bc:	e0bff215 	stw	r2,-56(fp)
     6c0:	00001306 	br	710 <Keyboard_INIT+0xdc>
			draw_driver(414,7,414+30,7+30,i*10,400,4);
     6c4:	01400284 	movi	r5,10
     6c8:	e13ff217 	ldw	r4,-56(fp)
     6cc:	000c68c0 	call	c68c <__mulsi3>
     6d0:	1007883a 	mov	r3,r2
     6d4:	00800104 	movi	r2,4
     6d8:	d8800215 	stw	r2,8(sp)
     6dc:	00806404 	movi	r2,400
     6e0:	d8800115 	stw	r2,4(sp)
     6e4:	d8c00015 	stw	r3,0(sp)
     6e8:	01c00944 	movi	r7,37
     6ec:	01806f04 	movi	r6,444
     6f0:	014001c4 	movi	r5,7
     6f4:	01006784 	movi	r4,414
     6f8:	00036040 	call	3604 <draw_driver>
			delay(30);
     6fc:	01000784 	movi	r4,30
     700:	00038500 	call	3850 <delay>


		draw_driver(414,7,414+160,7+40,12,130,4);
		draw_driver(414,7,414+160,7+40,12+160,130,4);

		for (int i = 20; i < 61; i++){
     704:	e0bff217 	ldw	r2,-56(fp)
     708:	10800044 	addi	r2,r2,1
     70c:	e0bff215 	stw	r2,-56(fp)
     710:	e0bff217 	ldw	r2,-56(fp)
     714:	10800f50 	cmplti	r2,r2,61
     718:	103fea1e 	bne	r2,zero,6c4 <__alt_data_end+0xf80006c4>
		}



		//----------------------------------------SIE1 initial---------------------------------------------------//
		UsbSoftReset();
     71c:	0001b8c0 	call	1b8c <UsbSoftReset>

		// STEP 1a:
		UsbWrite (HPI_SIE1_MSG_ADR, 0);
     720:	000b883a 	mov	r5,zero
     724:	01005104 	movi	r4,324
     728:	0001af00 	call	1af0 <UsbWrite>
		UsbWrite (HOST1_STAT_REG, 0xFFFF);
     72c:	017fffd4 	movui	r5,65535
     730:	01302414 	movui	r4,49296
     734:	0001af00 	call	1af0 <UsbWrite>

		/* Set HUSB_pEOT time */
		UsbWrite(HUSB_pEOT, 600); // adjust the according to your USB device speed
     738:	01409604 	movi	r5,600
     73c:	01006d04 	movi	r4,436
     740:	0001af00 	call	1af0 <UsbWrite>

		usb_ctl_val = SOFEOP1_TO_CPU_EN | RESUME1_TO_HPI_EN;// | SOFEOP1_TO_HPI_EN;
     744:	00811004 	movi	r2,1088
     748:	d0a6f60d 	sth	r2,-25640(gp)
		UsbWrite(HPI_IRQ_ROUTING_REG, usb_ctl_val);
     74c:	d0a6f60b 	ldhu	r2,-25640(gp)
     750:	10bfffcc 	andi	r2,r2,65535
     754:	100b883a 	mov	r5,r2
     758:	01005084 	movi	r4,322
     75c:	0001af00 	call	1af0 <UsbWrite>

		intStat = A_CHG_IRQ_EN | SOF_EOP_IRQ_EN ;
     760:	00808404 	movi	r2,528
     764:	e0bffe8d 	sth	r2,-6(fp)
		UsbWrite(HOST1_IRQ_EN_REG, intStat);
     768:	e0bffe8b 	ldhu	r2,-6(fp)
     76c:	100b883a 	mov	r5,r2
     770:	01302314 	movui	r4,49292
     774:	0001af00 	call	1af0 <UsbWrite>
		// STEP 1a end

		// STEP 1b begin
		UsbWrite(COMM_R0,0x0000);//reset time
     778:	000b883a 	mov	r5,zero
     77c:	01007104 	movi	r4,452
     780:	0001af00 	call	1af0 <UsbWrite>
		UsbWrite(COMM_R1,0x0000);  //port number
     784:	000b883a 	mov	r5,zero
     788:	01007184 	movi	r4,454
     78c:	0001af00 	call	1af0 <UsbWrite>
		UsbWrite(COMM_R2,0x0000);  //r1
     790:	000b883a 	mov	r5,zero
     794:	01007204 	movi	r4,456
     798:	0001af00 	call	1af0 <UsbWrite>
		UsbWrite(COMM_R3,0x0000);  //r1
     79c:	000b883a 	mov	r5,zero
     7a0:	01007284 	movi	r4,458
     7a4:	0001af00 	call	1af0 <UsbWrite>
		UsbWrite(COMM_R4,0x0000);  //r1
     7a8:	000b883a 	mov	r5,zero
     7ac:	01007304 	movi	r4,460
     7b0:	0001af00 	call	1af0 <UsbWrite>
		UsbWrite(COMM_R5,0x0000);  //r1
     7b4:	000b883a 	mov	r5,zero
     7b8:	01007384 	movi	r4,462
     7bc:	0001af00 	call	1af0 <UsbWrite>
		UsbWrite(COMM_R6,0x0000);  //r1
     7c0:	000b883a 	mov	r5,zero
     7c4:	01007404 	movi	r4,464
     7c8:	0001af00 	call	1af0 <UsbWrite>
		UsbWrite(COMM_R7,0x0000);  //r1
     7cc:	000b883a 	mov	r5,zero
     7d0:	01007484 	movi	r4,466
     7d4:	0001af00 	call	1af0 <UsbWrite>
		UsbWrite(COMM_R8,0x0000);  //r1
     7d8:	000b883a 	mov	r5,zero
     7dc:	01007504 	movi	r4,468
     7e0:	0001af00 	call	1af0 <UsbWrite>
		UsbWrite(COMM_R9,0x0000);  //r1
     7e4:	000b883a 	mov	r5,zero
     7e8:	01007584 	movi	r4,470
     7ec:	0001af00 	call	1af0 <UsbWrite>
		UsbWrite(COMM_R10,0x0000);  //r1
     7f0:	000b883a 	mov	r5,zero
     7f4:	01007604 	movi	r4,472
     7f8:	0001af00 	call	1af0 <UsbWrite>
		UsbWrite(COMM_R11,0x0000);  //r1
     7fc:	000b883a 	mov	r5,zero
     800:	01007684 	movi	r4,474
     804:	0001af00 	call	1af0 <UsbWrite>
		UsbWrite(COMM_R12,0x0000);  //r1
     808:	000b883a 	mov	r5,zero
     80c:	01007704 	movi	r4,476
     810:	0001af00 	call	1af0 <UsbWrite>
		UsbWrite(COMM_R13,0x0000);  //r1
     814:	000b883a 	mov	r5,zero
     818:	01007784 	movi	r4,478
     81c:	0001af00 	call	1af0 <UsbWrite>
		UsbWrite(COMM_INT_NUM,HUSB_SIE1_INIT_INT); //HUSB_SIE1_INIT_INT
     820:	01401c84 	movi	r5,114
     824:	01007084 	movi	r4,450
     828:	0001af00 	call	1af0 <UsbWrite>
		IO_write(HPI_MAILBOX,COMM_EXEC_INT);
     82c:	01738054 	movui	r5,52737
     830:	01000044 	movi	r4,1
     834:	00019e80 	call	19e8 <IO_write>

		while (!(IO_read(HPI_STATUS) & 0xFFFF) )  //read sie1 msg register
     838:	0001883a 	nop
     83c:	010000c4 	movi	r4,3
     840:	0001a700 	call	1a70 <IO_read>
     844:	10bfffcc 	andi	r2,r2,65535
     848:	103ffc26 	beq	r2,zero,83c <__alt_data_end+0xf800083c>
		{
		}
		while (IO_read(HPI_MAILBOX) != COMM_ACK)
     84c:	00000806 	br	870 <Keyboard_INIT+0x23c>
		{
			printf("[ERROR]:routine mailbox data is %x\n",IO_read(HPI_MAILBOX));
     850:	01000044 	movi	r4,1
     854:	0001a700 	call	1a70 <IO_read>
     858:	10bfffcc 	andi	r2,r2,65535
     85c:	100b883a 	mov	r5,r2
     860:	010000b4 	movhi	r4,2
     864:	21300504 	addi	r4,r4,-16364
     868:	000e4980 	call	e498 <printf>
			goto USB_HOT_PLUG;
     86c:	003f7c06 	br	660 <__alt_data_end+0xf8000660>
		IO_write(HPI_MAILBOX,COMM_EXEC_INT);

		while (!(IO_read(HPI_STATUS) & 0xFFFF) )  //read sie1 msg register
		{
		}
		while (IO_read(HPI_MAILBOX) != COMM_ACK)
     870:	01000044 	movi	r4,1
     874:	0001a700 	call	1a70 <IO_read>
     878:	10bfffcc 	andi	r2,r2,65535
     87c:	1083fb58 	cmpnei	r2,r2,4077
     880:	103ff31e 	bne	r2,zero,850 <__alt_data_end+0xf8000850>
			printf("[ERROR]:routine mailbox data is %x\n",IO_read(HPI_MAILBOX));
			goto USB_HOT_PLUG;
		}
		// STEP 1b end

		printf("STEP 1 Complete");
     884:	010000b4 	movhi	r4,2
     888:	21300e04 	addi	r4,r4,-16328
     88c:	000e4980 	call	e498 <printf>

		//Loading
		for (int i = 20; i < 24; i++){
     890:	00800504 	movi	r2,20
     894:	e0bff315 	stw	r2,-52(fp)
     898:	00001306 	br	8e8 <Keyboard_INIT+0x2b4>
			draw_driver(12,260,28,276,i*10,400,4);
     89c:	01400284 	movi	r5,10
     8a0:	e13ff317 	ldw	r4,-52(fp)
     8a4:	000c68c0 	call	c68c <__mulsi3>
     8a8:	1007883a 	mov	r3,r2
     8ac:	00800104 	movi	r2,4
     8b0:	d8800215 	stw	r2,8(sp)
     8b4:	00806404 	movi	r2,400
     8b8:	d8800115 	stw	r2,4(sp)
     8bc:	d8c00015 	stw	r3,0(sp)
     8c0:	01c04504 	movi	r7,276
     8c4:	01800704 	movi	r6,28
     8c8:	01404104 	movi	r5,260
     8cc:	01000304 	movi	r4,12
     8d0:	00036040 	call	3604 <draw_driver>
			delay(30);
     8d4:	01000784 	movi	r4,30
     8d8:	00038500 	call	3850 <delay>
		// STEP 1b end

		printf("STEP 1 Complete");

		//Loading
		for (int i = 20; i < 24; i++){
     8dc:	e0bff317 	ldw	r2,-52(fp)
     8e0:	10800044 	addi	r2,r2,1
     8e4:	e0bff315 	stw	r2,-52(fp)
     8e8:	e0bff317 	ldw	r2,-52(fp)
     8ec:	10800610 	cmplti	r2,r2,24
     8f0:	103fea1e 	bne	r2,zero,89c <__alt_data_end+0xf800089c>
			delay(30);
		}


		// STEP 2 begin
		UsbWrite(COMM_INT_NUM,HUSB_RESET_INT); //husb reset
     8f4:	01401d04 	movi	r5,116
     8f8:	01007084 	movi	r4,450
     8fc:	0001af00 	call	1af0 <UsbWrite>
		UsbWrite(COMM_R0,0x003c);//reset time
     900:	01400f04 	movi	r5,60
     904:	01007104 	movi	r4,452
     908:	0001af00 	call	1af0 <UsbWrite>
		UsbWrite(COMM_R1,0x0000);  //port number
     90c:	000b883a 	mov	r5,zero
     910:	01007184 	movi	r4,454
     914:	0001af00 	call	1af0 <UsbWrite>
		UsbWrite(COMM_R2,0x0000);  //r1
     918:	000b883a 	mov	r5,zero
     91c:	01007204 	movi	r4,456
     920:	0001af00 	call	1af0 <UsbWrite>
		UsbWrite(COMM_R3,0x0000);  //r1
     924:	000b883a 	mov	r5,zero
     928:	01007284 	movi	r4,458
     92c:	0001af00 	call	1af0 <UsbWrite>
		UsbWrite(COMM_R4,0x0000);  //r1
     930:	000b883a 	mov	r5,zero
     934:	01007304 	movi	r4,460
     938:	0001af00 	call	1af0 <UsbWrite>
		UsbWrite(COMM_R5,0x0000);  //r1
     93c:	000b883a 	mov	r5,zero
     940:	01007384 	movi	r4,462
     944:	0001af00 	call	1af0 <UsbWrite>
		UsbWrite(COMM_R6,0x0000);  //r1
     948:	000b883a 	mov	r5,zero
     94c:	01007404 	movi	r4,464
     950:	0001af00 	call	1af0 <UsbWrite>
		UsbWrite(COMM_R7,0x0000);  //r1
     954:	000b883a 	mov	r5,zero
     958:	01007484 	movi	r4,466
     95c:	0001af00 	call	1af0 <UsbWrite>
		UsbWrite(COMM_R8,0x0000);  //r1
     960:	000b883a 	mov	r5,zero
     964:	01007504 	movi	r4,468
     968:	0001af00 	call	1af0 <UsbWrite>
		UsbWrite(COMM_R9,0x0000);  //r1
     96c:	000b883a 	mov	r5,zero
     970:	01007584 	movi	r4,470
     974:	0001af00 	call	1af0 <UsbWrite>
		UsbWrite(COMM_R10,0x0000);  //r1
     978:	000b883a 	mov	r5,zero
     97c:	01007604 	movi	r4,472
     980:	0001af00 	call	1af0 <UsbWrite>
		UsbWrite(COMM_R11,0x0000);  //r1
     984:	000b883a 	mov	r5,zero
     988:	01007684 	movi	r4,474
     98c:	0001af00 	call	1af0 <UsbWrite>
		UsbWrite(COMM_R12,0x0000);  //r1
     990:	000b883a 	mov	r5,zero
     994:	01007704 	movi	r4,476
     998:	0001af00 	call	1af0 <UsbWrite>
		UsbWrite(COMM_R13,0x0000);  //r1
     99c:	000b883a 	mov	r5,zero
     9a0:	01007784 	movi	r4,478
     9a4:	0001af00 	call	1af0 <UsbWrite>

		IO_write(HPI_MAILBOX,COMM_EXEC_INT);
     9a8:	01738054 	movui	r5,52737
     9ac:	01000044 	movi	r4,1
     9b0:	00019e80 	call	19e8 <IO_write>

		while (IO_read(HPI_MAILBOX) != COMM_ACK)
     9b4:	0001883a 	nop
     9b8:	01000044 	movi	r4,1
     9bc:	0001a700 	call	1a70 <IO_read>
     9c0:	10bfffcc 	andi	r2,r2,65535
     9c4:	1083fb58 	cmpnei	r2,r2,4077
     9c8:	10000826 	beq	r2,zero,9ec <Keyboard_INIT+0x3b8>
		{
			printf("[ERROR]:routine mailbox data is %x\n",IO_read(HPI_MAILBOX));
     9cc:	01000044 	movi	r4,1
     9d0:	0001a700 	call	1a70 <IO_read>
     9d4:	10bfffcc 	andi	r2,r2,65535
     9d8:	100b883a 	mov	r5,r2
     9dc:	010000b4 	movhi	r4,2
     9e0:	21300504 	addi	r4,r4,-16364
     9e4:	000e4980 	call	e498 <printf>
			goto USB_HOT_PLUG;
     9e8:	003f1d06 	br	660 <__alt_data_end+0xf8000660>
		}
		// STEP 2 end

		ctl_reg = USB1_CTL_REG;
     9ec:	00b02284 	movi	r2,-16246
     9f0:	d0a6f50d 	sth	r2,-25644(gp)
		no_device = (A_DP_STAT | A_DM_STAT);
     9f4:	008c0004 	movi	r2,12288
     9f8:	d0a6f58d 	sth	r2,-25642(gp)
		fs_device = A_DP_STAT;
     9fc:	00880004 	movi	r2,8192
     a00:	e0bffe0d 	sth	r2,-8(fp)
		usb_ctl_val = UsbRead(ctl_reg);
     a04:	d0a6f50b 	ldhu	r2,-25644(gp)
     a08:	10bfffcc 	andi	r2,r2,65535
     a0c:	1009883a 	mov	r4,r2
     a10:	0001b480 	call	1b48 <UsbRead>
     a14:	d0a6f60d 	sth	r2,-25640(gp)

		if (!(usb_ctl_val & no_device))
     a18:	d0e6f60b 	ldhu	r3,-25640(gp)
     a1c:	d0a6f58b 	ldhu	r2,-25642(gp)
     a20:	1884703a 	and	r2,r3,r2
     a24:	10bfffcc 	andi	r2,r2,65535
     a28:	1000411e 	bne	r2,zero,b30 <Keyboard_INIT+0x4fc>
		{
			for(hot_plug_count = 0 ; hot_plug_count < 5 ; hot_plug_count++)
     a2c:	d026f6c5 	stb	zero,-25637(gp)
     a30:	00000f06 	br	a70 <Keyboard_INIT+0x43c>
			{
				usleep(5*1000);
     a34:	0104e204 	movi	r4,5000
     a38:	0019f280 	call	19f28 <usleep>
				usb_ctl_val = UsbRead(ctl_reg);
     a3c:	d0a6f50b 	ldhu	r2,-25644(gp)
     a40:	10bfffcc 	andi	r2,r2,65535
     a44:	1009883a 	mov	r4,r2
     a48:	0001b480 	call	1b48 <UsbRead>
     a4c:	d0a6f60d 	sth	r2,-25640(gp)
				if(usb_ctl_val & no_device) break;
     a50:	d0e6f60b 	ldhu	r3,-25640(gp)
     a54:	d0a6f58b 	ldhu	r2,-25642(gp)
     a58:	1884703a 	and	r2,r3,r2
     a5c:	10bfffcc 	andi	r2,r2,65535
     a60:	1000081e 	bne	r2,zero,a84 <Keyboard_INIT+0x450>
		fs_device = A_DP_STAT;
		usb_ctl_val = UsbRead(ctl_reg);

		if (!(usb_ctl_val & no_device))
		{
			for(hot_plug_count = 0 ; hot_plug_count < 5 ; hot_plug_count++)
     a64:	d0a6f6c3 	ldbu	r2,-25637(gp)
     a68:	10800044 	addi	r2,r2,1
     a6c:	d0a6f6c5 	stb	r2,-25637(gp)
     a70:	d0a6f6c3 	ldbu	r2,-25637(gp)
     a74:	10803fcc 	andi	r2,r2,255
     a78:	10800170 	cmpltui	r2,r2,5
     a7c:	103fed1e 	bne	r2,zero,a34 <__alt_data_end+0xf8000a34>
     a80:	00000106 	br	a88 <Keyboard_INIT+0x454>
			{
				usleep(5*1000);
				usb_ctl_val = UsbRead(ctl_reg);
				if(usb_ctl_val & no_device) break;
     a84:	0001883a 	nop
			}
			if(!(usb_ctl_val & no_device))
     a88:	d0e6f60b 	ldhu	r3,-25640(gp)
     a8c:	d0a6f58b 	ldhu	r2,-25642(gp)
     a90:	1884703a 	and	r2,r3,r2
     a94:	10bfffcc 	andi	r2,r2,65535
     a98:	1000311e 	bne	r2,zero,b60 <Keyboard_INIT+0x52c>
			{
				printf("\n[INFO]: no device is present in SIE1!\n");
     a9c:	010000b4 	movhi	r4,2
     aa0:	21301204 	addi	r4,r4,-16312
     aa4:	000e5940 	call	e594 <puts>
				printf("[INFO]: please insert a USB keyboard in SIE1!\n");
     aa8:	010000b4 	movhi	r4,2
     aac:	21301c04 	addi	r4,r4,-16272
     ab0:	000e5940 	call	e594 <puts>
				draw_driver(11,301,312,321,12,130,4);
     ab4:	00800104 	movi	r2,4
     ab8:	d8800215 	stw	r2,8(sp)
     abc:	00802084 	movi	r2,130
     ac0:	d8800115 	stw	r2,4(sp)
     ac4:	00800304 	movi	r2,12
     ac8:	d8800015 	stw	r2,0(sp)
     acc:	01c05044 	movi	r7,321
     ad0:	01804e04 	movi	r6,312
     ad4:	01404b44 	movi	r5,301
     ad8:	010002c4 	movi	r4,11
     adc:	00036040 	call	3604 <draw_driver>



				while (!(usb_ctl_val & no_device))
     ae0:	00000d06 	br	b18 <Keyboard_INIT+0x4e4>
				{
					usb_ctl_val = UsbRead(ctl_reg);
     ae4:	d0a6f50b 	ldhu	r2,-25644(gp)
     ae8:	10bfffcc 	andi	r2,r2,65535
     aec:	1009883a 	mov	r4,r2
     af0:	0001b480 	call	1b48 <UsbRead>
     af4:	d0a6f60d 	sth	r2,-25640(gp)
					if(usb_ctl_val & no_device)
     af8:	d0e6f60b 	ldhu	r3,-25640(gp)
     afc:	d0a6f58b 	ldhu	r2,-25642(gp)
     b00:	1884703a 	and	r2,r3,r2
     b04:	10bfffcc 	andi	r2,r2,65535
     b08:	10000126 	beq	r2,zero,b10 <Keyboard_INIT+0x4dc>
						goto USB_HOT_PLUG;
     b0c:	003ed406 	br	660 <__alt_data_end+0xf8000660>

					usleep(2000);
     b10:	0101f404 	movi	r4,2000
     b14:	0019f280 	call	19f28 <usleep>
				printf("[INFO]: please insert a USB keyboard in SIE1!\n");
				draw_driver(11,301,312,321,12,130,4);



				while (!(usb_ctl_val & no_device))
     b18:	d0e6f60b 	ldhu	r3,-25640(gp)
     b1c:	d0a6f58b 	ldhu	r2,-25642(gp)
     b20:	1884703a 	and	r2,r3,r2
     b24:	10bfffcc 	andi	r2,r2,65535
     b28:	103fee26 	beq	r2,zero,ae4 <__alt_data_end+0xf8000ae4>
     b2c:	00000c06 	br	b60 <Keyboard_INIT+0x52c>
			}
		}
		else
		{
			/* check for low speed or full speed by reading D+ and D- lines */
			if (usb_ctl_val & fs_device)
     b30:	d0e6f60b 	ldhu	r3,-25640(gp)
     b34:	e0bffe0b 	ldhu	r2,-8(fp)
     b38:	1884703a 	and	r2,r3,r2
     b3c:	10bfffcc 	andi	r2,r2,65535
     b40:	10000426 	beq	r2,zero,b54 <Keyboard_INIT+0x520>
			{
				printf("[INFO]: full speed device\n");
     b44:	010000b4 	movhi	r4,2
     b48:	21302804 	addi	r4,r4,-16224
     b4c:	000e5940 	call	e594 <puts>
     b50:	00000306 	br	b60 <Keyboard_INIT+0x52c>
			}
			else
			{
				printf("[INFO]: low speed device\n");
     b54:	010000b4 	movhi	r4,2
     b58:	21302f04 	addi	r4,r4,-16196
     b5c:	000e5940 	call	e594 <puts>
			}
		}

		for (int i = 24; i < 28; i++){
     b60:	00800604 	movi	r2,24
     b64:	e0bff415 	stw	r2,-48(fp)
     b68:	00001306 	br	bb8 <Keyboard_INIT+0x584>
			draw_driver(12,260,28,276,i*10,400,4);
     b6c:	01400284 	movi	r5,10
     b70:	e13ff417 	ldw	r4,-48(fp)
     b74:	000c68c0 	call	c68c <__mulsi3>
     b78:	1007883a 	mov	r3,r2
     b7c:	00800104 	movi	r2,4
     b80:	d8800215 	stw	r2,8(sp)
     b84:	00806404 	movi	r2,400
     b88:	d8800115 	stw	r2,4(sp)
     b8c:	d8c00015 	stw	r3,0(sp)
     b90:	01c04504 	movi	r7,276
     b94:	01800704 	movi	r6,28
     b98:	01404104 	movi	r5,260
     b9c:	01000304 	movi	r4,12
     ba0:	00036040 	call	3604 <draw_driver>
			delay(30);
     ba4:	01000784 	movi	r4,30
     ba8:	00038500 	call	3850 <delay>
			{
				printf("[INFO]: low speed device\n");
			}
		}

		for (int i = 24; i < 28; i++){
     bac:	e0bff417 	ldw	r2,-48(fp)
     bb0:	10800044 	addi	r2,r2,1
     bb4:	e0bff415 	stw	r2,-48(fp)
     bb8:	e0bff417 	ldw	r2,-48(fp)
     bbc:	10800710 	cmplti	r2,r2,28
     bc0:	103fea1e 	bne	r2,zero,b6c <__alt_data_end+0xf8000b6c>



		// STEP 3 begin
		//------------------------------------------------------set address -----------------------------------------------------------------
		UsbSetAddress();
     bc4:	0001c400 	call	1c40 <UsbSetAddress>

		while (!(IO_read(HPI_STATUS) & HPI_STATUS_SIE1msg_FLAG) )  //read sie1 msg register
     bc8:	00000306 	br	bd8 <Keyboard_INIT+0x5a4>
		{
			UsbSetAddress();
     bcc:	0001c400 	call	1c40 <UsbSetAddress>
			usleep(10*1000);
     bd0:	0109c404 	movi	r4,10000
     bd4:	0019f280 	call	19f28 <usleep>

		// STEP 3 begin
		//------------------------------------------------------set address -----------------------------------------------------------------
		UsbSetAddress();

		while (!(IO_read(HPI_STATUS) & HPI_STATUS_SIE1msg_FLAG) )  //read sie1 msg register
     bd8:	010000c4 	movi	r4,3
     bdc:	0001a700 	call	1a70 <IO_read>
     be0:	10bfffcc 	andi	r2,r2,65535
     be4:	1080040c 	andi	r2,r2,16
     be8:	103ff826 	beq	r2,zero,bcc <__alt_data_end+0xf8000bcc>
		{
			UsbSetAddress();
			usleep(10*1000);
		}

		UsbWaitTDListDone();
     bec:	0002ae00 	call	2ae0 <UsbWaitTDListDone>

		IO_write(HPI_ADDR,0x0506); // i
     bf0:	01414184 	movi	r5,1286
     bf4:	01000084 	movi	r4,2
     bf8:	00019e80 	call	19e8 <IO_write>
		printf("[ENUM PROCESS]:step 3 TD Status Byte is %x\n",IO_read(HPI_DATA));
     bfc:	0009883a 	mov	r4,zero
     c00:	0001a700 	call	1a70 <IO_read>
     c04:	10bfffcc 	andi	r2,r2,65535
     c08:	100b883a 	mov	r5,r2
     c0c:	010000b4 	movhi	r4,2
     c10:	21303604 	addi	r4,r4,-16168
     c14:	000e4980 	call	e498 <printf>

		IO_write(HPI_ADDR,0x0508); // n
     c18:	01414204 	movi	r5,1288
     c1c:	01000084 	movi	r4,2
     c20:	00019e80 	call	19e8 <IO_write>
		usb_ctl_val = IO_read(HPI_DATA);
     c24:	0009883a 	mov	r4,zero
     c28:	0001a700 	call	1a70 <IO_read>
     c2c:	d0a6f60d 	sth	r2,-25640(gp)
		printf("[ENUM PROCESS]:step 3 TD Control Byte is %x\n",usb_ctl_val);
     c30:	d0a6f60b 	ldhu	r2,-25640(gp)
     c34:	10bfffcc 	andi	r2,r2,65535
     c38:	100b883a 	mov	r5,r2
     c3c:	010000b4 	movhi	r4,2
     c40:	21304104 	addi	r4,r4,-16124
     c44:	000e4980 	call	e498 <printf>
		while (usb_ctl_val != 0x03) // retries occurred
     c48:	0001883a 	nop
     c4c:	d0a6f60b 	ldhu	r2,-25640(gp)
     c50:	10bfffcc 	andi	r2,r2,65535
     c54:	108000d8 	cmpnei	r2,r2,3
     c58:	10000326 	beq	r2,zero,c68 <Keyboard_INIT+0x634>
		{
			usb_ctl_val = UsbGetRetryCnt();
     c5c:	0002b640 	call	2b64 <UsbGetRetryCnt>
     c60:	d0a6f60d 	sth	r2,-25640(gp)

			goto USB_HOT_PLUG;
     c64:	003e7e06 	br	660 <__alt_data_end+0xf8000660>
		}

		printf("------------[ENUM PROCESS]:set address done!---------------\n");
     c68:	010000b4 	movhi	r4,2
     c6c:	21304d04 	addi	r4,r4,-16076
     c70:	000e5940 	call	e594 <puts>
		for (int i = 28; i < 32; i++){
     c74:	00800704 	movi	r2,28
     c78:	e0bff515 	stw	r2,-44(fp)
     c7c:	00001306 	br	ccc <Keyboard_INIT+0x698>
			draw_driver(12,260,28,276,i*10,400,4);
     c80:	01400284 	movi	r5,10
     c84:	e13ff517 	ldw	r4,-44(fp)
     c88:	000c68c0 	call	c68c <__mulsi3>
     c8c:	1007883a 	mov	r3,r2
     c90:	00800104 	movi	r2,4
     c94:	d8800215 	stw	r2,8(sp)
     c98:	00806404 	movi	r2,400
     c9c:	d8800115 	stw	r2,4(sp)
     ca0:	d8c00015 	stw	r3,0(sp)
     ca4:	01c04504 	movi	r7,276
     ca8:	01800704 	movi	r6,28
     cac:	01404104 	movi	r5,260
     cb0:	01000304 	movi	r4,12
     cb4:	00036040 	call	3604 <draw_driver>
			delay(30);
     cb8:	01000784 	movi	r4,30
     cbc:	00038500 	call	3850 <delay>

			goto USB_HOT_PLUG;
		}

		printf("------------[ENUM PROCESS]:set address done!---------------\n");
		for (int i = 28; i < 32; i++){
     cc0:	e0bff517 	ldw	r2,-44(fp)
     cc4:	10800044 	addi	r2,r2,1
     cc8:	e0bff515 	stw	r2,-44(fp)
     ccc:	e0bff517 	ldw	r2,-44(fp)
     cd0:	10800810 	cmplti	r2,r2,32
     cd4:	103fea1e 	bne	r2,zero,c80 <__alt_data_end+0xf8000c80>
		}

		// STEP 4 begin
		//-------------------------------get device descriptor-1 -----------------------------------//
		// TASK: Call the appropriate function for this step.
		UsbGetDeviceDesc1(); 	// Get Device Descriptor -1
     cd8:	0001d400 	call	1d40 <UsbGetDeviceDesc1>

		//usleep(10*1000);
		while (!(IO_read(HPI_STATUS) & HPI_STATUS_SIE1msg_FLAG) )  //read sie1 msg register
     cdc:	00000306 	br	cec <Keyboard_INIT+0x6b8>
		{
			// TASK: Call the appropriate function again if it wasn't processed successfully.
			UsbGetDeviceDesc1();
     ce0:	0001d400 	call	1d40 <UsbGetDeviceDesc1>
			usleep(10*1000);
     ce4:	0109c404 	movi	r4,10000
     ce8:	0019f280 	call	19f28 <usleep>
		//-------------------------------get device descriptor-1 -----------------------------------//
		// TASK: Call the appropriate function for this step.
		UsbGetDeviceDesc1(); 	// Get Device Descriptor -1

		//usleep(10*1000);
		while (!(IO_read(HPI_STATUS) & HPI_STATUS_SIE1msg_FLAG) )  //read sie1 msg register
     cec:	010000c4 	movi	r4,3
     cf0:	0001a700 	call	1a70 <IO_read>
     cf4:	10bfffcc 	andi	r2,r2,65535
     cf8:	1080040c 	andi	r2,r2,16
     cfc:	103ff826 	beq	r2,zero,ce0 <__alt_data_end+0xf8000ce0>
			// TASK: Call the appropriate function again if it wasn't processed successfully.
			UsbGetDeviceDesc1();
			usleep(10*1000);
		}

		UsbWaitTDListDone();
     d00:	0002ae00 	call	2ae0 <UsbWaitTDListDone>

		IO_write(HPI_ADDR,0x0506);
     d04:	01414184 	movi	r5,1286
     d08:	01000084 	movi	r4,2
     d0c:	00019e80 	call	19e8 <IO_write>
		printf("[ENUM PROCESS]:step 4 TD Status Byte is %x\n",IO_read(HPI_DATA));
     d10:	0009883a 	mov	r4,zero
     d14:	0001a700 	call	1a70 <IO_read>
     d18:	10bfffcc 	andi	r2,r2,65535
     d1c:	100b883a 	mov	r5,r2
     d20:	010000b4 	movhi	r4,2
     d24:	21305c04 	addi	r4,r4,-16016
     d28:	000e4980 	call	e498 <printf>

		IO_write(HPI_ADDR,0x0508);
     d2c:	01414204 	movi	r5,1288
     d30:	01000084 	movi	r4,2
     d34:	00019e80 	call	19e8 <IO_write>
		usb_ctl_val = IO_read(HPI_DATA);
     d38:	0009883a 	mov	r4,zero
     d3c:	0001a700 	call	1a70 <IO_read>
     d40:	d0a6f60d 	sth	r2,-25640(gp)
		printf("[ENUM PROCESS]:step 4 TD Control Byte is %x\n",usb_ctl_val);
     d44:	d0a6f60b 	ldhu	r2,-25640(gp)
     d48:	10bfffcc 	andi	r2,r2,65535
     d4c:	100b883a 	mov	r5,r2
     d50:	010000b4 	movhi	r4,2
     d54:	21306704 	addi	r4,r4,-15972
     d58:	000e4980 	call	e498 <printf>
		while (usb_ctl_val != 0x03)
     d5c:	00000206 	br	d68 <Keyboard_INIT+0x734>
		{
			usb_ctl_val = UsbGetRetryCnt();
     d60:	0002b640 	call	2b64 <UsbGetRetryCnt>
     d64:	d0a6f60d 	sth	r2,-25640(gp)
		printf("[ENUM PROCESS]:step 4 TD Status Byte is %x\n",IO_read(HPI_DATA));

		IO_write(HPI_ADDR,0x0508);
		usb_ctl_val = IO_read(HPI_DATA);
		printf("[ENUM PROCESS]:step 4 TD Control Byte is %x\n",usb_ctl_val);
		while (usb_ctl_val != 0x03)
     d68:	d0a6f60b 	ldhu	r2,-25640(gp)
     d6c:	10bfffcc 	andi	r2,r2,65535
     d70:	108000d8 	cmpnei	r2,r2,3
     d74:	103ffa1e 	bne	r2,zero,d60 <__alt_data_end+0xf8000d60>
		{
			usb_ctl_val = UsbGetRetryCnt();
		}

		printf("---------------[ENUM PROCESS]:get device descriptor-1 done!-----------------\n");
     d78:	010000b4 	movhi	r4,2
     d7c:	21307304 	addi	r4,r4,-15924
     d80:	000e5940 	call	e594 <puts>


		//--------------------------------get device descriptor-2---------------------------------------------//
		//get device descriptor
		// TASK: Call the appropriate function for this step.
		UsbGetDeviceDesc2(); 	// Get Device Descriptor -2
     d84:	0001e880 	call	1e88 <UsbGetDeviceDesc2>

		//if no message
		while (!(IO_read(HPI_STATUS) & HPI_STATUS_SIE1msg_FLAG) )  //read sie1 msg register
     d88:	00000306 	br	d98 <Keyboard_INIT+0x764>
		{
			//resend the get device descriptor
			//get device descriptor
			// TASK: Call the appropriate function again if it wasn't processed successfully.
			UsbGetDeviceDesc2();
     d8c:	0001e880 	call	1e88 <UsbGetDeviceDesc2>
			usleep(10*1000);
     d90:	0109c404 	movi	r4,10000
     d94:	0019f280 	call	19f28 <usleep>
		//get device descriptor
		// TASK: Call the appropriate function for this step.
		UsbGetDeviceDesc2(); 	// Get Device Descriptor -2

		//if no message
		while (!(IO_read(HPI_STATUS) & HPI_STATUS_SIE1msg_FLAG) )  //read sie1 msg register
     d98:	010000c4 	movi	r4,3
     d9c:	0001a700 	call	1a70 <IO_read>
     da0:	10bfffcc 	andi	r2,r2,65535
     da4:	1080040c 	andi	r2,r2,16
     da8:	103ff826 	beq	r2,zero,d8c <__alt_data_end+0xf8000d8c>
			// TASK: Call the appropriate function again if it wasn't processed successfully.
			UsbGetDeviceDesc2();
			usleep(10*1000);
		}

		UsbWaitTDListDone();
     dac:	0002ae00 	call	2ae0 <UsbWaitTDListDone>

		IO_write(HPI_ADDR,0x0506);
     db0:	01414184 	movi	r5,1286
     db4:	01000084 	movi	r4,2
     db8:	00019e80 	call	19e8 <IO_write>
		printf("[ENUM PROCESS]:step 4 TD Status Byte is %x\n",IO_read(HPI_DATA));
     dbc:	0009883a 	mov	r4,zero
     dc0:	0001a700 	call	1a70 <IO_read>
     dc4:	10bfffcc 	andi	r2,r2,65535
     dc8:	100b883a 	mov	r5,r2
     dcc:	010000b4 	movhi	r4,2
     dd0:	21305c04 	addi	r4,r4,-16016
     dd4:	000e4980 	call	e498 <printf>

		IO_write(HPI_ADDR,0x0508);
     dd8:	01414204 	movi	r5,1288
     ddc:	01000084 	movi	r4,2
     de0:	00019e80 	call	19e8 <IO_write>
		usb_ctl_val = IO_read(HPI_DATA);
     de4:	0009883a 	mov	r4,zero
     de8:	0001a700 	call	1a70 <IO_read>
     dec:	d0a6f60d 	sth	r2,-25640(gp)
		printf("[ENUM PROCESS]:step 4 TD Control Byte is %x\n",usb_ctl_val);
     df0:	d0a6f60b 	ldhu	r2,-25640(gp)
     df4:	10bfffcc 	andi	r2,r2,65535
     df8:	100b883a 	mov	r5,r2
     dfc:	010000b4 	movhi	r4,2
     e00:	21306704 	addi	r4,r4,-15972
     e04:	000e4980 	call	e498 <printf>
		while (usb_ctl_val != 0x03)
     e08:	00000206 	br	e14 <Keyboard_INIT+0x7e0>
		{
			usb_ctl_val = UsbGetRetryCnt();
     e0c:	0002b640 	call	2b64 <UsbGetRetryCnt>
     e10:	d0a6f60d 	sth	r2,-25640(gp)
		printf("[ENUM PROCESS]:step 4 TD Status Byte is %x\n",IO_read(HPI_DATA));

		IO_write(HPI_ADDR,0x0508);
		usb_ctl_val = IO_read(HPI_DATA);
		printf("[ENUM PROCESS]:step 4 TD Control Byte is %x\n",usb_ctl_val);
		while (usb_ctl_val != 0x03)
     e14:	d0a6f60b 	ldhu	r2,-25640(gp)
     e18:	10bfffcc 	andi	r2,r2,65535
     e1c:	108000d8 	cmpnei	r2,r2,3
     e20:	103ffa1e 	bne	r2,zero,e0c <__alt_data_end+0xf8000e0c>
		{
			usb_ctl_val = UsbGetRetryCnt();
		}

		printf("------------[ENUM PROCESS]:get device descriptor-2 done!--------------\n");
     e24:	010000b4 	movhi	r4,2
     e28:	21308704 	addi	r4,r4,-15844
     e2c:	000e5940 	call	e594 <puts>
		for (int i = 32; i < 36; i++){
     e30:	00800804 	movi	r2,32
     e34:	e0bff615 	stw	r2,-40(fp)
     e38:	00001306 	br	e88 <Keyboard_INIT+0x854>
			draw_driver(12,260,28,276,i*10,400,4);
     e3c:	01400284 	movi	r5,10
     e40:	e13ff617 	ldw	r4,-40(fp)
     e44:	000c68c0 	call	c68c <__mulsi3>
     e48:	1007883a 	mov	r3,r2
     e4c:	00800104 	movi	r2,4
     e50:	d8800215 	stw	r2,8(sp)
     e54:	00806404 	movi	r2,400
     e58:	d8800115 	stw	r2,4(sp)
     e5c:	d8c00015 	stw	r3,0(sp)
     e60:	01c04504 	movi	r7,276
     e64:	01800704 	movi	r6,28
     e68:	01404104 	movi	r5,260
     e6c:	01000304 	movi	r4,12
     e70:	00036040 	call	3604 <draw_driver>
			delay(30);
     e74:	01000784 	movi	r4,30
     e78:	00038500 	call	3850 <delay>
		{
			usb_ctl_val = UsbGetRetryCnt();
		}

		printf("------------[ENUM PROCESS]:get device descriptor-2 done!--------------\n");
		for (int i = 32; i < 36; i++){
     e7c:	e0bff617 	ldw	r2,-40(fp)
     e80:	10800044 	addi	r2,r2,1
     e84:	e0bff615 	stw	r2,-40(fp)
     e88:	e0bff617 	ldw	r2,-40(fp)
     e8c:	10800910 	cmplti	r2,r2,36
     e90:	103fea1e 	bne	r2,zero,e3c <__alt_data_end+0xf8000e3c>


		// STEP 5 begin
		//-----------------------------------get configuration descriptor -1 ----------------------------------//
		// TASK: Call the appropriate function for this step.
		UsbGetConfigDesc1(); 	// Get Configuration Descriptor -1
     e94:	00020600 	call	2060 <UsbGetConfigDesc1>

		//if no message
		while (!(IO_read(HPI_STATUS) & HPI_STATUS_SIE1msg_FLAG) )  //read sie1 msg register
     e98:	00000306 	br	ea8 <Keyboard_INIT+0x874>
		{
			//resend the get device descriptor
			//get device descriptor

			// TASK: Call the appropriate function again if it wasn't processed successfully.
			UsbGetConfigDesc1();
     e9c:	00020600 	call	2060 <UsbGetConfigDesc1>
			usleep(10*1000);
     ea0:	0109c404 	movi	r4,10000
     ea4:	0019f280 	call	19f28 <usleep>
		//-----------------------------------get configuration descriptor -1 ----------------------------------//
		// TASK: Call the appropriate function for this step.
		UsbGetConfigDesc1(); 	// Get Configuration Descriptor -1

		//if no message
		while (!(IO_read(HPI_STATUS) & HPI_STATUS_SIE1msg_FLAG) )  //read sie1 msg register
     ea8:	010000c4 	movi	r4,3
     eac:	0001a700 	call	1a70 <IO_read>
     eb0:	10bfffcc 	andi	r2,r2,65535
     eb4:	1080040c 	andi	r2,r2,16
     eb8:	103ff826 	beq	r2,zero,e9c <__alt_data_end+0xf8000e9c>
			// TASK: Call the appropriate function again if it wasn't processed successfully.
			UsbGetConfigDesc1();
			usleep(10*1000);
		}

		UsbWaitTDListDone();
     ebc:	0002ae00 	call	2ae0 <UsbWaitTDListDone>

		IO_write(HPI_ADDR,0x0506);
     ec0:	01414184 	movi	r5,1286
     ec4:	01000084 	movi	r4,2
     ec8:	00019e80 	call	19e8 <IO_write>
		printf("[ENUM PROCESS]:step 5 TD Status Byte is %x\n",IO_read(HPI_DATA));
     ecc:	0009883a 	mov	r4,zero
     ed0:	0001a700 	call	1a70 <IO_read>
     ed4:	10bfffcc 	andi	r2,r2,65535
     ed8:	100b883a 	mov	r5,r2
     edc:	010000b4 	movhi	r4,2
     ee0:	21309904 	addi	r4,r4,-15772
     ee4:	000e4980 	call	e498 <printf>

		IO_write(HPI_ADDR,0x0508);
     ee8:	01414204 	movi	r5,1288
     eec:	01000084 	movi	r4,2
     ef0:	00019e80 	call	19e8 <IO_write>
		usb_ctl_val = IO_read(HPI_DATA);
     ef4:	0009883a 	mov	r4,zero
     ef8:	0001a700 	call	1a70 <IO_read>
     efc:	d0a6f60d 	sth	r2,-25640(gp)
		printf("[ENUM PROCESS]:step 5 TD Control Byte is %x\n",usb_ctl_val);
     f00:	d0a6f60b 	ldhu	r2,-25640(gp)
     f04:	10bfffcc 	andi	r2,r2,65535
     f08:	100b883a 	mov	r5,r2
     f0c:	010000b4 	movhi	r4,2
     f10:	2130a404 	addi	r4,r4,-15728
     f14:	000e4980 	call	e498 <printf>
		while (usb_ctl_val != 0x03)
     f18:	00000206 	br	f24 <Keyboard_INIT+0x8f0>
		{
			usb_ctl_val = UsbGetRetryCnt();
     f1c:	0002b640 	call	2b64 <UsbGetRetryCnt>
     f20:	d0a6f60d 	sth	r2,-25640(gp)
		printf("[ENUM PROCESS]:step 5 TD Status Byte is %x\n",IO_read(HPI_DATA));

		IO_write(HPI_ADDR,0x0508);
		usb_ctl_val = IO_read(HPI_DATA);
		printf("[ENUM PROCESS]:step 5 TD Control Byte is %x\n",usb_ctl_val);
		while (usb_ctl_val != 0x03)
     f24:	d0a6f60b 	ldhu	r2,-25640(gp)
     f28:	10bfffcc 	andi	r2,r2,65535
     f2c:	108000d8 	cmpnei	r2,r2,3
     f30:	103ffa1e 	bne	r2,zero,f1c <__alt_data_end+0xf8000f1c>
		{
			usb_ctl_val = UsbGetRetryCnt();
		}
		printf("------------[ENUM PROCESS]:get configuration descriptor-1 pass------------\n");
     f34:	010000b4 	movhi	r4,2
     f38:	2130b004 	addi	r4,r4,-15680
     f3c:	000e5940 	call	e594 <puts>
		for (int i = 36; i < 40; i++){
     f40:	00800904 	movi	r2,36
     f44:	e0bff715 	stw	r2,-36(fp)
     f48:	00001306 	br	f98 <Keyboard_INIT+0x964>
			draw_driver(12,260,28,276,i*10,400,4);
     f4c:	01400284 	movi	r5,10
     f50:	e13ff717 	ldw	r4,-36(fp)
     f54:	000c68c0 	call	c68c <__mulsi3>
     f58:	1007883a 	mov	r3,r2
     f5c:	00800104 	movi	r2,4
     f60:	d8800215 	stw	r2,8(sp)
     f64:	00806404 	movi	r2,400
     f68:	d8800115 	stw	r2,4(sp)
     f6c:	d8c00015 	stw	r3,0(sp)
     f70:	01c04504 	movi	r7,276
     f74:	01800704 	movi	r6,28
     f78:	01404104 	movi	r5,260
     f7c:	01000304 	movi	r4,12
     f80:	00036040 	call	3604 <draw_driver>
			delay(30);
     f84:	01000784 	movi	r4,30
     f88:	00038500 	call	3850 <delay>
		while (usb_ctl_val != 0x03)
		{
			usb_ctl_val = UsbGetRetryCnt();
		}
		printf("------------[ENUM PROCESS]:get configuration descriptor-1 pass------------\n");
		for (int i = 36; i < 40; i++){
     f8c:	e0bff717 	ldw	r2,-36(fp)
     f90:	10800044 	addi	r2,r2,1
     f94:	e0bff715 	stw	r2,-36(fp)
     f98:	e0bff717 	ldw	r2,-36(fp)
     f9c:	10800a10 	cmplti	r2,r2,40
     fa0:	103fea1e 	bne	r2,zero,f4c <__alt_data_end+0xf8000f4c>

		// STEP 6 begin
		//-----------------------------------get configuration descriptor-2------------------------------------//
		//get device descriptor
		// TASK: Call the appropriate function for this step.
		UsbGetConfigDesc2(); 	// Get Configuration Descriptor -2
     fa4:	00021f00 	call	21f0 <UsbGetConfigDesc2>

		usleep(100*1000);
     fa8:	010000b4 	movhi	r4,2
     fac:	2121a804 	addi	r4,r4,-31072
     fb0:	0019f280 	call	19f28 <usleep>
		//if no message
		while (!(IO_read(HPI_STATUS) & HPI_STATUS_SIE1msg_FLAG) )  //read sie1 msg register
     fb4:	00000306 	br	fc4 <Keyboard_INIT+0x990>
		{
			// TASK: Call the appropriate function again if it wasn't processed successfully.
			UsbGetConfigDesc2();
     fb8:	00021f00 	call	21f0 <UsbGetConfigDesc2>
			usleep(10*1000);
     fbc:	0109c404 	movi	r4,10000
     fc0:	0019f280 	call	19f28 <usleep>
		// TASK: Call the appropriate function for this step.
		UsbGetConfigDesc2(); 	// Get Configuration Descriptor -2

		usleep(100*1000);
		//if no message
		while (!(IO_read(HPI_STATUS) & HPI_STATUS_SIE1msg_FLAG) )  //read sie1 msg register
     fc4:	010000c4 	movi	r4,3
     fc8:	0001a700 	call	1a70 <IO_read>
     fcc:	10bfffcc 	andi	r2,r2,65535
     fd0:	1080040c 	andi	r2,r2,16
     fd4:	103ff826 	beq	r2,zero,fb8 <__alt_data_end+0xf8000fb8>
			// TASK: Call the appropriate function again if it wasn't processed successfully.
			UsbGetConfigDesc2();
			usleep(10*1000);
		}

		UsbWaitTDListDone();
     fd8:	0002ae00 	call	2ae0 <UsbWaitTDListDone>

		IO_write(HPI_ADDR,0x0506);
     fdc:	01414184 	movi	r5,1286
     fe0:	01000084 	movi	r4,2
     fe4:	00019e80 	call	19e8 <IO_write>
		printf("[ENUM PROCESS]:step 6 TD Status Byte is %x\n",IO_read(HPI_DATA));
     fe8:	0009883a 	mov	r4,zero
     fec:	0001a700 	call	1a70 <IO_read>
     ff0:	10bfffcc 	andi	r2,r2,65535
     ff4:	100b883a 	mov	r5,r2
     ff8:	010000b4 	movhi	r4,2
     ffc:	2130c304 	addi	r4,r4,-15604
    1000:	000e4980 	call	e498 <printf>

		IO_write(HPI_ADDR,0x0508);
    1004:	01414204 	movi	r5,1288
    1008:	01000084 	movi	r4,2
    100c:	00019e80 	call	19e8 <IO_write>
		usb_ctl_val = IO_read(HPI_DATA);
    1010:	0009883a 	mov	r4,zero
    1014:	0001a700 	call	1a70 <IO_read>
    1018:	d0a6f60d 	sth	r2,-25640(gp)
		printf("[ENUM PROCESS]:step 6 TD Control Byte is %x\n",usb_ctl_val);
    101c:	d0a6f60b 	ldhu	r2,-25640(gp)
    1020:	10bfffcc 	andi	r2,r2,65535
    1024:	100b883a 	mov	r5,r2
    1028:	010000b4 	movhi	r4,2
    102c:	2130ce04 	addi	r4,r4,-15560
    1030:	000e4980 	call	e498 <printf>
		while (usb_ctl_val != 0x03)
    1034:	00000206 	br	1040 <Keyboard_INIT+0xa0c>
		{
			usb_ctl_val = UsbGetRetryCnt();
    1038:	0002b640 	call	2b64 <UsbGetRetryCnt>
    103c:	d0a6f60d 	sth	r2,-25640(gp)
		printf("[ENUM PROCESS]:step 6 TD Status Byte is %x\n",IO_read(HPI_DATA));

		IO_write(HPI_ADDR,0x0508);
		usb_ctl_val = IO_read(HPI_DATA);
		printf("[ENUM PROCESS]:step 6 TD Control Byte is %x\n",usb_ctl_val);
		while (usb_ctl_val != 0x03)
    1040:	d0a6f60b 	ldhu	r2,-25640(gp)
    1044:	10bfffcc 	andi	r2,r2,65535
    1048:	108000d8 	cmpnei	r2,r2,3
    104c:	103ffa1e 	bne	r2,zero,1038 <__alt_data_end+0xf8001038>
		{
			usb_ctl_val = UsbGetRetryCnt();
		}


		printf("-----------[ENUM PROCESS]:get configuration descriptor-2 done!------------\n");
    1050:	010000b4 	movhi	r4,2
    1054:	2130da04 	addi	r4,r4,-15512
    1058:	000e5940 	call	e594 <puts>
		for (int i = 40; i < 44; i++){
    105c:	00800a04 	movi	r2,40
    1060:	e0bff815 	stw	r2,-32(fp)
    1064:	00001306 	br	10b4 <Keyboard_INIT+0xa80>
			draw_driver(12,260,28,276,i*10,400,4);
    1068:	01400284 	movi	r5,10
    106c:	e13ff817 	ldw	r4,-32(fp)
    1070:	000c68c0 	call	c68c <__mulsi3>
    1074:	1007883a 	mov	r3,r2
    1078:	00800104 	movi	r2,4
    107c:	d8800215 	stw	r2,8(sp)
    1080:	00806404 	movi	r2,400
    1084:	d8800115 	stw	r2,4(sp)
    1088:	d8c00015 	stw	r3,0(sp)
    108c:	01c04504 	movi	r7,276
    1090:	01800704 	movi	r6,28
    1094:	01404104 	movi	r5,260
    1098:	01000304 	movi	r4,12
    109c:	00036040 	call	3604 <draw_driver>
			delay(30);
    10a0:	01000784 	movi	r4,30
    10a4:	00038500 	call	3850 <delay>
			usb_ctl_val = UsbGetRetryCnt();
		}


		printf("-----------[ENUM PROCESS]:get configuration descriptor-2 done!------------\n");
		for (int i = 40; i < 44; i++){
    10a8:	e0bff817 	ldw	r2,-32(fp)
    10ac:	10800044 	addi	r2,r2,1
    10b0:	e0bff815 	stw	r2,-32(fp)
    10b4:	e0bff817 	ldw	r2,-32(fp)
    10b8:	10800b10 	cmplti	r2,r2,44
    10bc:	103fea1e 	bne	r2,zero,1068 <__alt_data_end+0xf8001068>


		// ---------------------------------get device info---------------------------------------------//

		// TASK: Write the address to read from the memory for byte 7 of the interface descriptor to HPI_ADDR.
		IO_write(HPI_ADDR,0x056c);
    10c0:	01415b04 	movi	r5,1388
    10c4:	01000084 	movi	r4,2
    10c8:	00019e80 	call	19e8 <IO_write>
		code = IO_read(HPI_DATA);
    10cc:	0009883a 	mov	r4,zero
    10d0:	0001a700 	call	1a70 <IO_read>
    10d4:	e0bfff0d 	sth	r2,-4(fp)
		code = code & 0x003;
    10d8:	e0bfff0b 	ldhu	r2,-4(fp)
    10dc:	108000cc 	andi	r2,r2,3
    10e0:	e0bfff0d 	sth	r2,-4(fp)
		printf("\ncode = %x\n", code);
    10e4:	e0bfff0b 	ldhu	r2,-4(fp)
    10e8:	100b883a 	mov	r5,r2
    10ec:	010000b4 	movhi	r4,2
    10f0:	2130ed04 	addi	r4,r4,-15436
    10f4:	000e4980 	call	e498 <printf>

		if (code == 0x01)
    10f8:	e0bfff0b 	ldhu	r2,-4(fp)
    10fc:	10800058 	cmpnei	r2,r2,1
    1100:	1000041e 	bne	r2,zero,1114 <Keyboard_INIT+0xae0>
		{
			printf("\n[INFO]:check TD rec data7 \n[INFO]:Keyboard Detected!!!\n\n");
    1104:	010000b4 	movhi	r4,2
    1108:	2130f004 	addi	r4,r4,-15424
    110c:	000e5940 	call	e594 <puts>
    1110:	00000306 	br	1120 <Keyboard_INIT+0xaec>
		}
		else
		{
			printf("\n[INFO]:Keyboard Not Detected!!! \n\n");
    1114:	010000b4 	movhi	r4,2
    1118:	2130ff04 	addi	r4,r4,-15364
    111c:	000e5940 	call	e594 <puts>
		}

		// TASK: Write the address to read from the memory for the endpoint descriptor to HPI_ADDR.

		IO_write(HPI_ADDR,0x0576);
    1120:	01415d84 	movi	r5,1398
    1124:	01000084 	movi	r4,2
    1128:	00019e80 	call	19e8 <IO_write>
		IO_write(HPI_DATA,0x073F);
    112c:	0141cfc4 	movi	r5,1855
    1130:	0009883a 	mov	r4,zero
    1134:	00019e80 	call	19e8 <IO_write>
		IO_write(HPI_DATA,0x8105);
    1138:	01604154 	movui	r5,33029
    113c:	0009883a 	mov	r4,zero
    1140:	00019e80 	call	19e8 <IO_write>
		IO_write(HPI_DATA,0x0003);
    1144:	014000c4 	movi	r5,3
    1148:	0009883a 	mov	r4,zero
    114c:	00019e80 	call	19e8 <IO_write>
		IO_write(HPI_DATA,0x0008);
    1150:	01400204 	movi	r5,8
    1154:	0009883a 	mov	r4,zero
    1158:	00019e80 	call	19e8 <IO_write>
		IO_write(HPI_DATA,0xAC0A);
    115c:	016b0294 	movui	r5,44042
    1160:	0009883a 	mov	r4,zero
    1164:	00019e80 	call	19e8 <IO_write>
		UsbWrite(HUSB_SIE1_pCurrentTDPtr,0x0576); //HUSB_SIE1_pCurrentTDPtr
    1168:	01415d84 	movi	r5,1398
    116c:	01006c04 	movi	r4,432
    1170:	0001af00 	call	1af0 <UsbWrite>

		//data_size = (IO_read(HPI_DATA)>>8)&0x0ff;
		//data_size = 0x08;//(IO_read(HPI_DATA))&0x0ff;
		//UsbPrintMem();
		IO_write(HPI_ADDR,0x057c);
    1174:	01415f04 	movi	r5,1404
    1178:	01000084 	movi	r4,2
    117c:	00019e80 	call	19e8 <IO_write>
		data_size = (IO_read(HPI_DATA))&0x0ff;
    1180:	0009883a 	mov	r4,zero
    1184:	0001a700 	call	1a70 <IO_read>
    1188:	d0a6f685 	stb	r2,-25638(gp)
		printf("[ENUM PROCESS]:data packet size is %d\n",data_size);
    118c:	d0a6f683 	ldbu	r2,-25638(gp)
    1190:	10803fcc 	andi	r2,r2,255
    1194:	100b883a 	mov	r5,r2
    1198:	010000b4 	movhi	r4,2
    119c:	21310804 	addi	r4,r4,-15328
    11a0:	000e4980 	call	e498 <printf>

		for (int i = 44; i < 48; i++){
    11a4:	00800b04 	movi	r2,44
    11a8:	e0bff915 	stw	r2,-28(fp)
    11ac:	00001306 	br	11fc <Keyboard_INIT+0xbc8>
			draw_driver(12,260,28,276,i*10,400,4);
    11b0:	01400284 	movi	r5,10
    11b4:	e13ff917 	ldw	r4,-28(fp)
    11b8:	000c68c0 	call	c68c <__mulsi3>
    11bc:	1007883a 	mov	r3,r2
    11c0:	00800104 	movi	r2,4
    11c4:	d8800215 	stw	r2,8(sp)
    11c8:	00806404 	movi	r2,400
    11cc:	d8800115 	stw	r2,4(sp)
    11d0:	d8c00015 	stw	r3,0(sp)
    11d4:	01c04504 	movi	r7,276
    11d8:	01800704 	movi	r6,28
    11dc:	01404104 	movi	r5,260
    11e0:	01000304 	movi	r4,12
    11e4:	00036040 	call	3604 <draw_driver>
			delay(30);
    11e8:	01000784 	movi	r4,30
    11ec:	00038500 	call	3850 <delay>
		//UsbPrintMem();
		IO_write(HPI_ADDR,0x057c);
		data_size = (IO_read(HPI_DATA))&0x0ff;
		printf("[ENUM PROCESS]:data packet size is %d\n",data_size);

		for (int i = 44; i < 48; i++){
    11f0:	e0bff917 	ldw	r2,-28(fp)
    11f4:	10800044 	addi	r2,r2,1
    11f8:	e0bff915 	stw	r2,-28(fp)
    11fc:	e0bff917 	ldw	r2,-28(fp)
    1200:	10800c10 	cmplti	r2,r2,48
    1204:	103fea1e 	bne	r2,zero,11b0 <__alt_data_end+0xf80011b0>


		// STEP 7 begin
		//------------------------------------set configuration -----------------------------------------//
		// TASK: Call the appropriate function for this step.
		UsbSetConfig();		// Set Configuration
    1208:	00024580 	call	2458 <UsbSetConfig>

		while (!(IO_read(HPI_STATUS) & HPI_STATUS_SIE1msg_FLAG) )  //read sie1 msg register
    120c:	00000306 	br	121c <Keyboard_INIT+0xbe8>
		{
			// TASK: Call the appropriate function again if it wasn't processed successfully.
			UsbSetConfig();		// Set Configuration
    1210:	00024580 	call	2458 <UsbSetConfig>
			usleep(10*1000);
    1214:	0109c404 	movi	r4,10000
    1218:	0019f280 	call	19f28 <usleep>
		// STEP 7 begin
		//------------------------------------set configuration -----------------------------------------//
		// TASK: Call the appropriate function for this step.
		UsbSetConfig();		// Set Configuration

		while (!(IO_read(HPI_STATUS) & HPI_STATUS_SIE1msg_FLAG) )  //read sie1 msg register
    121c:	010000c4 	movi	r4,3
    1220:	0001a700 	call	1a70 <IO_read>
    1224:	10bfffcc 	andi	r2,r2,65535
    1228:	1080040c 	andi	r2,r2,16
    122c:	103ff826 	beq	r2,zero,1210 <__alt_data_end+0xf8001210>
			// TASK: Call the appropriate function again if it wasn't processed successfully.
			UsbSetConfig();		// Set Configuration
			usleep(10*1000);
		}

		UsbWaitTDListDone();
    1230:	0002ae00 	call	2ae0 <UsbWaitTDListDone>

		IO_write(HPI_ADDR,0x0506);
    1234:	01414184 	movi	r5,1286
    1238:	01000084 	movi	r4,2
    123c:	00019e80 	call	19e8 <IO_write>
		printf("[ENUM PROCESS]:step 7 TD Status Byte is %x\n",IO_read(HPI_DATA));
    1240:	0009883a 	mov	r4,zero
    1244:	0001a700 	call	1a70 <IO_read>
    1248:	10bfffcc 	andi	r2,r2,65535
    124c:	100b883a 	mov	r5,r2
    1250:	010000b4 	movhi	r4,2
    1254:	21311204 	addi	r4,r4,-15288
    1258:	000e4980 	call	e498 <printf>

		IO_write(HPI_ADDR,0x0508);
    125c:	01414204 	movi	r5,1288
    1260:	01000084 	movi	r4,2
    1264:	00019e80 	call	19e8 <IO_write>
		usb_ctl_val = IO_read(HPI_DATA);
    1268:	0009883a 	mov	r4,zero
    126c:	0001a700 	call	1a70 <IO_read>
    1270:	d0a6f60d 	sth	r2,-25640(gp)
		printf("[ENUM PROCESS]:step 7 TD Control Byte is %x\n",usb_ctl_val);
    1274:	d0a6f60b 	ldhu	r2,-25640(gp)
    1278:	10bfffcc 	andi	r2,r2,65535
    127c:	100b883a 	mov	r5,r2
    1280:	010000b4 	movhi	r4,2
    1284:	21311d04 	addi	r4,r4,-15244
    1288:	000e4980 	call	e498 <printf>
		while (usb_ctl_val != 0x03)
    128c:	00000206 	br	1298 <Keyboard_INIT+0xc64>
		{
			usb_ctl_val = UsbGetRetryCnt();
    1290:	0002b640 	call	2b64 <UsbGetRetryCnt>
    1294:	d0a6f60d 	sth	r2,-25640(gp)
		printf("[ENUM PROCESS]:step 7 TD Status Byte is %x\n",IO_read(HPI_DATA));

		IO_write(HPI_ADDR,0x0508);
		usb_ctl_val = IO_read(HPI_DATA);
		printf("[ENUM PROCESS]:step 7 TD Control Byte is %x\n",usb_ctl_val);
		while (usb_ctl_val != 0x03)
    1298:	d0a6f60b 	ldhu	r2,-25640(gp)
    129c:	10bfffcc 	andi	r2,r2,65535
    12a0:	108000d8 	cmpnei	r2,r2,3
    12a4:	103ffa1e 	bne	r2,zero,1290 <__alt_data_end+0xf8001290>
		{
			usb_ctl_val = UsbGetRetryCnt();
		}

		printf("------------[ENUM PROCESS]:set configuration done!-------------------\n");
    12a8:	010000b4 	movhi	r4,2
    12ac:	21312904 	addi	r4,r4,-15196
    12b0:	000e5940 	call	e594 <puts>

		for (int i = 48; i < 52; i++){
    12b4:	00800c04 	movi	r2,48
    12b8:	e0bffa15 	stw	r2,-24(fp)
    12bc:	00001306 	br	130c <Keyboard_INIT+0xcd8>
			draw_driver(12,260,28,276,i*10,400,4);
    12c0:	01400284 	movi	r5,10
    12c4:	e13ffa17 	ldw	r4,-24(fp)
    12c8:	000c68c0 	call	c68c <__mulsi3>
    12cc:	1007883a 	mov	r3,r2
    12d0:	00800104 	movi	r2,4
    12d4:	d8800215 	stw	r2,8(sp)
    12d8:	00806404 	movi	r2,400
    12dc:	d8800115 	stw	r2,4(sp)
    12e0:	d8c00015 	stw	r3,0(sp)
    12e4:	01c04504 	movi	r7,276
    12e8:	01800704 	movi	r6,28
    12ec:	01404104 	movi	r5,260
    12f0:	01000304 	movi	r4,12
    12f4:	00036040 	call	3604 <draw_driver>
			delay(30);
    12f8:	01000784 	movi	r4,30
    12fc:	00038500 	call	3850 <delay>
			usb_ctl_val = UsbGetRetryCnt();
		}

		printf("------------[ENUM PROCESS]:set configuration done!-------------------\n");

		for (int i = 48; i < 52; i++){
    1300:	e0bffa17 	ldw	r2,-24(fp)
    1304:	10800044 	addi	r2,r2,1
    1308:	e0bffa15 	stw	r2,-24(fp)
    130c:	e0bffa17 	ldw	r2,-24(fp)
    1310:	10800d10 	cmplti	r2,r2,52
    1314:	103fea1e 	bne	r2,zero,12c0 <__alt_data_end+0xf80012c0>



		//----------------------------------------------class request out ------------------------------------------//
		// TASK: Call the appropriate function for this step.
		UsbClassRequest();
    1318:	00025580 	call	2558 <UsbClassRequest>

		while (!(IO_read(HPI_STATUS) & HPI_STATUS_SIE1msg_FLAG) )  //read sie1 msg register
    131c:	00000306 	br	132c <Keyboard_INIT+0xcf8>
		{
			// TASK: Call the appropriate function again if it wasn't processed successfully.
			UsbClassRequest();
    1320:	00025580 	call	2558 <UsbClassRequest>
			usleep(10*1000);
    1324:	0109c404 	movi	r4,10000
    1328:	0019f280 	call	19f28 <usleep>

		//----------------------------------------------class request out ------------------------------------------//
		// TASK: Call the appropriate function for this step.
		UsbClassRequest();

		while (!(IO_read(HPI_STATUS) & HPI_STATUS_SIE1msg_FLAG) )  //read sie1 msg register
    132c:	010000c4 	movi	r4,3
    1330:	0001a700 	call	1a70 <IO_read>
    1334:	10bfffcc 	andi	r2,r2,65535
    1338:	1080040c 	andi	r2,r2,16
    133c:	103ff826 	beq	r2,zero,1320 <__alt_data_end+0xf8001320>
			// TASK: Call the appropriate function again if it wasn't processed successfully.
			UsbClassRequest();
			usleep(10*1000);
		}

		UsbWaitTDListDone();
    1340:	0002ae00 	call	2ae0 <UsbWaitTDListDone>

		IO_write(HPI_ADDR,0x0506);
    1344:	01414184 	movi	r5,1286
    1348:	01000084 	movi	r4,2
    134c:	00019e80 	call	19e8 <IO_write>
		printf("[ENUM PROCESS]:step 8 TD Status Byte is %x\n",IO_read(HPI_DATA));
    1350:	0009883a 	mov	r4,zero
    1354:	0001a700 	call	1a70 <IO_read>
    1358:	10bfffcc 	andi	r2,r2,65535
    135c:	100b883a 	mov	r5,r2
    1360:	010000b4 	movhi	r4,2
    1364:	21313b04 	addi	r4,r4,-15124
    1368:	000e4980 	call	e498 <printf>

		IO_write(HPI_ADDR,0x0508);
    136c:	01414204 	movi	r5,1288
    1370:	01000084 	movi	r4,2
    1374:	00019e80 	call	19e8 <IO_write>
		usb_ctl_val = IO_read(HPI_DATA);
    1378:	0009883a 	mov	r4,zero
    137c:	0001a700 	call	1a70 <IO_read>
    1380:	d0a6f60d 	sth	r2,-25640(gp)
		printf("[ENUM PROCESS]:step 8 TD Control Byte is %x\n",usb_ctl_val);
    1384:	d0a6f60b 	ldhu	r2,-25640(gp)
    1388:	10bfffcc 	andi	r2,r2,65535
    138c:	100b883a 	mov	r5,r2
    1390:	010000b4 	movhi	r4,2
    1394:	21314604 	addi	r4,r4,-15080
    1398:	000e4980 	call	e498 <printf>
		int i = 0;
    139c:	e03ffb15 	stw	zero,-20(fp)
		while (usb_ctl_val != 0x03)
    13a0:	00001306 	br	13f0 <Keyboard_INIT+0xdbc>
		{
			usb_ctl_val = UsbGetRetryCnt();
    13a4:	0002b640 	call	2b64 <UsbGetRetryCnt>
    13a8:	d0a6f60d 	sth	r2,-25640(gp)
			i++;
    13ac:	e0bffb17 	ldw	r2,-20(fp)
    13b0:	10800044 	addi	r2,r2,1
    13b4:	e0bffb15 	stw	r2,-20(fp)
			if (i == 10000){
    13b8:	e0bffb17 	ldw	r2,-20(fp)
    13bc:	1089c418 	cmpnei	r2,r2,10000
    13c0:	10000b1e 	bne	r2,zero,13f0 <Keyboard_INIT+0xdbc>
				draw_driver(6,205,327,229,12,130,4);
    13c4:	00800104 	movi	r2,4
    13c8:	d8800215 	stw	r2,8(sp)
    13cc:	00802084 	movi	r2,130
    13d0:	d8800115 	stw	r2,4(sp)
    13d4:	00800304 	movi	r2,12
    13d8:	d8800015 	stw	r2,0(sp)
    13dc:	01c03944 	movi	r7,229
    13e0:	018051c4 	movi	r6,327
    13e4:	01403344 	movi	r5,205
    13e8:	01000184 	movi	r4,6
    13ec:	00036040 	call	3604 <draw_driver>

		IO_write(HPI_ADDR,0x0508);
		usb_ctl_val = IO_read(HPI_DATA);
		printf("[ENUM PROCESS]:step 8 TD Control Byte is %x\n",usb_ctl_val);
		int i = 0;
		while (usb_ctl_val != 0x03)
    13f0:	d0a6f60b 	ldhu	r2,-25640(gp)
    13f4:	10bfffcc 	andi	r2,r2,65535
    13f8:	108000d8 	cmpnei	r2,r2,3
    13fc:	103fe91e 	bne	r2,zero,13a4 <__alt_data_end+0xf80013a4>
				draw_driver(6,205,327,229,12,130,4);
			}
		}


		printf("------------[ENUM PROCESS]:class request out done!-------------------\n");
    1400:	010000b4 	movhi	r4,2
    1404:	21315204 	addi	r4,r4,-15032
    1408:	000e5940 	call	e594 <puts>

		for (int i = 52; i < 56; i++){
    140c:	00800d04 	movi	r2,52
    1410:	e0bffc15 	stw	r2,-16(fp)
    1414:	00001306 	br	1464 <Keyboard_INIT+0xe30>
			draw_driver(12,260,28,276,i*10,400,4);
    1418:	01400284 	movi	r5,10
    141c:	e13ffc17 	ldw	r4,-16(fp)
    1420:	000c68c0 	call	c68c <__mulsi3>
    1424:	1007883a 	mov	r3,r2
    1428:	00800104 	movi	r2,4
    142c:	d8800215 	stw	r2,8(sp)
    1430:	00806404 	movi	r2,400
    1434:	d8800115 	stw	r2,4(sp)
    1438:	d8c00015 	stw	r3,0(sp)
    143c:	01c04504 	movi	r7,276
    1440:	01800704 	movi	r6,28
    1444:	01404104 	movi	r5,260
    1448:	01000304 	movi	r4,12
    144c:	00036040 	call	3604 <draw_driver>
			delay(30);
    1450:	01000784 	movi	r4,30
    1454:	00038500 	call	3850 <delay>
		}


		printf("------------[ENUM PROCESS]:class request out done!-------------------\n");

		for (int i = 52; i < 56; i++){
    1458:	e0bffc17 	ldw	r2,-16(fp)
    145c:	10800044 	addi	r2,r2,1
    1460:	e0bffc15 	stw	r2,-16(fp)
    1464:	e0bffc17 	ldw	r2,-16(fp)
    1468:	10800e10 	cmplti	r2,r2,56
    146c:	103fea1e 	bne	r2,zero,1418 <__alt_data_end+0xf8001418>


		// STEP 8 begin
		//----------------------------------get descriptor(class 0x21 = HID) request out --------------------------------//
		// TASK: Call the appropriate function for this step.
		UsbGetHidDesc();
    1470:	00026580 	call	2658 <UsbGetHidDesc>

		while (!(IO_read(HPI_STATUS) & HPI_STATUS_SIE1msg_FLAG) )  //read sie1 msg register
    1474:	00000306 	br	1484 <Keyboard_INIT+0xe50>
		{
			// TASK: Call the appropriate function again if it wasn't processed successfully.
			UsbGetHidDesc();
    1478:	00026580 	call	2658 <UsbGetHidDesc>
			usleep(10*1000);
    147c:	0109c404 	movi	r4,10000
    1480:	0019f280 	call	19f28 <usleep>
		// STEP 8 begin
		//----------------------------------get descriptor(class 0x21 = HID) request out --------------------------------//
		// TASK: Call the appropriate function for this step.
		UsbGetHidDesc();

		while (!(IO_read(HPI_STATUS) & HPI_STATUS_SIE1msg_FLAG) )  //read sie1 msg register
    1484:	010000c4 	movi	r4,3
    1488:	0001a700 	call	1a70 <IO_read>
    148c:	10bfffcc 	andi	r2,r2,65535
    1490:	1080040c 	andi	r2,r2,16
    1494:	103ff826 	beq	r2,zero,1478 <__alt_data_end+0xf8001478>
			// TASK: Call the appropriate function again if it wasn't processed successfully.
			UsbGetHidDesc();
			usleep(10*1000);
		}

		UsbWaitTDListDone();
    1498:	0002ae00 	call	2ae0 <UsbWaitTDListDone>

		IO_write(HPI_ADDR,0x0506);
    149c:	01414184 	movi	r5,1286
    14a0:	01000084 	movi	r4,2
    14a4:	00019e80 	call	19e8 <IO_write>
		printf("[ENUM PROCESS]:step 8 TD Status Byte is %x\n",IO_read(HPI_DATA));
    14a8:	0009883a 	mov	r4,zero
    14ac:	0001a700 	call	1a70 <IO_read>
    14b0:	10bfffcc 	andi	r2,r2,65535
    14b4:	100b883a 	mov	r5,r2
    14b8:	010000b4 	movhi	r4,2
    14bc:	21313b04 	addi	r4,r4,-15124
    14c0:	000e4980 	call	e498 <printf>

		IO_write(HPI_ADDR,0x0508);
    14c4:	01414204 	movi	r5,1288
    14c8:	01000084 	movi	r4,2
    14cc:	00019e80 	call	19e8 <IO_write>
		usb_ctl_val = IO_read(HPI_DATA);
    14d0:	0009883a 	mov	r4,zero
    14d4:	0001a700 	call	1a70 <IO_read>
    14d8:	d0a6f60d 	sth	r2,-25640(gp)
		printf("[ENUM PROCESS]:step 8 TD Control Byte is %x\n",usb_ctl_val);
    14dc:	d0a6f60b 	ldhu	r2,-25640(gp)
    14e0:	10bfffcc 	andi	r2,r2,65535
    14e4:	100b883a 	mov	r5,r2
    14e8:	010000b4 	movhi	r4,2
    14ec:	21314604 	addi	r4,r4,-15080
    14f0:	000e4980 	call	e498 <printf>
		while (usb_ctl_val != 0x03)
    14f4:	00000206 	br	1500 <Keyboard_INIT+0xecc>
		{
			usb_ctl_val = UsbGetRetryCnt();
    14f8:	0002b640 	call	2b64 <UsbGetRetryCnt>
    14fc:	d0a6f60d 	sth	r2,-25640(gp)
		printf("[ENUM PROCESS]:step 8 TD Status Byte is %x\n",IO_read(HPI_DATA));

		IO_write(HPI_ADDR,0x0508);
		usb_ctl_val = IO_read(HPI_DATA);
		printf("[ENUM PROCESS]:step 8 TD Control Byte is %x\n",usb_ctl_val);
		while (usb_ctl_val != 0x03)
    1500:	d0a6f60b 	ldhu	r2,-25640(gp)
    1504:	10bfffcc 	andi	r2,r2,65535
    1508:	108000d8 	cmpnei	r2,r2,3
    150c:	103ffa1e 	bne	r2,zero,14f8 <__alt_data_end+0xf80014f8>
		{
			usb_ctl_val = UsbGetRetryCnt();
		}

		printf("------------[ENUM PROCESS]:get descriptor (class 0x21) done!-------------------\n");
    1510:	010000b4 	movhi	r4,2
    1514:	21316404 	addi	r4,r4,-14960
    1518:	000e5940 	call	e594 <puts>


		for (int i = 56; i < 60; i++){
    151c:	00800e04 	movi	r2,56
    1520:	e0bffd15 	stw	r2,-12(fp)
    1524:	00001306 	br	1574 <Keyboard_INIT+0xf40>
			draw_driver(12,260,28,276,i*10,400,4);
    1528:	01400284 	movi	r5,10
    152c:	e13ffd17 	ldw	r4,-12(fp)
    1530:	000c68c0 	call	c68c <__mulsi3>
    1534:	1007883a 	mov	r3,r2
    1538:	00800104 	movi	r2,4
    153c:	d8800215 	stw	r2,8(sp)
    1540:	00806404 	movi	r2,400
    1544:	d8800115 	stw	r2,4(sp)
    1548:	d8c00015 	stw	r3,0(sp)
    154c:	01c04504 	movi	r7,276
    1550:	01800704 	movi	r6,28
    1554:	01404104 	movi	r5,260
    1558:	01000304 	movi	r4,12
    155c:	00036040 	call	3604 <draw_driver>
			delay(30);
    1560:	01000784 	movi	r4,30
    1564:	00038500 	call	3850 <delay>
		}

		printf("------------[ENUM PROCESS]:get descriptor (class 0x21) done!-------------------\n");


		for (int i = 56; i < 60; i++){
    1568:	e0bffd17 	ldw	r2,-12(fp)
    156c:	10800044 	addi	r2,r2,1
    1570:	e0bffd15 	stw	r2,-12(fp)
    1574:	e0bffd17 	ldw	r2,-12(fp)
    1578:	10800f10 	cmplti	r2,r2,60
    157c:	103fea1e 	bne	r2,zero,1528 <__alt_data_end+0xf8001528>


		// STEP 9 begin
		//-------------------------------get descriptor (class 0x22 = report)-------------------------------------------//
		// TASK: Call the appropriate function for this step.
		UsbGetReportDesc();
    1580:	00027a00 	call	27a0 <UsbGetReportDesc>
		//if no message
		while (!(IO_read(HPI_STATUS) & HPI_STATUS_SIE1msg_FLAG) )  //read sie1 msg register
    1584:	00000306 	br	1594 <Keyboard_INIT+0xf60>
		{
			// TASK: Call the appropriate function again if it wasn't processed successfully.
			UsbGetReportDesc();
    1588:	00027a00 	call	27a0 <UsbGetReportDesc>
			usleep(10*1000);
    158c:	0109c404 	movi	r4,10000
    1590:	0019f280 	call	19f28 <usleep>
		// STEP 9 begin
		//-------------------------------get descriptor (class 0x22 = report)-------------------------------------------//
		// TASK: Call the appropriate function for this step.
		UsbGetReportDesc();
		//if no message
		while (!(IO_read(HPI_STATUS) & HPI_STATUS_SIE1msg_FLAG) )  //read sie1 msg register
    1594:	010000c4 	movi	r4,3
    1598:	0001a700 	call	1a70 <IO_read>
    159c:	10bfffcc 	andi	r2,r2,65535
    15a0:	1080040c 	andi	r2,r2,16
    15a4:	103ff826 	beq	r2,zero,1588 <__alt_data_end+0xf8001588>
			// TASK: Call the appropriate function again if it wasn't processed successfully.
			UsbGetReportDesc();
			usleep(10*1000);
		}

		UsbWaitTDListDone();
    15a8:	0002ae00 	call	2ae0 <UsbWaitTDListDone>

		IO_write(HPI_ADDR,0x0506);
    15ac:	01414184 	movi	r5,1286
    15b0:	01000084 	movi	r4,2
    15b4:	00019e80 	call	19e8 <IO_write>
		printf("[ENUM PROCESS]: step 9 TD Status Byte is %x\n",IO_read(HPI_DATA));
    15b8:	0009883a 	mov	r4,zero
    15bc:	0001a700 	call	1a70 <IO_read>
    15c0:	10bfffcc 	andi	r2,r2,65535
    15c4:	100b883a 	mov	r5,r2
    15c8:	010000b4 	movhi	r4,2
    15cc:	21317804 	addi	r4,r4,-14880
    15d0:	000e4980 	call	e498 <printf>

		IO_write(HPI_ADDR,0x0508);
    15d4:	01414204 	movi	r5,1288
    15d8:	01000084 	movi	r4,2
    15dc:	00019e80 	call	19e8 <IO_write>
		usb_ctl_val = IO_read(HPI_DATA);
    15e0:	0009883a 	mov	r4,zero
    15e4:	0001a700 	call	1a70 <IO_read>
    15e8:	d0a6f60d 	sth	r2,-25640(gp)
		printf("[ENUM PROCESS]: step 9 TD Control Byte is %x\n",usb_ctl_val);
    15ec:	d0a6f60b 	ldhu	r2,-25640(gp)
    15f0:	10bfffcc 	andi	r2,r2,65535
    15f4:	100b883a 	mov	r5,r2
    15f8:	010000b4 	movhi	r4,2
    15fc:	21318404 	addi	r4,r4,-14832
    1600:	000e4980 	call	e498 <printf>
		while (usb_ctl_val != 0x03)
    1604:	00000206 	br	1610 <Keyboard_INIT+0xfdc>
		{
			usb_ctl_val = UsbGetRetryCnt();
    1608:	0002b640 	call	2b64 <UsbGetRetryCnt>
    160c:	d0a6f60d 	sth	r2,-25640(gp)
		printf("[ENUM PROCESS]: step 9 TD Status Byte is %x\n",IO_read(HPI_DATA));

		IO_write(HPI_ADDR,0x0508);
		usb_ctl_val = IO_read(HPI_DATA);
		printf("[ENUM PROCESS]: step 9 TD Control Byte is %x\n",usb_ctl_val);
		while (usb_ctl_val != 0x03)
    1610:	d0a6f60b 	ldhu	r2,-25640(gp)
    1614:	10bfffcc 	andi	r2,r2,65535
    1618:	108000d8 	cmpnei	r2,r2,3
    161c:	103ffa1e 	bne	r2,zero,1608 <__alt_data_end+0xf8001608>
		{
			usb_ctl_val = UsbGetRetryCnt();
		}

		printf("---------------[ENUM PROCESS]:get descriptor (class 0x22) done!----------------\n");
    1620:	010000b4 	movhi	r4,2
    1624:	21319004 	addi	r4,r4,-14784
    1628:	000e5940 	call	e594 <puts>
		printf("\n-------------------USB Keyboard INIT Finished--------------------------------\n");
    162c:	010000b4 	movhi	r4,2
    1630:	2131a404 	addi	r4,r4,-14704
    1634:	000e5940 	call	e594 <puts>


}
    1638:	0001883a 	nop
    163c:	e037883a 	mov	sp,fp
    1640:	dfc00117 	ldw	ra,4(sp)
    1644:	df000017 	ldw	fp,0(sp)
    1648:	dec00204 	addi	sp,sp,8
    164c:	f800283a 	ret

00001650 <FetchKey>:


int FetchKey(unsigned int keycode[]){
    1650:	defffb04 	addi	sp,sp,-20
    1654:	dfc00415 	stw	ra,16(sp)
    1658:	df000315 	stw	fp,12(sp)
    165c:	dc000215 	stw	r16,8(sp)
    1660:	df000304 	addi	fp,sp,12
    1664:	e13ffe15 	stw	r4,-8(fp)

	alt_u8 	toggle = 0;
    1668:	e03ffd05 	stb	zero,-12(fp)

//	usleep(10000);

			toggle++;
    166c:	e0bffd03 	ldbu	r2,-12(fp)
    1670:	10800044 	addi	r2,r2,1
    1674:	e0bffd05 	stb	r2,-12(fp)
			IO_write(HPI_ADDR,0x0500); //the start address
    1678:	01414004 	movi	r5,1280
    167c:	01000084 	movi	r4,2
    1680:	00019e80 	call	19e8 <IO_write>
			//data phase IN-1
			IO_write(HPI_DATA,0x051c); //500
    1684:	01414704 	movi	r5,1308
    1688:	0009883a 	mov	r4,zero
    168c:	00019e80 	call	19e8 <IO_write>

			IO_write(HPI_DATA,0x000f & data_size);//2 data length
    1690:	d0a6f683 	ldbu	r2,-25638(gp)
    1694:	10803fcc 	andi	r2,r2,255
    1698:	108003cc 	andi	r2,r2,15
    169c:	100b883a 	mov	r5,r2
    16a0:	0009883a 	mov	r4,zero
    16a4:	00019e80 	call	19e8 <IO_write>

			IO_write(HPI_DATA,0x0291);//4 //endpoint 1
    16a8:	0140a444 	movi	r5,657
    16ac:	0009883a 	mov	r4,zero
    16b0:	00019e80 	call	19e8 <IO_write>
			if(toggle%2)
    16b4:	e0bffd03 	ldbu	r2,-12(fp)
    16b8:	1080004c 	andi	r2,r2,1
    16bc:	10803fcc 	andi	r2,r2,255
    16c0:	10000426 	beq	r2,zero,16d4 <FetchKey+0x84>
			{
				IO_write(HPI_DATA,0x0001);//6 //data 1
    16c4:	01400044 	movi	r5,1
    16c8:	0009883a 	mov	r4,zero
    16cc:	00019e80 	call	19e8 <IO_write>
    16d0:	00000306 	br	16e0 <FetchKey+0x90>
			}
			else
			{
				IO_write(HPI_DATA,0x0041);//6 //data 1
    16d4:	01401044 	movi	r5,65
    16d8:	0009883a 	mov	r4,zero
    16dc:	00019e80 	call	19e8 <IO_write>
			}
			IO_write(HPI_DATA,0x0013);//8
    16e0:	014004c4 	movi	r5,19
    16e4:	0009883a 	mov	r4,zero
    16e8:	00019e80 	call	19e8 <IO_write>
			IO_write(HPI_DATA,0x0000);//a
    16ec:	000b883a 	mov	r5,zero
    16f0:	0009883a 	mov	r4,zero
    16f4:	00019e80 	call	19e8 <IO_write>
			UsbWrite(HUSB_SIE1_pCurrentTDPtr,0x0500); //HUSB_SIE1_pCurrentTDPtr
    16f8:	01414004 	movi	r5,1280
    16fc:	01006c04 	movi	r4,432
    1700:	0001af00 	call	1af0 <UsbWrite>

			while (!(IO_read(HPI_STATUS) & HPI_STATUS_SIE1msg_FLAG) )  //read sie1 msg register
    1704:	00002506 	br	179c <FetchKey+0x14c>
			{
				IO_write(HPI_ADDR,0x0500); //the start address
    1708:	01414004 	movi	r5,1280
    170c:	01000084 	movi	r4,2
    1710:	00019e80 	call	19e8 <IO_write>
				//data phase IN-1
				IO_write(HPI_DATA,0x051c); //500
    1714:	01414704 	movi	r5,1308
    1718:	0009883a 	mov	r4,zero
    171c:	00019e80 	call	19e8 <IO_write>

				IO_write(HPI_DATA,0x000f & data_size);//2 data length
    1720:	d0a6f683 	ldbu	r2,-25638(gp)
    1724:	10803fcc 	andi	r2,r2,255
    1728:	108003cc 	andi	r2,r2,15
    172c:	100b883a 	mov	r5,r2
    1730:	0009883a 	mov	r4,zero
    1734:	00019e80 	call	19e8 <IO_write>

				IO_write(HPI_DATA,0x0291);//4 //endpoint 1
    1738:	0140a444 	movi	r5,657
    173c:	0009883a 	mov	r4,zero
    1740:	00019e80 	call	19e8 <IO_write>
				if(toggle%2)
    1744:	e0bffd03 	ldbu	r2,-12(fp)
    1748:	1080004c 	andi	r2,r2,1
    174c:	10803fcc 	andi	r2,r2,255
    1750:	10000426 	beq	r2,zero,1764 <FetchKey+0x114>
				{
					IO_write(HPI_DATA,0x0001);//6 //data 1
    1754:	01400044 	movi	r5,1
    1758:	0009883a 	mov	r4,zero
    175c:	00019e80 	call	19e8 <IO_write>
    1760:	00000306 	br	1770 <FetchKey+0x120>
				}
				else
				{
					IO_write(HPI_DATA,0x0041);//6 //data 1
    1764:	01401044 	movi	r5,65
    1768:	0009883a 	mov	r4,zero
    176c:	00019e80 	call	19e8 <IO_write>
				}
				IO_write(HPI_DATA,0x0013);//8
    1770:	014004c4 	movi	r5,19
    1774:	0009883a 	mov	r4,zero
    1778:	00019e80 	call	19e8 <IO_write>
				IO_write(HPI_DATA,0x0000);//
    177c:	000b883a 	mov	r5,zero
    1780:	0009883a 	mov	r4,zero
    1784:	00019e80 	call	19e8 <IO_write>
				UsbWrite(HUSB_SIE1_pCurrentTDPtr,0x0500); //HUSB_SIE1_pCurrentTDPtr
    1788:	01414004 	movi	r5,1280
    178c:	01006c04 	movi	r4,432
    1790:	0001af00 	call	1af0 <UsbWrite>
				//usleep(1000);
				usleep(400);
    1794:	01006404 	movi	r4,400
    1798:	0019f280 	call	19f28 <usleep>
			}
			IO_write(HPI_DATA,0x0013);//8
			IO_write(HPI_DATA,0x0000);//a
			UsbWrite(HUSB_SIE1_pCurrentTDPtr,0x0500); //HUSB_SIE1_pCurrentTDPtr

			while (!(IO_read(HPI_STATUS) & HPI_STATUS_SIE1msg_FLAG) )  //read sie1 msg register
    179c:	010000c4 	movi	r4,3
    17a0:	0001a700 	call	1a70 <IO_read>
    17a4:	10bfffcc 	andi	r2,r2,65535
    17a8:	1080040c 	andi	r2,r2,16
    17ac:	103fd626 	beq	r2,zero,1708 <__alt_data_end+0xf8001708>
				UsbWrite(HUSB_SIE1_pCurrentTDPtr,0x0500); //HUSB_SIE1_pCurrentTDPtr
				//usleep(1000);
				usleep(400);
			}//end while

			usb_ctl_val = UsbWaitTDListDone();
    17b0:	0002ae00 	call	2ae0 <UsbWaitTDListDone>
    17b4:	d0a6f60d 	sth	r2,-25640(gp)

			// The first two keycodes are stored in 0x051E. Other keycodes are in
			// subsequent addresses.

			keycode[0] = UsbRead(0x051e) & 0x00ff;
    17b8:	01014784 	movi	r4,1310
    17bc:	0001b480 	call	1b48 <UsbRead>
    17c0:	10bfffcc 	andi	r2,r2,65535
    17c4:	10c03fcc 	andi	r3,r2,255
    17c8:	e0bffe17 	ldw	r2,-8(fp)
    17cc:	10c00015 	stw	r3,0(r2)
			keycode[1] = UsbRead(0x051e) >> 8;
    17d0:	e0bffe17 	ldw	r2,-8(fp)
    17d4:	14000104 	addi	r16,r2,4
    17d8:	01014784 	movi	r4,1310
    17dc:	0001b480 	call	1b48 <UsbRead>
    17e0:	10bfffcc 	andi	r2,r2,65535
    17e4:	1004d23a 	srli	r2,r2,8
    17e8:	10bfffcc 	andi	r2,r2,65535
    17ec:	80800015 	stw	r2,0(r16)
			keycode[2] = UsbRead(0x051f) & 0x00ff;
    17f0:	e0bffe17 	ldw	r2,-8(fp)
    17f4:	14000204 	addi	r16,r2,8
    17f8:	010147c4 	movi	r4,1311
    17fc:	0001b480 	call	1b48 <UsbRead>
    1800:	10bfffcc 	andi	r2,r2,65535
    1804:	10803fcc 	andi	r2,r2,255
    1808:	80800015 	stw	r2,0(r16)
			keycode[3] = UsbRead(0x051f) >> 8;
    180c:	e0bffe17 	ldw	r2,-8(fp)
    1810:	14000304 	addi	r16,r2,12
    1814:	010147c4 	movi	r4,1311
    1818:	0001b480 	call	1b48 <UsbRead>
    181c:	10bfffcc 	andi	r2,r2,65535
    1820:	1004d23a 	srli	r2,r2,8
    1824:	10bfffcc 	andi	r2,r2,65535
    1828:	80800015 	stw	r2,0(r16)
			keycode[4] = UsbRead(0x0520) & 0x00ff;
    182c:	e0bffe17 	ldw	r2,-8(fp)
    1830:	14000404 	addi	r16,r2,16
    1834:	01014804 	movi	r4,1312
    1838:	0001b480 	call	1b48 <UsbRead>
    183c:	10bfffcc 	andi	r2,r2,65535
    1840:	10803fcc 	andi	r2,r2,255
    1844:	80800015 	stw	r2,0(r16)
			keycode[5] = UsbRead(0x0520) >> 8;
    1848:	e0bffe17 	ldw	r2,-8(fp)
    184c:	14000504 	addi	r16,r2,20
    1850:	01014804 	movi	r4,1312
    1854:	0001b480 	call	1b48 <UsbRead>
    1858:	10bfffcc 	andi	r2,r2,65535
    185c:	1004d23a 	srli	r2,r2,8
    1860:	10bfffcc 	andi	r2,r2,65535
    1864:	80800015 	stw	r2,0(r16)

			usleep(200);//usleep(5000);
    1868:	01003204 	movi	r4,200
    186c:	0019f280 	call	19f28 <usleep>
			usb_ctl_val = UsbRead(ctl_reg);
    1870:	d0a6f50b 	ldhu	r2,-25644(gp)
    1874:	10bfffcc 	andi	r2,r2,65535
    1878:	1009883a 	mov	r4,r2
    187c:	0001b480 	call	1b48 <UsbRead>
    1880:	d0a6f60d 	sth	r2,-25640(gp)

			if(!(usb_ctl_val & no_device))
    1884:	d0e6f60b 	ldhu	r3,-25640(gp)
    1888:	d0a6f58b 	ldhu	r2,-25642(gp)
    188c:	1884703a 	and	r2,r3,r2
    1890:	10bfffcc 	andi	r2,r2,65535
    1894:	1000241e 	bne	r2,zero,1928 <FetchKey+0x2d8>
			{
				//USB hot plug routine
				for(hot_plug_count = 0 ; hot_plug_count < 7 ; hot_plug_count++)
    1898:	d026f6c5 	stb	zero,-25637(gp)
    189c:	00000f06 	br	18dc <FetchKey+0x28c>
				{
					usleep(5*1000);
    18a0:	0104e204 	movi	r4,5000
    18a4:	0019f280 	call	19f28 <usleep>
					usb_ctl_val = UsbRead(ctl_reg);
    18a8:	d0a6f50b 	ldhu	r2,-25644(gp)
    18ac:	10bfffcc 	andi	r2,r2,65535
    18b0:	1009883a 	mov	r4,r2
    18b4:	0001b480 	call	1b48 <UsbRead>
    18b8:	d0a6f60d 	sth	r2,-25640(gp)
					if(usb_ctl_val & no_device) break;
    18bc:	d0e6f60b 	ldhu	r3,-25640(gp)
    18c0:	d0a6f58b 	ldhu	r2,-25642(gp)
    18c4:	1884703a 	and	r2,r3,r2
    18c8:	10bfffcc 	andi	r2,r2,65535
    18cc:	1000081e 	bne	r2,zero,18f0 <FetchKey+0x2a0>
			usb_ctl_val = UsbRead(ctl_reg);

			if(!(usb_ctl_val & no_device))
			{
				//USB hot plug routine
				for(hot_plug_count = 0 ; hot_plug_count < 7 ; hot_plug_count++)
    18d0:	d0a6f6c3 	ldbu	r2,-25637(gp)
    18d4:	10800044 	addi	r2,r2,1
    18d8:	d0a6f6c5 	stb	r2,-25637(gp)
    18dc:	d0a6f6c3 	ldbu	r2,-25637(gp)
    18e0:	10803fcc 	andi	r2,r2,255
    18e4:	108001f0 	cmpltui	r2,r2,7
    18e8:	103fed1e 	bne	r2,zero,18a0 <__alt_data_end+0xf80018a0>
    18ec:	00000106 	br	18f4 <FetchKey+0x2a4>
				{
					usleep(5*1000);
					usb_ctl_val = UsbRead(ctl_reg);
					if(usb_ctl_val & no_device) break;
    18f0:	0001883a 	nop
				}
				if(!(usb_ctl_val & no_device))
    18f4:	d0e6f60b 	ldhu	r3,-25640(gp)
    18f8:	d0a6f58b 	ldhu	r2,-25642(gp)
    18fc:	1884703a 	and	r2,r3,r2
    1900:	10bfffcc 	andi	r2,r2,65535
    1904:	1000081e 	bne	r2,zero,1928 <FetchKey+0x2d8>
				{
					printf("\n[INFO]: the keyboard has been removed!!! \n");
    1908:	010000b4 	movhi	r4,2
    190c:	2131b804 	addi	r4,r4,-14624
    1910:	000e5940 	call	e594 <puts>
					printf("[INFO]: please insert again!!! \n");
    1914:	010000b4 	movhi	r4,2
    1918:	2131c304 	addi	r4,r4,-14580
    191c:	000e5940 	call	e594 <puts>
					return -1;
    1920:	00bfffc4 	movi	r2,-1
    1924:	00000106 	br	192c <FetchKey+0x2dc>
				}
			}


		return 0;
    1928:	0005883a 	mov	r2,zero
}
    192c:	e6ffff04 	addi	sp,fp,-4
    1930:	dfc00217 	ldw	ra,8(sp)
    1934:	df000117 	ldw	fp,4(sp)
    1938:	dc000017 	ldw	r16,0(sp)
    193c:	dec00304 	addi	sp,sp,12
    1940:	f800283a 	ret

00001944 <IO_init>:
#include "io_handler.h"
#include <stdio.h>


void IO_init(void)
{
    1944:	deffff04 	addi	sp,sp,-4
    1948:	df000015 	stw	fp,0(sp)
    194c:	d839883a 	mov	fp,sp
	*otg_hpi_reset = 1;
    1950:	00820034 	movhi	r2,2048
    1954:	00c00044 	movi	r3,1
    1958:	10c00015 	stw	r3,0(r2)
	*otg_hpi_cs = 1;
    195c:	00820034 	movhi	r2,2048
    1960:	10800404 	addi	r2,r2,16
    1964:	00c00044 	movi	r3,1
    1968:	10c00015 	stw	r3,0(r2)
	*otg_hpi_r = 1;
    196c:	00820034 	movhi	r2,2048
    1970:	10800c04 	addi	r2,r2,48
    1974:	00c00044 	movi	r3,1
    1978:	10c00015 	stw	r3,0(r2)
	*otg_hpi_w = 1;
    197c:	00820034 	movhi	r2,2048
    1980:	10800804 	addi	r2,r2,32
    1984:	00c00044 	movi	r3,1
    1988:	10c00015 	stw	r3,0(r2)
	*otg_hpi_address = 0;
    198c:	00820034 	movhi	r2,2048
    1990:	10801404 	addi	r2,r2,80
    1994:	10000015 	stw	zero,0(r2)
	*otg_hpi_data = 0;
    1998:	00820034 	movhi	r2,2048
    199c:	10801004 	addi	r2,r2,64
    19a0:	10000015 	stw	zero,0(r2)
	// Reset OTG chip
	*otg_hpi_cs = 0;
    19a4:	00820034 	movhi	r2,2048
    19a8:	10800404 	addi	r2,r2,16
    19ac:	10000015 	stw	zero,0(r2)
	*otg_hpi_reset = 0;
    19b0:	00820034 	movhi	r2,2048
    19b4:	10000015 	stw	zero,0(r2)
	*otg_hpi_reset = 1;
    19b8:	00820034 	movhi	r2,2048
    19bc:	00c00044 	movi	r3,1
    19c0:	10c00015 	stw	r3,0(r2)
	*otg_hpi_cs = 1;
    19c4:	00820034 	movhi	r2,2048
    19c8:	10800404 	addi	r2,r2,16
    19cc:	00c00044 	movi	r3,1
    19d0:	10c00015 	stw	r3,0(r2)
}
    19d4:	0001883a 	nop
    19d8:	e037883a 	mov	sp,fp
    19dc:	df000017 	ldw	fp,0(sp)
    19e0:	dec00104 	addi	sp,sp,4
    19e4:	f800283a 	ret

000019e8 <IO_write>:

void IO_write(alt_u8 Address, alt_u16 Data)
{
    19e8:	defffd04 	addi	sp,sp,-12
    19ec:	df000215 	stw	fp,8(sp)
    19f0:	df000204 	addi	fp,sp,8
    19f4:	2007883a 	mov	r3,r4
    19f8:	2805883a 	mov	r2,r5
    19fc:	e0fffe05 	stb	r3,-8(fp)
    1a00:	e0bfff0d 	sth	r2,-4(fp)
//*************************************************************************//
//									TASK								   //
//*************************************************************************//
//							Write this function							   //
//*************************************************************************//
	*otg_hpi_cs = 0;
    1a04:	00820034 	movhi	r2,2048
    1a08:	10800404 	addi	r2,r2,16
    1a0c:	10000015 	stw	zero,0(r2)
	*otg_hpi_address = Address;
    1a10:	00820034 	movhi	r2,2048
    1a14:	10801404 	addi	r2,r2,80
    1a18:	e0fffe03 	ldbu	r3,-8(fp)
    1a1c:	10c00015 	stw	r3,0(r2)
	*otg_hpi_w  = 0;
    1a20:	00820034 	movhi	r2,2048
    1a24:	10800804 	addi	r2,r2,32
    1a28:	10000015 	stw	zero,0(r2)

	*otg_hpi_data = Data;
    1a2c:	00820034 	movhi	r2,2048
    1a30:	10801004 	addi	r2,r2,64
    1a34:	e0ffff0b 	ldhu	r3,-4(fp)
    1a38:	10c00015 	stw	r3,0(r2)

	*otg_hpi_cs = 1;
    1a3c:	00820034 	movhi	r2,2048
    1a40:	10800404 	addi	r2,r2,16
    1a44:	00c00044 	movi	r3,1
    1a48:	10c00015 	stw	r3,0(r2)
	*otg_hpi_w  = 1;
    1a4c:	00820034 	movhi	r2,2048
    1a50:	10800804 	addi	r2,r2,32
    1a54:	00c00044 	movi	r3,1
    1a58:	10c00015 	stw	r3,0(r2)


}
    1a5c:	0001883a 	nop
    1a60:	e037883a 	mov	sp,fp
    1a64:	df000017 	ldw	fp,0(sp)
    1a68:	dec00104 	addi	sp,sp,4
    1a6c:	f800283a 	ret

00001a70 <IO_read>:

alt_u16 IO_read(alt_u8 Address)
{
    1a70:	defffd04 	addi	sp,sp,-12
    1a74:	df000215 	stw	fp,8(sp)
    1a78:	df000204 	addi	fp,sp,8
    1a7c:	2005883a 	mov	r2,r4
    1a80:	e0bfff05 	stb	r2,-4(fp)
	alt_u16 temp;
	*otg_hpi_cs = 0;
    1a84:	00820034 	movhi	r2,2048
    1a88:	10800404 	addi	r2,r2,16
    1a8c:	10000015 	stw	zero,0(r2)
	*otg_hpi_address = Address;
    1a90:	00820034 	movhi	r2,2048
    1a94:	10801404 	addi	r2,r2,80
    1a98:	e0ffff03 	ldbu	r3,-4(fp)
    1a9c:	10c00015 	stw	r3,0(r2)
	*otg_hpi_r  = 0;
    1aa0:	00820034 	movhi	r2,2048
    1aa4:	10800c04 	addi	r2,r2,48
    1aa8:	10000015 	stw	zero,0(r2)

	temp = *otg_hpi_data;
    1aac:	00820034 	movhi	r2,2048
    1ab0:	10801004 	addi	r2,r2,64
    1ab4:	10800017 	ldw	r2,0(r2)
    1ab8:	e0bffe0d 	sth	r2,-8(fp)

	*otg_hpi_cs = 1;
    1abc:	00820034 	movhi	r2,2048
    1ac0:	10800404 	addi	r2,r2,16
    1ac4:	00c00044 	movi	r3,1
    1ac8:	10c00015 	stw	r3,0(r2)
	*otg_hpi_r  = 1;
    1acc:	00820034 	movhi	r2,2048
    1ad0:	10800c04 	addi	r2,r2,48
    1ad4:	00c00044 	movi	r3,1
    1ad8:	10c00015 	stw	r3,0(r2)
//									TASK								   //
//*************************************************************************//
//							Write this function							   //
//*************************************************************************//
	//printf("%x\n",temp);
	return temp;
    1adc:	e0bffe0b 	ldhu	r2,-8(fp)
}
    1ae0:	e037883a 	mov	sp,fp
    1ae4:	df000017 	ldw	fp,0(sp)
    1ae8:	dec00104 	addi	sp,sp,4
    1aec:	f800283a 	ret

00001af0 <UsbWrite>:
 *
 * @note     None
 *
 ******************************************************************************/
void UsbWrite(alt_u16 Address, alt_u16 Data)
{
    1af0:	defffc04 	addi	sp,sp,-16
    1af4:	dfc00315 	stw	ra,12(sp)
    1af8:	df000215 	stw	fp,8(sp)
    1afc:	df000204 	addi	fp,sp,8
    1b00:	2007883a 	mov	r3,r4
    1b04:	2805883a 	mov	r2,r5
    1b08:	e0fffe0d 	sth	r3,-8(fp)
    1b0c:	e0bfff0d 	sth	r2,-4(fp)
//*************************************************************************//
//									TASK								   //
//*************************************************************************//
//							Write this function							   //
//*************************************************************************//
	IO_write(HPI_ADDR, Address);
    1b10:	e0bffe0b 	ldhu	r2,-8(fp)
    1b14:	100b883a 	mov	r5,r2
    1b18:	01000084 	movi	r4,2
    1b1c:	00019e80 	call	19e8 <IO_write>
	IO_write(HPI_DATA, Data);
    1b20:	e0bfff0b 	ldhu	r2,-4(fp)
    1b24:	100b883a 	mov	r5,r2
    1b28:	0009883a 	mov	r4,zero
    1b2c:	00019e80 	call	19e8 <IO_write>
}
    1b30:	0001883a 	nop
    1b34:	e037883a 	mov	sp,fp
    1b38:	dfc00117 	ldw	ra,4(sp)
    1b3c:	df000017 	ldw	fp,0(sp)
    1b40:	dec00204 	addi	sp,sp,8
    1b44:	f800283a 	ret

00001b48 <UsbRead>:
 *
 * @note     None
 *
 ******************************************************************************/
alt_u16 UsbRead(alt_u16 Address)
{
    1b48:	defffd04 	addi	sp,sp,-12
    1b4c:	dfc00215 	stw	ra,8(sp)
    1b50:	df000115 	stw	fp,4(sp)
    1b54:	df000104 	addi	fp,sp,4
    1b58:	2005883a 	mov	r2,r4
    1b5c:	e0bfff0d 	sth	r2,-4(fp)
//*************************************************************************//
//									TASK								   //
//*************************************************************************//
//							Write this function							   //
//*************************************************************************//
	IO_write(HPI_ADDR, Address);
    1b60:	e0bfff0b 	ldhu	r2,-4(fp)
    1b64:	100b883a 	mov	r5,r2
    1b68:	01000084 	movi	r4,2
    1b6c:	00019e80 	call	19e8 <IO_write>
	return IO_read(HPI_DATA);
    1b70:	0009883a 	mov	r4,zero
    1b74:	0001a700 	call	1a70 <IO_read>
}
    1b78:	e037883a 	mov	sp,fp
    1b7c:	dfc00117 	ldw	ra,4(sp)
    1b80:	df000017 	ldw	fp,0(sp)
    1b84:	dec00204 	addi	sp,sp,8
    1b88:	f800283a 	ret

00001b8c <UsbSoftReset>:
 *
 * @note     None
 *
 ******************************************************************************/
void UsbSoftReset()
{
    1b8c:	defffe04 	addi	sp,sp,-8
    1b90:	dfc00115 	stw	ra,4(sp)
    1b94:	df000015 	stw	fp,0(sp)
    1b98:	d839883a 	mov	fp,sp
	//XIo_Out16(USB_MAILBOX, COMM_RESET);
	IO_write(HPI_MAILBOX,COMM_RESET); //COMM_JUMP2CODE
    1b9c:	017e9414 	movui	r5,64080
    1ba0:	01000044 	movi	r4,1
    1ba4:	00019e80 	call	19e8 <IO_write>
	usleep(100000);
    1ba8:	010000b4 	movhi	r4,2
    1bac:	2121a804 	addi	r4,r4,-31072
    1bb0:	0019f280 	call	19f28 <usleep>
	printf("[USB INIT]:reset finished!\n");
    1bb4:	010000b4 	movhi	r4,2
    1bb8:	2131cb04 	addi	r4,r4,-14548
    1bbc:	000e5940 	call	e594 <puts>

	usleep(500000);
    1bc0:	01000234 	movhi	r4,8
    1bc4:	21284804 	addi	r4,r4,-24288
    1bc8:	0019f280 	call	19f28 <usleep>
	printf("[USB INIT]:Clear up the interrupt\r\n");
    1bcc:	010000b4 	movhi	r4,2
    1bd0:	2131d204 	addi	r4,r4,-14520
    1bd4:	000e5940 	call	e594 <puts>
	IO_read(HPI_MAILBOX);
    1bd8:	01000044 	movi	r4,1
    1bdc:	0001a700 	call	1a70 <IO_read>
	IO_read(HPI_STATUS);
    1be0:	010000c4 	movi	r4,3
    1be4:	0001a700 	call	1a70 <IO_read>

	// Had to add the write due to a bug in BIOS where they overwrite
	// the mailbox after initialization with garbage.  The read clears
	// any pending interrupts.
	UsbRead (HPI_SIE1_MSG_ADR);
    1be8:	01005104 	movi	r4,324
    1bec:	0001b480 	call	1b48 <UsbRead>
	UsbWrite (HPI_SIE1_MSG_ADR, 0);
    1bf0:	000b883a 	mov	r5,zero
    1bf4:	01005104 	movi	r4,324
    1bf8:	0001af00 	call	1af0 <UsbWrite>
	UsbRead (HPI_SIE2_MSG_ADR);
    1bfc:	01005204 	movi	r4,328
    1c00:	0001b480 	call	1b48 <UsbRead>
	UsbWrite (HPI_SIE2_MSG_ADR, 0);
    1c04:	000b883a 	mov	r5,zero
    1c08:	01005204 	movi	r4,328
    1c0c:	0001af00 	call	1af0 <UsbWrite>


	UsbWrite (HOST1_STAT_REG, 0xFFFF);
    1c10:	017fffd4 	movui	r5,65535
    1c14:	01302414 	movui	r4,49296
    1c18:	0001af00 	call	1af0 <UsbWrite>
	UsbWrite (HOST2_STAT_REG, 0xFFFF);
    1c1c:	017fffd4 	movui	r5,65535
    1c20:	01302c14 	movui	r4,49328
    1c24:	0001af00 	call	1af0 <UsbWrite>

}
    1c28:	0001883a 	nop
    1c2c:	e037883a 	mov	sp,fp
    1c30:	dfc00117 	ldw	ra,4(sp)
    1c34:	df000017 	ldw	fp,0(sp)
    1c38:	dec00204 	addi	sp,sp,8
    1c3c:	f800283a 	ret

00001c40 <UsbSetAddress>:


void UsbSetAddress()
{
    1c40:	defffe04 	addi	sp,sp,-8
    1c44:	dfc00115 	stw	ra,4(sp)
    1c48:	df000015 	stw	fp,0(sp)
    1c4c:	d839883a 	mov	fp,sp
	//the starting address
	IO_write(HPI_ADDR,0x0500); //the start address
    1c50:	01414004 	movi	r5,1280
    1c54:	01000084 	movi	r4,2
    1c58:	00019e80 	call	19e8 <IO_write>
	// TD #1: 6 writes
	IO_write(HPI_DATA,0x050C);
    1c5c:	01414304 	movi	r5,1292
    1c60:	0009883a 	mov	r4,zero
    1c64:	00019e80 	call	19e8 <IO_write>
	IO_write(HPI_DATA,0x0008); //4 port number
    1c68:	01400204 	movi	r5,8
    1c6c:	0009883a 	mov	r4,zero
    1c70:	00019e80 	call	19e8 <IO_write>
	// TASK: Complete with 4 more IOWR functions
	IO_write(HPI_DATA,0x00D0);
    1c74:	01403404 	movi	r5,208
    1c78:	0009883a 	mov	r4,zero
    1c7c:	00019e80 	call	19e8 <IO_write>
	IO_write(HPI_DATA,0x0001);
    1c80:	01400044 	movi	r5,1
    1c84:	0009883a 	mov	r4,zero
    1c88:	00019e80 	call	19e8 <IO_write>
	IO_write(HPI_DATA,0x0013);
    1c8c:	014004c4 	movi	r5,19
    1c90:	0009883a 	mov	r4,zero
    1c94:	00019e80 	call	19e8 <IO_write>
	IO_write(HPI_DATA,0x0514);
    1c98:	01414504 	movi	r5,1300
    1c9c:	0009883a 	mov	r4,zero
    1ca0:	00019e80 	call	19e8 <IO_write>
	// TD #2: 4 writes
	// TASK: Complete with 4 IOWR functions
	IO_write(HPI_DATA,0x0500);
    1ca4:	01414004 	movi	r5,1280
    1ca8:	0009883a 	mov	r4,zero
    1cac:	00019e80 	call	19e8 <IO_write>
	IO_write(HPI_DATA,0x0002);
    1cb0:	01400084 	movi	r5,2
    1cb4:	0009883a 	mov	r4,zero
    1cb8:	00019e80 	call	19e8 <IO_write>
	IO_write(HPI_DATA,0x0000);
    1cbc:	000b883a 	mov	r5,zero
    1cc0:	0009883a 	mov	r4,zero
    1cc4:	00019e80 	call	19e8 <IO_write>
	IO_write(HPI_DATA,0x0000);
    1cc8:	000b883a 	mov	r5,zero
    1ccc:	0009883a 	mov	r4,zero
    1cd0:	00019e80 	call	19e8 <IO_write>
	// TD #3: 6 writes
	// TASK: Complete with 6 IOWR functions
	IO_write(HPI_DATA,0x0000); //
    1cd4:	000b883a 	mov	r5,zero
    1cd8:	0009883a 	mov	r4,zero
    1cdc:	00019e80 	call	19e8 <IO_write>
	IO_write(HPI_DATA,0x0000);//
    1ce0:	000b883a 	mov	r5,zero
    1ce4:	0009883a 	mov	r4,zero
    1ce8:	00019e80 	call	19e8 <IO_write>
	IO_write(HPI_DATA,0x0090);//
    1cec:	01402404 	movi	r5,144
    1cf0:	0009883a 	mov	r4,zero
    1cf4:	00019e80 	call	19e8 <IO_write>
	IO_write(HPI_DATA,0x0041);
    1cf8:	01401044 	movi	r5,65
    1cfc:	0009883a 	mov	r4,zero
    1d00:	00019e80 	call	19e8 <IO_write>
	IO_write(HPI_DATA,0x0013);
    1d04:	014004c4 	movi	r5,19
    1d08:	0009883a 	mov	r4,zero
    1d0c:	00019e80 	call	19e8 <IO_write>
	IO_write(HPI_DATA,0x0000);
    1d10:	000b883a 	mov	r5,zero
    1d14:	0009883a 	mov	r4,zero
    1d18:	00019e80 	call	19e8 <IO_write>

	UsbWrite(HUSB_SIE1_pCurrentTDPtr,0x0500); //HUSB_SIE1_pCurrentTDPtr
    1d1c:	01414004 	movi	r5,1280
    1d20:	01006c04 	movi	r4,432
    1d24:	0001af00 	call	1af0 <UsbWrite>
}
    1d28:	0001883a 	nop
    1d2c:	e037883a 	mov	sp,fp
    1d30:	dfc00117 	ldw	ra,4(sp)
    1d34:	df000017 	ldw	fp,0(sp)
    1d38:	dec00204 	addi	sp,sp,8
    1d3c:	f800283a 	ret

00001d40 <UsbGetDeviceDesc1>:


void UsbGetDeviceDesc1()
{
    1d40:	defffe04 	addi	sp,sp,-8
    1d44:	dfc00115 	stw	ra,4(sp)
    1d48:	df000015 	stw	fp,0(sp)
    1d4c:	d839883a 	mov	fp,sp
	//the starting address
	IO_write(HPI_ADDR,0x0500); //the start address
    1d50:	01414004 	movi	r5,1280
    1d54:	01000084 	movi	r4,2
    1d58:	00019e80 	call	19e8 <IO_write>
	IO_write(HPI_DATA,0x050C);
    1d5c:	01414304 	movi	r5,1292
    1d60:	0009883a 	mov	r4,zero
    1d64:	00019e80 	call	19e8 <IO_write>
	IO_write(HPI_DATA,0x0008); //4 port number
    1d68:	01400204 	movi	r5,8
    1d6c:	0009883a 	mov	r4,zero
    1d70:	00019e80 	call	19e8 <IO_write>
	IO_write(HPI_DATA,0x02D0); //device address
    1d74:	0140b404 	movi	r5,720
    1d78:	0009883a 	mov	r4,zero
    1d7c:	00019e80 	call	19e8 <IO_write>
	IO_write(HPI_DATA,0x0001);
    1d80:	01400044 	movi	r5,1
    1d84:	0009883a 	mov	r4,zero
    1d88:	00019e80 	call	19e8 <IO_write>
	IO_write(HPI_DATA,0x0013);
    1d8c:	014004c4 	movi	r5,19
    1d90:	0009883a 	mov	r4,zero
    1d94:	00019e80 	call	19e8 <IO_write>
	IO_write(HPI_DATA,0x0514);
    1d98:	01414504 	movi	r5,1300
    1d9c:	0009883a 	mov	r4,zero
    1da0:	00019e80 	call	19e8 <IO_write>

	//td content 4 bytes
	IO_write(HPI_DATA,0x0680);//c
    1da4:	0141a004 	movi	r5,1664
    1da8:	0009883a 	mov	r4,zero
    1dac:	00019e80 	call	19e8 <IO_write>
	IO_write(HPI_DATA,0x0100); //device 0x01
    1db0:	01404004 	movi	r5,256
    1db4:	0009883a 	mov	r4,zero
    1db8:	00019e80 	call	19e8 <IO_write>
	IO_write(HPI_DATA,0x0000);
    1dbc:	000b883a 	mov	r5,zero
    1dc0:	0009883a 	mov	r4,zero
    1dc4:	00019e80 	call	19e8 <IO_write>
	IO_write(HPI_DATA,0x0008);
    1dc8:	01400204 	movi	r5,8
    1dcc:	0009883a 	mov	r4,zero
    1dd0:	00019e80 	call	19e8 <IO_write>

	//data phase IN
	IO_write(HPI_DATA,0x052C); //
    1dd4:	01414b04 	movi	r5,1324
    1dd8:	0009883a 	mov	r4,zero
    1ddc:	00019e80 	call	19e8 <IO_write>
	IO_write(HPI_DATA,0x0008);//
    1de0:	01400204 	movi	r5,8
    1de4:	0009883a 	mov	r4,zero
    1de8:	00019e80 	call	19e8 <IO_write>
	IO_write(HPI_DATA,0x0290);//
    1dec:	0140a404 	movi	r5,656
    1df0:	0009883a 	mov	r4,zero
    1df4:	00019e80 	call	19e8 <IO_write>
	IO_write(HPI_DATA,0x0041);
    1df8:	01401044 	movi	r5,65
    1dfc:	0009883a 	mov	r4,zero
    1e00:	00019e80 	call	19e8 <IO_write>
	IO_write(HPI_DATA,0x0013);
    1e04:	014004c4 	movi	r5,19
    1e08:	0009883a 	mov	r4,zero
    1e0c:	00019e80 	call	19e8 <IO_write>
	IO_write(HPI_DATA,0x0520);
    1e10:	01414804 	movi	r5,1312
    1e14:	0009883a 	mov	r4,zero
    1e18:	00019e80 	call	19e8 <IO_write>

	//    //status phase
	IO_write(HPI_DATA,0x0000); //don't care
    1e1c:	000b883a 	mov	r5,zero
    1e20:	0009883a 	mov	r4,zero
    1e24:	00019e80 	call	19e8 <IO_write>
	IO_write(HPI_DATA,0x0000);//port number
    1e28:	000b883a 	mov	r5,zero
    1e2c:	0009883a 	mov	r4,zero
    1e30:	00019e80 	call	19e8 <IO_write>
	IO_write(HPI_DATA,0x0210);//device address
    1e34:	01408404 	movi	r5,528
    1e38:	0009883a 	mov	r4,zero
    1e3c:	00019e80 	call	19e8 <IO_write>
	IO_write(HPI_DATA,0x0041);
    1e40:	01401044 	movi	r5,65
    1e44:	0009883a 	mov	r4,zero
    1e48:	00019e80 	call	19e8 <IO_write>
	IO_write(HPI_DATA,0x0013);
    1e4c:	014004c4 	movi	r5,19
    1e50:	0009883a 	mov	r4,zero
    1e54:	00019e80 	call	19e8 <IO_write>
	IO_write(HPI_DATA,0x0000);
    1e58:	000b883a 	mov	r5,zero
    1e5c:	0009883a 	mov	r4,zero
    1e60:	00019e80 	call	19e8 <IO_write>

	UsbWrite(HUSB_SIE1_pCurrentTDPtr,0x0500); //HUSB_SIE1_pCurrentTDPtr
    1e64:	01414004 	movi	r5,1280
    1e68:	01006c04 	movi	r4,432
    1e6c:	0001af00 	call	1af0 <UsbWrite>
}
    1e70:	0001883a 	nop
    1e74:	e037883a 	mov	sp,fp
    1e78:	dfc00117 	ldw	ra,4(sp)
    1e7c:	df000017 	ldw	fp,0(sp)
    1e80:	dec00204 	addi	sp,sp,8
    1e84:	f800283a 	ret

00001e88 <UsbGetDeviceDesc2>:

void UsbGetDeviceDesc2()
{
    1e88:	defffe04 	addi	sp,sp,-8
    1e8c:	dfc00115 	stw	ra,4(sp)
    1e90:	df000015 	stw	fp,0(sp)
    1e94:	d839883a 	mov	fp,sp
	//the starting address
	IO_write(HPI_ADDR,0x0500); //the start address
    1e98:	01414004 	movi	r5,1280
    1e9c:	01000084 	movi	r4,2
    1ea0:	00019e80 	call	19e8 <IO_write>
	IO_write(HPI_DATA,0x050C);
    1ea4:	01414304 	movi	r5,1292
    1ea8:	0009883a 	mov	r4,zero
    1eac:	00019e80 	call	19e8 <IO_write>
	IO_write(HPI_DATA,0x0008); //4 port number
    1eb0:	01400204 	movi	r5,8
    1eb4:	0009883a 	mov	r4,zero
    1eb8:	00019e80 	call	19e8 <IO_write>
	IO_write(HPI_DATA,0x02D0); //device address
    1ebc:	0140b404 	movi	r5,720
    1ec0:	0009883a 	mov	r4,zero
    1ec4:	00019e80 	call	19e8 <IO_write>
	IO_write(HPI_DATA,0x0001);
    1ec8:	01400044 	movi	r5,1
    1ecc:	0009883a 	mov	r4,zero
    1ed0:	00019e80 	call	19e8 <IO_write>
	IO_write(HPI_DATA,0x0013);
    1ed4:	014004c4 	movi	r5,19
    1ed8:	0009883a 	mov	r4,zero
    1edc:	00019e80 	call	19e8 <IO_write>
	IO_write(HPI_DATA,0x0514);
    1ee0:	01414504 	movi	r5,1300
    1ee4:	0009883a 	mov	r4,zero
    1ee8:	00019e80 	call	19e8 <IO_write>

	//td content 4 bytes
	IO_write(HPI_DATA,0x0680);//c
    1eec:	0141a004 	movi	r5,1664
    1ef0:	0009883a 	mov	r4,zero
    1ef4:	00019e80 	call	19e8 <IO_write>
	IO_write(HPI_DATA,0x0100);//e //device 0x01
    1ef8:	01404004 	movi	r5,256
    1efc:	0009883a 	mov	r4,zero
    1f00:	00019e80 	call	19e8 <IO_write>
	IO_write(HPI_DATA,0x0000);//0
    1f04:	000b883a 	mov	r5,zero
    1f08:	0009883a 	mov	r4,zero
    1f0c:	00019e80 	call	19e8 <IO_write>
	IO_write(HPI_DATA,0x0012);//2
    1f10:	01400484 	movi	r5,18
    1f14:	0009883a 	mov	r4,zero
    1f18:	00019e80 	call	19e8 <IO_write>

	//data phase IN-1
	IO_write(HPI_DATA,0x0544); //514
    1f1c:	01415104 	movi	r5,1348
    1f20:	0009883a 	mov	r4,zero
    1f24:	00019e80 	call	19e8 <IO_write>
	IO_write(HPI_DATA,0x0008);//6
    1f28:	01400204 	movi	r5,8
    1f2c:	0009883a 	mov	r4,zero
    1f30:	00019e80 	call	19e8 <IO_write>
	IO_write(HPI_DATA,0x0290);//8
    1f34:	0140a404 	movi	r5,656
    1f38:	0009883a 	mov	r4,zero
    1f3c:	00019e80 	call	19e8 <IO_write>
	IO_write(HPI_DATA,0x0041);//a
    1f40:	01401044 	movi	r5,65
    1f44:	0009883a 	mov	r4,zero
    1f48:	00019e80 	call	19e8 <IO_write>
	IO_write(HPI_DATA,0x0013);//c
    1f4c:	014004c4 	movi	r5,19
    1f50:	0009883a 	mov	r4,zero
    1f54:	00019e80 	call	19e8 <IO_write>
	IO_write(HPI_DATA,0x0520);//e
    1f58:	01414804 	movi	r5,1312
    1f5c:	0009883a 	mov	r4,zero
    1f60:	00019e80 	call	19e8 <IO_write>

	//data phase IN-2
	IO_write(HPI_DATA,0x054c); //520
    1f64:	01415304 	movi	r5,1356
    1f68:	0009883a 	mov	r4,zero
    1f6c:	00019e80 	call	19e8 <IO_write>
	IO_write(HPI_DATA,0x0008);//2
    1f70:	01400204 	movi	r5,8
    1f74:	0009883a 	mov	r4,zero
    1f78:	00019e80 	call	19e8 <IO_write>
	IO_write(HPI_DATA,0x0290);//4
    1f7c:	0140a404 	movi	r5,656
    1f80:	0009883a 	mov	r4,zero
    1f84:	00019e80 	call	19e8 <IO_write>
	IO_write(HPI_DATA,0x0001);//6
    1f88:	01400044 	movi	r5,1
    1f8c:	0009883a 	mov	r4,zero
    1f90:	00019e80 	call	19e8 <IO_write>
	IO_write(HPI_DATA,0x0013);//8
    1f94:	014004c4 	movi	r5,19
    1f98:	0009883a 	mov	r4,zero
    1f9c:	00019e80 	call	19e8 <IO_write>
	IO_write(HPI_DATA,0x052c);//a
    1fa0:	01414b04 	movi	r5,1324
    1fa4:	0009883a 	mov	r4,zero
    1fa8:	00019e80 	call	19e8 <IO_write>

	//data phase IN-3
	IO_write(HPI_DATA,0x0554); //c
    1fac:	01415504 	movi	r5,1364
    1fb0:	0009883a 	mov	r4,zero
    1fb4:	00019e80 	call	19e8 <IO_write>
	IO_write(HPI_DATA,0x0002);//e
    1fb8:	01400084 	movi	r5,2
    1fbc:	0009883a 	mov	r4,zero
    1fc0:	00019e80 	call	19e8 <IO_write>
	IO_write(HPI_DATA,0x0290);//530
    1fc4:	0140a404 	movi	r5,656
    1fc8:	0009883a 	mov	r4,zero
    1fcc:	00019e80 	call	19e8 <IO_write>
	IO_write(HPI_DATA,0x0041);//2
    1fd0:	01401044 	movi	r5,65
    1fd4:	0009883a 	mov	r4,zero
    1fd8:	00019e80 	call	19e8 <IO_write>
	IO_write(HPI_DATA,0x0013);//4
    1fdc:	014004c4 	movi	r5,19
    1fe0:	0009883a 	mov	r4,zero
    1fe4:	00019e80 	call	19e8 <IO_write>
	IO_write(HPI_DATA,0x0538);//6
    1fe8:	01414e04 	movi	r5,1336
    1fec:	0009883a 	mov	r4,zero
    1ff0:	00019e80 	call	19e8 <IO_write>

	//status phase
	IO_write(HPI_DATA,0x0000); //538
    1ff4:	000b883a 	mov	r5,zero
    1ff8:	0009883a 	mov	r4,zero
    1ffc:	00019e80 	call	19e8 <IO_write>
	IO_write(HPI_DATA,0x0000);//a
    2000:	000b883a 	mov	r5,zero
    2004:	0009883a 	mov	r4,zero
    2008:	00019e80 	call	19e8 <IO_write>
	IO_write(HPI_DATA,0x0210);//c
    200c:	01408404 	movi	r5,528
    2010:	0009883a 	mov	r4,zero
    2014:	00019e80 	call	19e8 <IO_write>
	IO_write(HPI_DATA,0x0041);//e
    2018:	01401044 	movi	r5,65
    201c:	0009883a 	mov	r4,zero
    2020:	00019e80 	call	19e8 <IO_write>
	IO_write(HPI_DATA,0x0013);//540
    2024:	014004c4 	movi	r5,19
    2028:	0009883a 	mov	r4,zero
    202c:	00019e80 	call	19e8 <IO_write>
	IO_write(HPI_DATA,0x0000);//2
    2030:	000b883a 	mov	r5,zero
    2034:	0009883a 	mov	r4,zero
    2038:	00019e80 	call	19e8 <IO_write>

	UsbWrite(HUSB_SIE1_pCurrentTDPtr,0x0500); //HUSB_SIE1_pCurrentTDPtr
    203c:	01414004 	movi	r5,1280
    2040:	01006c04 	movi	r4,432
    2044:	0001af00 	call	1af0 <UsbWrite>
}
    2048:	0001883a 	nop
    204c:	e037883a 	mov	sp,fp
    2050:	dfc00117 	ldw	ra,4(sp)
    2054:	df000017 	ldw	fp,0(sp)
    2058:	dec00204 	addi	sp,sp,8
    205c:	f800283a 	ret

00002060 <UsbGetConfigDesc1>:


void UsbGetConfigDesc1()
{
    2060:	defffe04 	addi	sp,sp,-8
    2064:	dfc00115 	stw	ra,4(sp)
    2068:	df000015 	stw	fp,0(sp)
    206c:	d839883a 	mov	fp,sp
	//the starting address
	IO_write(HPI_ADDR,0x0500); //the start address
    2070:	01414004 	movi	r5,1280
    2074:	01000084 	movi	r4,2
    2078:	00019e80 	call	19e8 <IO_write>
	IO_write(HPI_DATA,0x050C);
    207c:	01414304 	movi	r5,1292
    2080:	0009883a 	mov	r4,zero
    2084:	00019e80 	call	19e8 <IO_write>
	IO_write(HPI_DATA,0x0008); //4 port number
    2088:	01400204 	movi	r5,8
    208c:	0009883a 	mov	r4,zero
    2090:	00019e80 	call	19e8 <IO_write>
	IO_write(HPI_DATA,0x02D0); //device address
    2094:	0140b404 	movi	r5,720
    2098:	0009883a 	mov	r4,zero
    209c:	00019e80 	call	19e8 <IO_write>
	IO_write(HPI_DATA,0x0001);
    20a0:	01400044 	movi	r5,1
    20a4:	0009883a 	mov	r4,zero
    20a8:	00019e80 	call	19e8 <IO_write>
	IO_write(HPI_DATA,0x0013);
    20ac:	014004c4 	movi	r5,19
    20b0:	0009883a 	mov	r4,zero
    20b4:	00019e80 	call	19e8 <IO_write>
	IO_write(HPI_DATA,0x0514);
    20b8:	01414504 	movi	r5,1300
    20bc:	0009883a 	mov	r4,zero
    20c0:	00019e80 	call	19e8 <IO_write>

	//td content 4 bytes
	IO_write(HPI_DATA,0x0680);//c
    20c4:	0141a004 	movi	r5,1664
    20c8:	0009883a 	mov	r4,zero
    20cc:	00019e80 	call	19e8 <IO_write>
	IO_write(HPI_DATA,0x0200);//e //config 0x02
    20d0:	01408004 	movi	r5,512
    20d4:	0009883a 	mov	r4,zero
    20d8:	00019e80 	call	19e8 <IO_write>
	IO_write(HPI_DATA,0x0000);//0
    20dc:	000b883a 	mov	r5,zero
    20e0:	0009883a 	mov	r4,zero
    20e4:	00019e80 	call	19e8 <IO_write>
	IO_write(HPI_DATA,0x0009);//2
    20e8:	01400244 	movi	r5,9
    20ec:	0009883a 	mov	r4,zero
    20f0:	00019e80 	call	19e8 <IO_write>

	//data phase IN-1
	IO_write(HPI_DATA,0x0544); //514
    20f4:	01415104 	movi	r5,1348
    20f8:	0009883a 	mov	r4,zero
    20fc:	00019e80 	call	19e8 <IO_write>
	IO_write(HPI_DATA,0x0008);//6
    2100:	01400204 	movi	r5,8
    2104:	0009883a 	mov	r4,zero
    2108:	00019e80 	call	19e8 <IO_write>
	IO_write(HPI_DATA,0x0290);//8
    210c:	0140a404 	movi	r5,656
    2110:	0009883a 	mov	r4,zero
    2114:	00019e80 	call	19e8 <IO_write>
	IO_write(HPI_DATA,0x0041);//a
    2118:	01401044 	movi	r5,65
    211c:	0009883a 	mov	r4,zero
    2120:	00019e80 	call	19e8 <IO_write>
	IO_write(HPI_DATA,0x0013);//c
    2124:	014004c4 	movi	r5,19
    2128:	0009883a 	mov	r4,zero
    212c:	00019e80 	call	19e8 <IO_write>
	IO_write(HPI_DATA,0x0520);//e
    2130:	01414804 	movi	r5,1312
    2134:	0009883a 	mov	r4,zero
    2138:	00019e80 	call	19e8 <IO_write>

	//data phase IN-2
	IO_write(HPI_DATA,0x054c); //520
    213c:	01415304 	movi	r5,1356
    2140:	0009883a 	mov	r4,zero
    2144:	00019e80 	call	19e8 <IO_write>
	IO_write(HPI_DATA,0x0001);//2
    2148:	01400044 	movi	r5,1
    214c:	0009883a 	mov	r4,zero
    2150:	00019e80 	call	19e8 <IO_write>
	IO_write(HPI_DATA,0x0290);//4
    2154:	0140a404 	movi	r5,656
    2158:	0009883a 	mov	r4,zero
    215c:	00019e80 	call	19e8 <IO_write>
	IO_write(HPI_DATA,0x0001);//6 //data0
    2160:	01400044 	movi	r5,1
    2164:	0009883a 	mov	r4,zero
    2168:	00019e80 	call	19e8 <IO_write>
	IO_write(HPI_DATA,0x0013);//8
    216c:	014004c4 	movi	r5,19
    2170:	0009883a 	mov	r4,zero
    2174:	00019e80 	call	19e8 <IO_write>
	IO_write(HPI_DATA,0x052c);//a
    2178:	01414b04 	movi	r5,1324
    217c:	0009883a 	mov	r4,zero
    2180:	00019e80 	call	19e8 <IO_write>

	//status phase
	IO_write(HPI_DATA,0x0000); //52c
    2184:	000b883a 	mov	r5,zero
    2188:	0009883a 	mov	r4,zero
    218c:	00019e80 	call	19e8 <IO_write>
	IO_write(HPI_DATA,0x0000);//e
    2190:	000b883a 	mov	r5,zero
    2194:	0009883a 	mov	r4,zero
    2198:	00019e80 	call	19e8 <IO_write>
	IO_write(HPI_DATA,0x0210);//530
    219c:	01408404 	movi	r5,528
    21a0:	0009883a 	mov	r4,zero
    21a4:	00019e80 	call	19e8 <IO_write>
	IO_write(HPI_DATA,0x0041);//2
    21a8:	01401044 	movi	r5,65
    21ac:	0009883a 	mov	r4,zero
    21b0:	00019e80 	call	19e8 <IO_write>
	IO_write(HPI_DATA,0x0013);//4
    21b4:	014004c4 	movi	r5,19
    21b8:	0009883a 	mov	r4,zero
    21bc:	00019e80 	call	19e8 <IO_write>
	IO_write(HPI_DATA,0x0000);//6
    21c0:	000b883a 	mov	r5,zero
    21c4:	0009883a 	mov	r4,zero
    21c8:	00019e80 	call	19e8 <IO_write>

	UsbWrite(HUSB_SIE1_pCurrentTDPtr,0x0500); //HUSB_SIE1_pCurrentTDPtr
    21cc:	01414004 	movi	r5,1280
    21d0:	01006c04 	movi	r4,432
    21d4:	0001af00 	call	1af0 <UsbWrite>
}
    21d8:	0001883a 	nop
    21dc:	e037883a 	mov	sp,fp
    21e0:	dfc00117 	ldw	ra,4(sp)
    21e4:	df000017 	ldw	fp,0(sp)
    21e8:	dec00204 	addi	sp,sp,8
    21ec:	f800283a 	ret

000021f0 <UsbGetConfigDesc2>:


void UsbGetConfigDesc2()
{
    21f0:	defffe04 	addi	sp,sp,-8
    21f4:	dfc00115 	stw	ra,4(sp)
    21f8:	df000015 	stw	fp,0(sp)
    21fc:	d839883a 	mov	fp,sp
	//the starting address
	IO_write(HPI_ADDR,0x0500); //the start address
    2200:	01414004 	movi	r5,1280
    2204:	01000084 	movi	r4,2
    2208:	00019e80 	call	19e8 <IO_write>
	IO_write(HPI_DATA,0x050C);
    220c:	01414304 	movi	r5,1292
    2210:	0009883a 	mov	r4,zero
    2214:	00019e80 	call	19e8 <IO_write>
	IO_write(HPI_DATA,0x0008); //4 port number
    2218:	01400204 	movi	r5,8
    221c:	0009883a 	mov	r4,zero
    2220:	00019e80 	call	19e8 <IO_write>
	IO_write(HPI_DATA,0x02D0); //device address
    2224:	0140b404 	movi	r5,720
    2228:	0009883a 	mov	r4,zero
    222c:	00019e80 	call	19e8 <IO_write>
	IO_write(HPI_DATA,0x0001);
    2230:	01400044 	movi	r5,1
    2234:	0009883a 	mov	r4,zero
    2238:	00019e80 	call	19e8 <IO_write>
	IO_write(HPI_DATA,0x0013);
    223c:	014004c4 	movi	r5,19
    2240:	0009883a 	mov	r4,zero
    2244:	00019e80 	call	19e8 <IO_write>
	IO_write(HPI_DATA,0x0514);
    2248:	01414504 	movi	r5,1300
    224c:	0009883a 	mov	r4,zero
    2250:	00019e80 	call	19e8 <IO_write>

	//td content 4 bytes
	IO_write(HPI_DATA,0x0680);//c
    2254:	0141a004 	movi	r5,1664
    2258:	0009883a 	mov	r4,zero
    225c:	00019e80 	call	19e8 <IO_write>
	IO_write(HPI_DATA,0x0200);//e //config 0x02
    2260:	01408004 	movi	r5,512
    2264:	0009883a 	mov	r4,zero
    2268:	00019e80 	call	19e8 <IO_write>
	IO_write(HPI_DATA,0x0000);//0
    226c:	000b883a 	mov	r5,zero
    2270:	0009883a 	mov	r4,zero
    2274:	00019e80 	call	19e8 <IO_write>
	IO_write(HPI_DATA,0x00FF);//2
    2278:	01403fc4 	movi	r5,255
    227c:	0009883a 	mov	r4,zero
    2280:	00019e80 	call	19e8 <IO_write>

	//data phase IN-1
	IO_write(HPI_DATA,0x055c); //514
    2284:	01415704 	movi	r5,1372
    2288:	0009883a 	mov	r4,zero
    228c:	00019e80 	call	19e8 <IO_write>
	IO_write(HPI_DATA,0x0008);//6
    2290:	01400204 	movi	r5,8
    2294:	0009883a 	mov	r4,zero
    2298:	00019e80 	call	19e8 <IO_write>
	IO_write(HPI_DATA,0x0290);//8
    229c:	0140a404 	movi	r5,656
    22a0:	0009883a 	mov	r4,zero
    22a4:	00019e80 	call	19e8 <IO_write>
	IO_write(HPI_DATA,0x0041);//a
    22a8:	01401044 	movi	r5,65
    22ac:	0009883a 	mov	r4,zero
    22b0:	00019e80 	call	19e8 <IO_write>
	IO_write(HPI_DATA,0x0013);//c
    22b4:	014004c4 	movi	r5,19
    22b8:	0009883a 	mov	r4,zero
    22bc:	00019e80 	call	19e8 <IO_write>
	IO_write(HPI_DATA,0x0520);//e
    22c0:	01414804 	movi	r5,1312
    22c4:	0009883a 	mov	r4,zero
    22c8:	00019e80 	call	19e8 <IO_write>

	//data phase IN-2
	IO_write(HPI_DATA,0x0564); //520
    22cc:	01415904 	movi	r5,1380
    22d0:	0009883a 	mov	r4,zero
    22d4:	00019e80 	call	19e8 <IO_write>
	IO_write(HPI_DATA,0x0008);//2
    22d8:	01400204 	movi	r5,8
    22dc:	0009883a 	mov	r4,zero
    22e0:	00019e80 	call	19e8 <IO_write>
	IO_write(HPI_DATA,0x0290);//4
    22e4:	0140a404 	movi	r5,656
    22e8:	0009883a 	mov	r4,zero
    22ec:	00019e80 	call	19e8 <IO_write>
	IO_write(HPI_DATA,0x0001);//6 //data0
    22f0:	01400044 	movi	r5,1
    22f4:	0009883a 	mov	r4,zero
    22f8:	00019e80 	call	19e8 <IO_write>
	IO_write(HPI_DATA,0x0013);//8
    22fc:	014004c4 	movi	r5,19
    2300:	0009883a 	mov	r4,zero
    2304:	00019e80 	call	19e8 <IO_write>
	IO_write(HPI_DATA,0x052c);//a
    2308:	01414b04 	movi	r5,1324
    230c:	0009883a 	mov	r4,zero
    2310:	00019e80 	call	19e8 <IO_write>

	//data phase IN-3
	IO_write(HPI_DATA,0x056c); //52c
    2314:	01415b04 	movi	r5,1388
    2318:	0009883a 	mov	r4,zero
    231c:	00019e80 	call	19e8 <IO_write>
	IO_write(HPI_DATA,0x0008);//e
    2320:	01400204 	movi	r5,8
    2324:	0009883a 	mov	r4,zero
    2328:	00019e80 	call	19e8 <IO_write>
	IO_write(HPI_DATA,0x0290);//530
    232c:	0140a404 	movi	r5,656
    2330:	0009883a 	mov	r4,zero
    2334:	00019e80 	call	19e8 <IO_write>
	IO_write(HPI_DATA,0x0041);//2
    2338:	01401044 	movi	r5,65
    233c:	0009883a 	mov	r4,zero
    2340:	00019e80 	call	19e8 <IO_write>
	IO_write(HPI_DATA,0x0013);//4
    2344:	014004c4 	movi	r5,19
    2348:	0009883a 	mov	r4,zero
    234c:	00019e80 	call	19e8 <IO_write>
	IO_write(HPI_DATA,0x0538);//6
    2350:	01414e04 	movi	r5,1336
    2354:	0009883a 	mov	r4,zero
    2358:	00019e80 	call	19e8 <IO_write>

	//data phase IN-4
	IO_write(HPI_DATA,0x0574); //538
    235c:	01415d04 	movi	r5,1396
    2360:	0009883a 	mov	r4,zero
    2364:	00019e80 	call	19e8 <IO_write>
	IO_write(HPI_DATA,0x0008);//a
    2368:	01400204 	movi	r5,8
    236c:	0009883a 	mov	r4,zero
    2370:	00019e80 	call	19e8 <IO_write>
	IO_write(HPI_DATA,0x0290);//c
    2374:	0140a404 	movi	r5,656
    2378:	0009883a 	mov	r4,zero
    237c:	00019e80 	call	19e8 <IO_write>
	IO_write(HPI_DATA,0x0001);//e //data0
    2380:	01400044 	movi	r5,1
    2384:	0009883a 	mov	r4,zero
    2388:	00019e80 	call	19e8 <IO_write>
	IO_write(HPI_DATA,0x0013);//540
    238c:	014004c4 	movi	r5,19
    2390:	0009883a 	mov	r4,zero
    2394:	00019e80 	call	19e8 <IO_write>
	IO_write(HPI_DATA,0x0544);//2
    2398:	01415104 	movi	r5,1348
    239c:	0009883a 	mov	r4,zero
    23a0:	00019e80 	call	19e8 <IO_write>

	//data phase IN-5
	IO_write(HPI_DATA,0x057c); //544
    23a4:	01415f04 	movi	r5,1404
    23a8:	0009883a 	mov	r4,zero
    23ac:	00019e80 	call	19e8 <IO_write>
	IO_write(HPI_DATA,0x0002);//6
    23b0:	01400084 	movi	r5,2
    23b4:	0009883a 	mov	r4,zero
    23b8:	00019e80 	call	19e8 <IO_write>
	IO_write(HPI_DATA,0x0290);//8
    23bc:	0140a404 	movi	r5,656
    23c0:	0009883a 	mov	r4,zero
    23c4:	00019e80 	call	19e8 <IO_write>
	IO_write(HPI_DATA,0x0041);//a //data1
    23c8:	01401044 	movi	r5,65
    23cc:	0009883a 	mov	r4,zero
    23d0:	00019e80 	call	19e8 <IO_write>
	IO_write(HPI_DATA,0x0013);//c
    23d4:	014004c4 	movi	r5,19
    23d8:	0009883a 	mov	r4,zero
    23dc:	00019e80 	call	19e8 <IO_write>
	IO_write(HPI_DATA,0x0550);//e
    23e0:	01415404 	movi	r5,1360
    23e4:	0009883a 	mov	r4,zero
    23e8:	00019e80 	call	19e8 <IO_write>

	//status phase
	IO_write(HPI_DATA,0x0000); //550
    23ec:	000b883a 	mov	r5,zero
    23f0:	0009883a 	mov	r4,zero
    23f4:	00019e80 	call	19e8 <IO_write>
	IO_write(HPI_DATA,0x0000);//2
    23f8:	000b883a 	mov	r5,zero
    23fc:	0009883a 	mov	r4,zero
    2400:	00019e80 	call	19e8 <IO_write>
	IO_write(HPI_DATA,0x0210);//4
    2404:	01408404 	movi	r5,528
    2408:	0009883a 	mov	r4,zero
    240c:	00019e80 	call	19e8 <IO_write>
	IO_write(HPI_DATA,0x0041);//6
    2410:	01401044 	movi	r5,65
    2414:	0009883a 	mov	r4,zero
    2418:	00019e80 	call	19e8 <IO_write>
	IO_write(HPI_DATA,0x0013);//8
    241c:	014004c4 	movi	r5,19
    2420:	0009883a 	mov	r4,zero
    2424:	00019e80 	call	19e8 <IO_write>
	IO_write(HPI_DATA,0x0000);//a
    2428:	000b883a 	mov	r5,zero
    242c:	0009883a 	mov	r4,zero
    2430:	00019e80 	call	19e8 <IO_write>

	UsbWrite(HUSB_SIE1_pCurrentTDPtr,0x0500); //HUSB_SIE1_pCurrentTDPtr
    2434:	01414004 	movi	r5,1280
    2438:	01006c04 	movi	r4,432
    243c:	0001af00 	call	1af0 <UsbWrite>
}
    2440:	0001883a 	nop
    2444:	e037883a 	mov	sp,fp
    2448:	dfc00117 	ldw	ra,4(sp)
    244c:	df000017 	ldw	fp,0(sp)
    2450:	dec00204 	addi	sp,sp,8
    2454:	f800283a 	ret

00002458 <UsbSetConfig>:

void UsbSetConfig()
{
    2458:	defffe04 	addi	sp,sp,-8
    245c:	dfc00115 	stw	ra,4(sp)
    2460:	df000015 	stw	fp,0(sp)
    2464:	d839883a 	mov	fp,sp
	//the starting address
	IO_write(HPI_ADDR,0x0500); //the start address
    2468:	01414004 	movi	r5,1280
    246c:	01000084 	movi	r4,2
    2470:	00019e80 	call	19e8 <IO_write>
	IO_write(HPI_DATA,0x050C);
    2474:	01414304 	movi	r5,1292
    2478:	0009883a 	mov	r4,zero
    247c:	00019e80 	call	19e8 <IO_write>
	IO_write(HPI_DATA,0x0008); //4 port number
    2480:	01400204 	movi	r5,8
    2484:	0009883a 	mov	r4,zero
    2488:	00019e80 	call	19e8 <IO_write>
	IO_write(HPI_DATA,0x02D0); //port address
    248c:	0140b404 	movi	r5,720
    2490:	0009883a 	mov	r4,zero
    2494:	00019e80 	call	19e8 <IO_write>
	IO_write(HPI_DATA,0x0001);
    2498:	01400044 	movi	r5,1
    249c:	0009883a 	mov	r4,zero
    24a0:	00019e80 	call	19e8 <IO_write>
	IO_write(HPI_DATA,0x0013);
    24a4:	014004c4 	movi	r5,19
    24a8:	0009883a 	mov	r4,zero
    24ac:	00019e80 	call	19e8 <IO_write>
	IO_write(HPI_DATA,0x0514);
    24b0:	01414504 	movi	r5,1300
    24b4:	0009883a 	mov	r4,zero
    24b8:	00019e80 	call	19e8 <IO_write>

	//td content 4 bytes
	IO_write(HPI_DATA,0x0900);
    24bc:	01424004 	movi	r5,2304
    24c0:	0009883a 	mov	r4,zero
    24c4:	00019e80 	call	19e8 <IO_write>
	IO_write(HPI_DATA,0x0001);//device address
    24c8:	01400044 	movi	r5,1
    24cc:	0009883a 	mov	r4,zero
    24d0:	00019e80 	call	19e8 <IO_write>
	IO_write(HPI_DATA,0x0000);
    24d4:	000b883a 	mov	r5,zero
    24d8:	0009883a 	mov	r4,zero
    24dc:	00019e80 	call	19e8 <IO_write>
	IO_write(HPI_DATA,0x0000);
    24e0:	000b883a 	mov	r5,zero
    24e4:	0009883a 	mov	r4,zero
    24e8:	00019e80 	call	19e8 <IO_write>
	//in packet
	IO_write(HPI_DATA,0x0000); //don't care
    24ec:	000b883a 	mov	r5,zero
    24f0:	0009883a 	mov	r4,zero
    24f4:	00019e80 	call	19e8 <IO_write>
	IO_write(HPI_DATA,0x0000);//port number
    24f8:	000b883a 	mov	r5,zero
    24fc:	0009883a 	mov	r4,zero
    2500:	00019e80 	call	19e8 <IO_write>
	IO_write(HPI_DATA,0x0290);//device address
    2504:	0140a404 	movi	r5,656
    2508:	0009883a 	mov	r4,zero
    250c:	00019e80 	call	19e8 <IO_write>
	IO_write(HPI_DATA,0x0041); //data 1
    2510:	01401044 	movi	r5,65
    2514:	0009883a 	mov	r4,zero
    2518:	00019e80 	call	19e8 <IO_write>
	IO_write(HPI_DATA,0x0013);
    251c:	014004c4 	movi	r5,19
    2520:	0009883a 	mov	r4,zero
    2524:	00019e80 	call	19e8 <IO_write>
	IO_write(HPI_DATA,0x0000);
    2528:	000b883a 	mov	r5,zero
    252c:	0009883a 	mov	r4,zero
    2530:	00019e80 	call	19e8 <IO_write>

	UsbWrite(HUSB_SIE1_pCurrentTDPtr,0x0500); //HUSB_SIE1_pCurrentTDPtr
    2534:	01414004 	movi	r5,1280
    2538:	01006c04 	movi	r4,432
    253c:	0001af00 	call	1af0 <UsbWrite>

}
    2540:	0001883a 	nop
    2544:	e037883a 	mov	sp,fp
    2548:	dfc00117 	ldw	ra,4(sp)
    254c:	df000017 	ldw	fp,0(sp)
    2550:	dec00204 	addi	sp,sp,8
    2554:	f800283a 	ret

00002558 <UsbClassRequest>:

void UsbClassRequest()
{
    2558:	defffe04 	addi	sp,sp,-8
    255c:	dfc00115 	stw	ra,4(sp)
    2560:	df000015 	stw	fp,0(sp)
    2564:	d839883a 	mov	fp,sp
	//the starting address
	IO_write(HPI_ADDR,0x0500); //the start address
    2568:	01414004 	movi	r5,1280
    256c:	01000084 	movi	r4,2
    2570:	00019e80 	call	19e8 <IO_write>
	IO_write(HPI_DATA,0x050C);
    2574:	01414304 	movi	r5,1292
    2578:	0009883a 	mov	r4,zero
    257c:	00019e80 	call	19e8 <IO_write>
	IO_write(HPI_DATA,0x0008); //4 port number
    2580:	01400204 	movi	r5,8
    2584:	0009883a 	mov	r4,zero
    2588:	00019e80 	call	19e8 <IO_write>
	IO_write(HPI_DATA,0x02D0); //port address
    258c:	0140b404 	movi	r5,720
    2590:	0009883a 	mov	r4,zero
    2594:	00019e80 	call	19e8 <IO_write>
	IO_write(HPI_DATA,0x0001);
    2598:	01400044 	movi	r5,1
    259c:	0009883a 	mov	r4,zero
    25a0:	00019e80 	call	19e8 <IO_write>
	IO_write(HPI_DATA,0x0013);
    25a4:	014004c4 	movi	r5,19
    25a8:	0009883a 	mov	r4,zero
    25ac:	00019e80 	call	19e8 <IO_write>
	IO_write(HPI_DATA,0x0514);
    25b0:	01414504 	movi	r5,1300
    25b4:	0009883a 	mov	r4,zero
    25b8:	00019e80 	call	19e8 <IO_write>

	//td content 4 bytes
	IO_write(HPI_DATA,0x0A21);
    25bc:	01428844 	movi	r5,2593
    25c0:	0009883a 	mov	r4,zero
    25c4:	00019e80 	call	19e8 <IO_write>
	IO_write(HPI_DATA,0x0000);//device address
    25c8:	000b883a 	mov	r5,zero
    25cc:	0009883a 	mov	r4,zero
    25d0:	00019e80 	call	19e8 <IO_write>
	IO_write(HPI_DATA,0x0000);
    25d4:	000b883a 	mov	r5,zero
    25d8:	0009883a 	mov	r4,zero
    25dc:	00019e80 	call	19e8 <IO_write>
	IO_write(HPI_DATA,0x0000);
    25e0:	000b883a 	mov	r5,zero
    25e4:	0009883a 	mov	r4,zero
    25e8:	00019e80 	call	19e8 <IO_write>
	//in packet
	IO_write(HPI_DATA,0x0000); //don't care
    25ec:	000b883a 	mov	r5,zero
    25f0:	0009883a 	mov	r4,zero
    25f4:	00019e80 	call	19e8 <IO_write>
	IO_write(HPI_DATA,0x0000);//port number /data length
    25f8:	000b883a 	mov	r5,zero
    25fc:	0009883a 	mov	r4,zero
    2600:	00019e80 	call	19e8 <IO_write>
	IO_write(HPI_DATA,0x0290);//device address
    2604:	0140a404 	movi	r5,656
    2608:	0009883a 	mov	r4,zero
    260c:	00019e80 	call	19e8 <IO_write>
	IO_write(HPI_DATA,0x0041); //data 1
    2610:	01401044 	movi	r5,65
    2614:	0009883a 	mov	r4,zero
    2618:	00019e80 	call	19e8 <IO_write>
	IO_write(HPI_DATA,0x0013);
    261c:	014004c4 	movi	r5,19
    2620:	0009883a 	mov	r4,zero
    2624:	00019e80 	call	19e8 <IO_write>
	IO_write(HPI_DATA,0x0000);
    2628:	000b883a 	mov	r5,zero
    262c:	0009883a 	mov	r4,zero
    2630:	00019e80 	call	19e8 <IO_write>

	UsbWrite(HUSB_SIE1_pCurrentTDPtr,0x0500); //HUSB_SIE1_pCurrentTDPtr
    2634:	01414004 	movi	r5,1280
    2638:	01006c04 	movi	r4,432
    263c:	0001af00 	call	1af0 <UsbWrite>
}
    2640:	0001883a 	nop
    2644:	e037883a 	mov	sp,fp
    2648:	dfc00117 	ldw	ra,4(sp)
    264c:	df000017 	ldw	fp,0(sp)
    2650:	dec00204 	addi	sp,sp,8
    2654:	f800283a 	ret

00002658 <UsbGetHidDesc>:


void UsbGetHidDesc()
{
    2658:	defffe04 	addi	sp,sp,-8
    265c:	dfc00115 	stw	ra,4(sp)
    2660:	df000015 	stw	fp,0(sp)
    2664:	d839883a 	mov	fp,sp
	//the starting address
	IO_write(HPI_ADDR,0x0500); //the start address
    2668:	01414004 	movi	r5,1280
    266c:	01000084 	movi	r4,2
    2670:	00019e80 	call	19e8 <IO_write>
	IO_write(HPI_DATA,0x050C);
    2674:	01414304 	movi	r5,1292
    2678:	0009883a 	mov	r4,zero
    267c:	00019e80 	call	19e8 <IO_write>
	IO_write(HPI_DATA,0x0008); //4 port number
    2680:	01400204 	movi	r5,8
    2684:	0009883a 	mov	r4,zero
    2688:	00019e80 	call	19e8 <IO_write>
	IO_write(HPI_DATA,0x02D0); //port address
    268c:	0140b404 	movi	r5,720
    2690:	0009883a 	mov	r4,zero
    2694:	00019e80 	call	19e8 <IO_write>
	IO_write(HPI_DATA,0x0001);
    2698:	01400044 	movi	r5,1
    269c:	0009883a 	mov	r4,zero
    26a0:	00019e80 	call	19e8 <IO_write>
	IO_write(HPI_DATA,0x0013);
    26a4:	014004c4 	movi	r5,19
    26a8:	0009883a 	mov	r4,zero
    26ac:	00019e80 	call	19e8 <IO_write>
	IO_write(HPI_DATA,0x0514);
    26b0:	01414504 	movi	r5,1300
    26b4:	0009883a 	mov	r4,zero
    26b8:	00019e80 	call	19e8 <IO_write>

	//td content 4 bytes
	IO_write(HPI_DATA,0x0681);//c
    26bc:	0141a044 	movi	r5,1665
    26c0:	0009883a 	mov	r4,zero
    26c4:	00019e80 	call	19e8 <IO_write>
	IO_write(HPI_DATA,0x2100);//e //HID 0x21
    26c8:	01484004 	movi	r5,8448
    26cc:	0009883a 	mov	r4,zero
    26d0:	00019e80 	call	19e8 <IO_write>
	IO_write(HPI_DATA,0x0000);//0
    26d4:	000b883a 	mov	r5,zero
    26d8:	0009883a 	mov	r4,zero
    26dc:	00019e80 	call	19e8 <IO_write>
	IO_write(HPI_DATA,0x007B);//2
    26e0:	01401ec4 	movi	r5,123
    26e4:	0009883a 	mov	r4,zero
    26e8:	00019e80 	call	19e8 <IO_write>

	//data phase IN-1
	IO_write(HPI_DATA,0x0544); //514
    26ec:	01415104 	movi	r5,1348
    26f0:	0009883a 	mov	r4,zero
    26f4:	00019e80 	call	19e8 <IO_write>
	IO_write(HPI_DATA,0x0008);//6
    26f8:	01400204 	movi	r5,8
    26fc:	0009883a 	mov	r4,zero
    2700:	00019e80 	call	19e8 <IO_write>
	IO_write(HPI_DATA,0x0290);//8
    2704:	0140a404 	movi	r5,656
    2708:	0009883a 	mov	r4,zero
    270c:	00019e80 	call	19e8 <IO_write>
	IO_write(HPI_DATA,0x0041);//a
    2710:	01401044 	movi	r5,65
    2714:	0009883a 	mov	r4,zero
    2718:	00019e80 	call	19e8 <IO_write>
	IO_write(HPI_DATA,0x0013);//c
    271c:	014004c4 	movi	r5,19
    2720:	0009883a 	mov	r4,zero
    2724:	00019e80 	call	19e8 <IO_write>
	IO_write(HPI_DATA,0x0520);//e
    2728:	01414804 	movi	r5,1312
    272c:	0009883a 	mov	r4,zero
    2730:	00019e80 	call	19e8 <IO_write>

	//status phase
	IO_write(HPI_DATA,0x0000); //52c
    2734:	000b883a 	mov	r5,zero
    2738:	0009883a 	mov	r4,zero
    273c:	00019e80 	call	19e8 <IO_write>
	IO_write(HPI_DATA,0x0000);//e
    2740:	000b883a 	mov	r5,zero
    2744:	0009883a 	mov	r4,zero
    2748:	00019e80 	call	19e8 <IO_write>
	IO_write(HPI_DATA,0x0210);//530
    274c:	01408404 	movi	r5,528
    2750:	0009883a 	mov	r4,zero
    2754:	00019e80 	call	19e8 <IO_write>
	IO_write(HPI_DATA,0x0041);//2
    2758:	01401044 	movi	r5,65
    275c:	0009883a 	mov	r4,zero
    2760:	00019e80 	call	19e8 <IO_write>
	IO_write(HPI_DATA,0x0013);//4
    2764:	014004c4 	movi	r5,19
    2768:	0009883a 	mov	r4,zero
    276c:	00019e80 	call	19e8 <IO_write>
	IO_write(HPI_DATA,0x0000);//6
    2770:	000b883a 	mov	r5,zero
    2774:	0009883a 	mov	r4,zero
    2778:	00019e80 	call	19e8 <IO_write>

	UsbWrite(HUSB_SIE1_pCurrentTDPtr,0x0500); //HUSB_SIE1_pCurrentTDPtr
    277c:	01414004 	movi	r5,1280
    2780:	01006c04 	movi	r4,432
    2784:	0001af00 	call	1af0 <UsbWrite>

}
    2788:	0001883a 	nop
    278c:	e037883a 	mov	sp,fp
    2790:	dfc00117 	ldw	ra,4(sp)
    2794:	df000017 	ldw	fp,0(sp)
    2798:	dec00204 	addi	sp,sp,8
    279c:	f800283a 	ret

000027a0 <UsbGetReportDesc>:


void UsbGetReportDesc()
{
    27a0:	defffe04 	addi	sp,sp,-8
    27a4:	dfc00115 	stw	ra,4(sp)
    27a8:	df000015 	stw	fp,0(sp)
    27ac:	d839883a 	mov	fp,sp
	//the starting address
	IO_write(HPI_ADDR,0x0500); //the start address
    27b0:	01414004 	movi	r5,1280
    27b4:	01000084 	movi	r4,2
    27b8:	00019e80 	call	19e8 <IO_write>
	IO_write(HPI_DATA,0x050C);
    27bc:	01414304 	movi	r5,1292
    27c0:	0009883a 	mov	r4,zero
    27c4:	00019e80 	call	19e8 <IO_write>
	IO_write(HPI_DATA,0x0008); //4 port number
    27c8:	01400204 	movi	r5,8
    27cc:	0009883a 	mov	r4,zero
    27d0:	00019e80 	call	19e8 <IO_write>
	IO_write(HPI_DATA,0x02D0); //device address
    27d4:	0140b404 	movi	r5,720
    27d8:	0009883a 	mov	r4,zero
    27dc:	00019e80 	call	19e8 <IO_write>
	IO_write(HPI_DATA,0x0001);
    27e0:	01400044 	movi	r5,1
    27e4:	0009883a 	mov	r4,zero
    27e8:	00019e80 	call	19e8 <IO_write>
	IO_write(HPI_DATA,0x0013);
    27ec:	014004c4 	movi	r5,19
    27f0:	0009883a 	mov	r4,zero
    27f4:	00019e80 	call	19e8 <IO_write>
	IO_write(HPI_DATA,0x0514);
    27f8:	01414504 	movi	r5,1300
    27fc:	0009883a 	mov	r4,zero
    2800:	00019e80 	call	19e8 <IO_write>

	//td content 4 bytes
	IO_write(HPI_DATA,0x0681);//c
    2804:	0141a044 	movi	r5,1665
    2808:	0009883a 	mov	r4,zero
    280c:	00019e80 	call	19e8 <IO_write>
	IO_write(HPI_DATA,0x2200);//e //report 0x22
    2810:	01488004 	movi	r5,8704
    2814:	0009883a 	mov	r4,zero
    2818:	00019e80 	call	19e8 <IO_write>
	IO_write(HPI_DATA,0x0000);//0
    281c:	000b883a 	mov	r5,zero
    2820:	0009883a 	mov	r4,zero
    2824:	00019e80 	call	19e8 <IO_write>
	IO_write(HPI_DATA,0x007B);//2
    2828:	01401ec4 	movi	r5,123
    282c:	0009883a 	mov	r4,zero
    2830:	00019e80 	call	19e8 <IO_write>

	//data phase IN-1
	IO_write(HPI_DATA,0x0580); //514
    2834:	01416004 	movi	r5,1408
    2838:	0009883a 	mov	r4,zero
    283c:	00019e80 	call	19e8 <IO_write>
	IO_write(HPI_DATA,0x0008);//6
    2840:	01400204 	movi	r5,8
    2844:	0009883a 	mov	r4,zero
    2848:	00019e80 	call	19e8 <IO_write>
	IO_write(HPI_DATA,0x0290);//8
    284c:	0140a404 	movi	r5,656
    2850:	0009883a 	mov	r4,zero
    2854:	00019e80 	call	19e8 <IO_write>
	IO_write(HPI_DATA,0x0041);//a
    2858:	01401044 	movi	r5,65
    285c:	0009883a 	mov	r4,zero
    2860:	00019e80 	call	19e8 <IO_write>
	IO_write(HPI_DATA,0x0013);//c
    2864:	014004c4 	movi	r5,19
    2868:	0009883a 	mov	r4,zero
    286c:	00019e80 	call	19e8 <IO_write>
	IO_write(HPI_DATA,0x0520);//e
    2870:	01414804 	movi	r5,1312
    2874:	0009883a 	mov	r4,zero
    2878:	00019e80 	call	19e8 <IO_write>

	//data phase IN-2
	IO_write(HPI_DATA,0x0588); //520
    287c:	01416204 	movi	r5,1416
    2880:	0009883a 	mov	r4,zero
    2884:	00019e80 	call	19e8 <IO_write>
	IO_write(HPI_DATA,0x0008);//2
    2888:	01400204 	movi	r5,8
    288c:	0009883a 	mov	r4,zero
    2890:	00019e80 	call	19e8 <IO_write>
	IO_write(HPI_DATA,0x0290);//4
    2894:	0140a404 	movi	r5,656
    2898:	0009883a 	mov	r4,zero
    289c:	00019e80 	call	19e8 <IO_write>
	IO_write(HPI_DATA,0x0001);//6 //data0
    28a0:	01400044 	movi	r5,1
    28a4:	0009883a 	mov	r4,zero
    28a8:	00019e80 	call	19e8 <IO_write>
	IO_write(HPI_DATA,0x0013);//8
    28ac:	014004c4 	movi	r5,19
    28b0:	0009883a 	mov	r4,zero
    28b4:	00019e80 	call	19e8 <IO_write>
	IO_write(HPI_DATA,0x052c);//a
    28b8:	01414b04 	movi	r5,1324
    28bc:	0009883a 	mov	r4,zero
    28c0:	00019e80 	call	19e8 <IO_write>

	//data phase IN-3
	IO_write(HPI_DATA,0x0590); //52c
    28c4:	01416404 	movi	r5,1424
    28c8:	0009883a 	mov	r4,zero
    28cc:	00019e80 	call	19e8 <IO_write>
	IO_write(HPI_DATA,0x0008);//e
    28d0:	01400204 	movi	r5,8
    28d4:	0009883a 	mov	r4,zero
    28d8:	00019e80 	call	19e8 <IO_write>
	IO_write(HPI_DATA,0x0290);//530
    28dc:	0140a404 	movi	r5,656
    28e0:	0009883a 	mov	r4,zero
    28e4:	00019e80 	call	19e8 <IO_write>
	IO_write(HPI_DATA,0x0041);//2
    28e8:	01401044 	movi	r5,65
    28ec:	0009883a 	mov	r4,zero
    28f0:	00019e80 	call	19e8 <IO_write>
	IO_write(HPI_DATA,0x0013);//4
    28f4:	014004c4 	movi	r5,19
    28f8:	0009883a 	mov	r4,zero
    28fc:	00019e80 	call	19e8 <IO_write>
	IO_write(HPI_DATA,0x0538);//6
    2900:	01414e04 	movi	r5,1336
    2904:	0009883a 	mov	r4,zero
    2908:	00019e80 	call	19e8 <IO_write>

	//data phase IN-4
	IO_write(HPI_DATA,0x0598); //538
    290c:	01416604 	movi	r5,1432
    2910:	0009883a 	mov	r4,zero
    2914:	00019e80 	call	19e8 <IO_write>
	IO_write(HPI_DATA,0x0008);//a
    2918:	01400204 	movi	r5,8
    291c:	0009883a 	mov	r4,zero
    2920:	00019e80 	call	19e8 <IO_write>
	IO_write(HPI_DATA,0x0290);//c
    2924:	0140a404 	movi	r5,656
    2928:	0009883a 	mov	r4,zero
    292c:	00019e80 	call	19e8 <IO_write>
	IO_write(HPI_DATA,0x0001);//e //data0
    2930:	01400044 	movi	r5,1
    2934:	0009883a 	mov	r4,zero
    2938:	00019e80 	call	19e8 <IO_write>
	IO_write(HPI_DATA,0x0013);//540
    293c:	014004c4 	movi	r5,19
    2940:	0009883a 	mov	r4,zero
    2944:	00019e80 	call	19e8 <IO_write>
	IO_write(HPI_DATA,0x0544);//2
    2948:	01415104 	movi	r5,1348
    294c:	0009883a 	mov	r4,zero
    2950:	00019e80 	call	19e8 <IO_write>

	//data phase IN-5
	IO_write(HPI_DATA,0x05a0); //544
    2954:	01416804 	movi	r5,1440
    2958:	0009883a 	mov	r4,zero
    295c:	00019e80 	call	19e8 <IO_write>
	IO_write(HPI_DATA,0x0008);//6
    2960:	01400204 	movi	r5,8
    2964:	0009883a 	mov	r4,zero
    2968:	00019e80 	call	19e8 <IO_write>
	IO_write(HPI_DATA,0x0290);//8
    296c:	0140a404 	movi	r5,656
    2970:	0009883a 	mov	r4,zero
    2974:	00019e80 	call	19e8 <IO_write>
	IO_write(HPI_DATA,0x0041);//a //data1
    2978:	01401044 	movi	r5,65
    297c:	0009883a 	mov	r4,zero
    2980:	00019e80 	call	19e8 <IO_write>
	IO_write(HPI_DATA,0x0013);//c
    2984:	014004c4 	movi	r5,19
    2988:	0009883a 	mov	r4,zero
    298c:	00019e80 	call	19e8 <IO_write>
	IO_write(HPI_DATA,0x0550);//e
    2990:	01415404 	movi	r5,1360
    2994:	0009883a 	mov	r4,zero
    2998:	00019e80 	call	19e8 <IO_write>

	//data phase IN-6
	IO_write(HPI_DATA,0x05a8); //550
    299c:	01416a04 	movi	r5,1448
    29a0:	0009883a 	mov	r4,zero
    29a4:	00019e80 	call	19e8 <IO_write>
	IO_write(HPI_DATA,0x0008);//2
    29a8:	01400204 	movi	r5,8
    29ac:	0009883a 	mov	r4,zero
    29b0:	00019e80 	call	19e8 <IO_write>
	IO_write(HPI_DATA,0x0290);//4
    29b4:	0140a404 	movi	r5,656
    29b8:	0009883a 	mov	r4,zero
    29bc:	00019e80 	call	19e8 <IO_write>
	IO_write(HPI_DATA,0x0001);//6 //data0
    29c0:	01400044 	movi	r5,1
    29c4:	0009883a 	mov	r4,zero
    29c8:	00019e80 	call	19e8 <IO_write>
	IO_write(HPI_DATA,0x0013);//8
    29cc:	014004c4 	movi	r5,19
    29d0:	0009883a 	mov	r4,zero
    29d4:	00019e80 	call	19e8 <IO_write>
	IO_write(HPI_DATA,0x055c);//a
    29d8:	01415704 	movi	r5,1372
    29dc:	0009883a 	mov	r4,zero
    29e0:	00019e80 	call	19e8 <IO_write>

	//data phase IN-7
	IO_write(HPI_DATA,0x05b0); //c
    29e4:	01416c04 	movi	r5,1456
    29e8:	0009883a 	mov	r4,zero
    29ec:	00019e80 	call	19e8 <IO_write>
	IO_write(HPI_DATA,0x0008);//e
    29f0:	01400204 	movi	r5,8
    29f4:	0009883a 	mov	r4,zero
    29f8:	00019e80 	call	19e8 <IO_write>
	IO_write(HPI_DATA,0x0290);//560
    29fc:	0140a404 	movi	r5,656
    2a00:	0009883a 	mov	r4,zero
    2a04:	00019e80 	call	19e8 <IO_write>
	IO_write(HPI_DATA,0x0041);//2 //data1
    2a08:	01401044 	movi	r5,65
    2a0c:	0009883a 	mov	r4,zero
    2a10:	00019e80 	call	19e8 <IO_write>
	IO_write(HPI_DATA,0x0013);//4
    2a14:	014004c4 	movi	r5,19
    2a18:	0009883a 	mov	r4,zero
    2a1c:	00019e80 	call	19e8 <IO_write>
	IO_write(HPI_DATA,0x0568);//6
    2a20:	01415a04 	movi	r5,1384
    2a24:	0009883a 	mov	r4,zero
    2a28:	00019e80 	call	19e8 <IO_write>

	//data phase IN-8
	IO_write(HPI_DATA,0x05b8); //8
    2a2c:	01416e04 	movi	r5,1464
    2a30:	0009883a 	mov	r4,zero
    2a34:	00019e80 	call	19e8 <IO_write>
	IO_write(HPI_DATA,0x0003);//a
    2a38:	014000c4 	movi	r5,3
    2a3c:	0009883a 	mov	r4,zero
    2a40:	00019e80 	call	19e8 <IO_write>
	IO_write(HPI_DATA,0x0290);//c
    2a44:	0140a404 	movi	r5,656
    2a48:	0009883a 	mov	r4,zero
    2a4c:	00019e80 	call	19e8 <IO_write>
	IO_write(HPI_DATA,0x0001);//e //data0
    2a50:	01400044 	movi	r5,1
    2a54:	0009883a 	mov	r4,zero
    2a58:	00019e80 	call	19e8 <IO_write>
	IO_write(HPI_DATA,0x0013);//570
    2a5c:	014004c4 	movi	r5,19
    2a60:	0009883a 	mov	r4,zero
    2a64:	00019e80 	call	19e8 <IO_write>
	IO_write(HPI_DATA,0x0574);//2
    2a68:	01415d04 	movi	r5,1396
    2a6c:	0009883a 	mov	r4,zero
    2a70:	00019e80 	call	19e8 <IO_write>

	//status phase
	IO_write(HPI_DATA,0x0000); //574
    2a74:	000b883a 	mov	r5,zero
    2a78:	0009883a 	mov	r4,zero
    2a7c:	00019e80 	call	19e8 <IO_write>
	IO_write(HPI_DATA,0x0000);//6
    2a80:	000b883a 	mov	r5,zero
    2a84:	0009883a 	mov	r4,zero
    2a88:	00019e80 	call	19e8 <IO_write>
	IO_write(HPI_DATA,0x0210);//8
    2a8c:	01408404 	movi	r5,528
    2a90:	0009883a 	mov	r4,zero
    2a94:	00019e80 	call	19e8 <IO_write>
	IO_write(HPI_DATA,0x0041);//a
    2a98:	01401044 	movi	r5,65
    2a9c:	0009883a 	mov	r4,zero
    2aa0:	00019e80 	call	19e8 <IO_write>
	IO_write(HPI_DATA,0x0013);//c
    2aa4:	014004c4 	movi	r5,19
    2aa8:	0009883a 	mov	r4,zero
    2aac:	00019e80 	call	19e8 <IO_write>
	IO_write(HPI_DATA,0x0000);//e
    2ab0:	000b883a 	mov	r5,zero
    2ab4:	0009883a 	mov	r4,zero
    2ab8:	00019e80 	call	19e8 <IO_write>

	UsbWrite(HUSB_SIE1_pCurrentTDPtr,0x0500); //HUSB_SIE1_pCurrentTDPtr
    2abc:	01414004 	movi	r5,1280
    2ac0:	01006c04 	movi	r4,432
    2ac4:	0001af00 	call	1af0 <UsbWrite>

}
    2ac8:	0001883a 	nop
    2acc:	e037883a 	mov	sp,fp
    2ad0:	dfc00117 	ldw	ra,4(sp)
    2ad4:	df000017 	ldw	fp,0(sp)
    2ad8:	dec00204 	addi	sp,sp,8
    2adc:	f800283a 	ret

00002ae0 <UsbWaitTDListDone>:


alt_u16 UsbWaitTDListDone()
{
    2ae0:	defffd04 	addi	sp,sp,-12
    2ae4:	dfc00215 	stw	ra,8(sp)
    2ae8:	df000115 	stw	fp,4(sp)
    2aec:	df000104 	addi	fp,sp,4
	alt_u16 usb_ctl_val;

	usb_ctl_val = UsbRead(HPI_SIE1_MSG_ADR); // STEP 3 j
    2af0:	01005104 	movi	r4,324
    2af4:	0001b480 	call	1b48 <UsbRead>
    2af8:	e0bfff0d 	sth	r2,-4(fp)
	UsbWrite(HPI_SIE1_MSG_ADR, 0);
    2afc:	000b883a 	mov	r5,zero
    2b00:	01005104 	movi	r4,324
    2b04:	0001af00 	call	1af0 <UsbWrite>
	while (usb_ctl_val != HUSB_TDListDone)  // k, read sie1 msg register
    2b08:	00000d06 	br	2b40 <UsbWaitTDListDone+0x60>
	{
		if(usb_ctl_val == 0x0000)
    2b0c:	e0bfff0b 	ldhu	r2,-4(fp)
    2b10:	10000526 	beq	r2,zero,2b28 <UsbWaitTDListDone+0x48>
		{
		}
		else
		{
			printf("[SIE1 MSG]:SIE1 msg reg is %x\n",usb_ctl_val);
    2b14:	e0bfff0b 	ldhu	r2,-4(fp)
    2b18:	100b883a 	mov	r5,r2
    2b1c:	010000b4 	movhi	r4,2
    2b20:	2131db04 	addi	r4,r4,-14484
    2b24:	000e4980 	call	e498 <printf>
		}
		usb_ctl_val = UsbRead(HPI_SIE1_MSG_ADR);
    2b28:	01005104 	movi	r4,324
    2b2c:	0001b480 	call	1b48 <UsbRead>
    2b30:	e0bfff0d 	sth	r2,-4(fp)
		UsbWrite(HPI_SIE1_MSG_ADR, 0);
    2b34:	000b883a 	mov	r5,zero
    2b38:	01005104 	movi	r4,324
    2b3c:	0001af00 	call	1af0 <UsbWrite>
{
	alt_u16 usb_ctl_val;

	usb_ctl_val = UsbRead(HPI_SIE1_MSG_ADR); // STEP 3 j
	UsbWrite(HPI_SIE1_MSG_ADR, 0);
	while (usb_ctl_val != HUSB_TDListDone)  // k, read sie1 msg register
    2b40:	e0bfff0b 	ldhu	r2,-4(fp)
    2b44:	10840018 	cmpnei	r2,r2,4096
    2b48:	103ff01e 	bne	r2,zero,2b0c <__alt_data_end+0xf8002b0c>
		}
		usb_ctl_val = UsbRead(HPI_SIE1_MSG_ADR);
		UsbWrite(HPI_SIE1_MSG_ADR, 0);
	}

	return usb_ctl_val;
    2b4c:	e0bfff0b 	ldhu	r2,-4(fp)
}
    2b50:	e037883a 	mov	sp,fp
    2b54:	dfc00117 	ldw	ra,4(sp)
    2b58:	df000017 	ldw	fp,0(sp)
    2b5c:	dec00204 	addi	sp,sp,8
    2b60:	f800283a 	ret

00002b64 <UsbGetRetryCnt>:


alt_u16 UsbGetRetryCnt()
{
    2b64:	defffd04 	addi	sp,sp,-12
    2b68:	dfc00215 	stw	ra,8(sp)
    2b6c:	df000115 	stw	fp,4(sp)
    2b70:	df000104 	addi	fp,sp,4
	alt_u16 usb_ctl_val;

	IO_read(HPI_STATUS);
    2b74:	010000c4 	movi	r4,3
    2b78:	0001a700 	call	1a70 <IO_read>
	if(UsbRead(HPI_SIE1_MSG_ADR) == HUSB_TDListDone)
    2b7c:	01005104 	movi	r4,324
    2b80:	0001b480 	call	1b48 <UsbRead>
    2b84:	10bfffcc 	andi	r2,r2,65535
    2b88:	10840018 	cmpnei	r2,r2,4096
    2b8c:	1000091e 	bne	r2,zero,2bb4 <UsbGetRetryCnt+0x50>
	{
		UsbWrite(HPI_SIE1_MSG_ADR, 0);
    2b90:	000b883a 	mov	r5,zero
    2b94:	01005104 	movi	r4,324
    2b98:	0001af00 	call	1af0 <UsbWrite>

		while (!(IO_read(HPI_STATUS) & HPI_STATUS_SIE1msg_FLAG) )  //read sie1 msg register
    2b9c:	0001883a 	nop
    2ba0:	010000c4 	movi	r4,3
    2ba4:	0001a700 	call	1a70 <IO_read>
    2ba8:	10bfffcc 	andi	r2,r2,65535
    2bac:	1080040c 	andi	r2,r2,16
    2bb0:	103ffb26 	beq	r2,zero,2ba0 <__alt_data_end+0xf8002ba0>
		{
		}
	}
	//usleep(1000);
	IO_write(HPI_ADDR,0x0508);
    2bb4:	01414204 	movi	r5,1288
    2bb8:	01000084 	movi	r4,2
    2bbc:	00019e80 	call	19e8 <IO_write>
	usb_ctl_val = IO_read(HPI_DATA);
    2bc0:	0009883a 	mov	r4,zero
    2bc4:	0001a700 	call	1a70 <IO_read>
    2bc8:	e0bfff0d 	sth	r2,-4(fp)

	return usb_ctl_val;
    2bcc:	e0bfff0b 	ldhu	r2,-4(fp)
}
    2bd0:	e037883a 	mov	sp,fp
    2bd4:	dfc00117 	ldw	ra,4(sp)
    2bd8:	df000017 	ldw	fp,0(sp)
    2bdc:	dec00204 	addi	sp,sp,8
    2be0:	f800283a 	ret

00002be4 <UsbPrintMem>:


void UsbPrintMem()
{
    2be4:	defffc04 	addi	sp,sp,-16
    2be8:	dfc00315 	stw	ra,12(sp)
    2bec:	df000215 	stw	fp,8(sp)
    2bf0:	df000204 	addi	fp,sp,8
	int i, code;
	IO_write(HPI_ADDR,0x0500); //the start address
    2bf4:	01414004 	movi	r5,1280
    2bf8:	01000084 	movi	r4,2
    2bfc:	00019e80 	call	19e8 <IO_write>
	for (i = 0; i <= 200; i += 2)
    2c00:	e03ffe15 	stw	zero,-8(fp)
    2c04:	00000e06 	br	2c40 <UsbPrintMem+0x5c>
	{
		code = IO_read(HPI_DATA);
    2c08:	0009883a 	mov	r4,zero
    2c0c:	0001a700 	call	1a70 <IO_read>
    2c10:	10bfffcc 	andi	r2,r2,65535
    2c14:	e0bfff15 	stw	r2,-4(fp)
		printf("\naddr %x = %04x\n", 0x0500+i, code);
    2c18:	e0bffe17 	ldw	r2,-8(fp)
    2c1c:	10814004 	addi	r2,r2,1280
    2c20:	e1bfff17 	ldw	r6,-4(fp)
    2c24:	100b883a 	mov	r5,r2
    2c28:	010000b4 	movhi	r4,2
    2c2c:	2131e304 	addi	r4,r4,-14452
    2c30:	000e4980 	call	e498 <printf>

void UsbPrintMem()
{
	int i, code;
	IO_write(HPI_ADDR,0x0500); //the start address
	for (i = 0; i <= 200; i += 2)
    2c34:	e0bffe17 	ldw	r2,-8(fp)
    2c38:	10800084 	addi	r2,r2,2
    2c3c:	e0bffe15 	stw	r2,-8(fp)
    2c40:	e0bffe17 	ldw	r2,-8(fp)
    2c44:	10803250 	cmplti	r2,r2,201
    2c48:	103fef1e 	bne	r2,zero,2c08 <__alt_data_end+0xf8002c08>
	{
		code = IO_read(HPI_DATA);
		printf("\naddr %x = %04x\n", 0x0500+i, code);
	}
}
    2c4c:	0001883a 	nop
    2c50:	e037883a 	mov	sp,fp
    2c54:	dfc00117 	ldw	ra,4(sp)
    2c58:	df000017 	ldw	fp,0(sp)
    2c5c:	dec00204 	addi	sp,sp,8
    2c60:	f800283a 	ret

00002c64 <changeBackVolume>:
volatile unsigned int* Back_Vol_ptr = (unsigned int*)0x08000080;
volatile unsigned int* Bomb_Vol_ptr = (unsigned int*)0x080000a0;
volatile unsigned int* Bomb_Act_ptr = (unsigned int*)0x08000090;
volatile unsigned int* Audio_Sel_ptr = (unsigned int*)0x080000c0;

void changeBackVolume(unsigned int vol){
    2c64:	defffd04 	addi	sp,sp,-12
    2c68:	dfc00215 	stw	ra,8(sp)
    2c6c:	df000115 	stw	fp,4(sp)
    2c70:	df000104 	addi	fp,sp,4
    2c74:	e13fff15 	stw	r4,-4(fp)

	if (vol >= 8)
    2c78:	e0bfff17 	ldw	r2,-4(fp)
    2c7c:	10800230 	cmpltui	r2,r2,8
    2c80:	1000041e 	bne	r2,zero,2c94 <changeBackVolume+0x30>
		printf("need a integer between 0-8");
    2c84:	010000b4 	movhi	r4,2
    2c88:	2131e804 	addi	r4,r4,-14432
    2c8c:	000e4980 	call	e498 <printf>
	else
		*Back_Vol_ptr = vol;

}
    2c90:	00000306 	br	2ca0 <changeBackVolume+0x3c>
void changeBackVolume(unsigned int vol){

	if (vol >= 8)
		printf("need a integer between 0-8");
	else
		*Back_Vol_ptr = vol;
    2c94:	d0a00017 	ldw	r2,-32768(gp)
    2c98:	e0ffff17 	ldw	r3,-4(fp)
    2c9c:	10c00015 	stw	r3,0(r2)

}
    2ca0:	0001883a 	nop
    2ca4:	e037883a 	mov	sp,fp
    2ca8:	dfc00117 	ldw	ra,4(sp)
    2cac:	df000017 	ldw	fp,0(sp)
    2cb0:	dec00204 	addi	sp,sp,8
    2cb4:	f800283a 	ret

00002cb8 <changeBombVolume>:

void changeBombVolume(unsigned int vol){
    2cb8:	defffd04 	addi	sp,sp,-12
    2cbc:	dfc00215 	stw	ra,8(sp)
    2cc0:	df000115 	stw	fp,4(sp)
    2cc4:	df000104 	addi	fp,sp,4
    2cc8:	e13fff15 	stw	r4,-4(fp)

	if (vol >= 8)
    2ccc:	e0bfff17 	ldw	r2,-4(fp)
    2cd0:	10800230 	cmpltui	r2,r2,8
    2cd4:	1000041e 	bne	r2,zero,2ce8 <changeBombVolume+0x30>
		printf("need a integer between 0-8");
    2cd8:	010000b4 	movhi	r4,2
    2cdc:	2131e804 	addi	r4,r4,-14432
    2ce0:	000e4980 	call	e498 <printf>
	else
		*Bomb_Vol_ptr = vol;

}
    2ce4:	00000306 	br	2cf4 <changeBombVolume+0x3c>
void changeBombVolume(unsigned int vol){

	if (vol >= 8)
		printf("need a integer between 0-8");
	else
		*Bomb_Vol_ptr = vol;
    2ce8:	d0a00117 	ldw	r2,-32764(gp)
    2cec:	e0ffff17 	ldw	r3,-4(fp)
    2cf0:	10c00015 	stw	r3,0(r2)

}
    2cf4:	0001883a 	nop
    2cf8:	e037883a 	mov	sp,fp
    2cfc:	dfc00117 	ldw	ra,4(sp)
    2d00:	df000017 	ldw	fp,0(sp)
    2d04:	dec00204 	addi	sp,sp,8
    2d08:	f800283a 	ret

00002d0c <Audio_init>:


void Audio_init(){
    2d0c:	defffe04 	addi	sp,sp,-8
    2d10:	dfc00115 	stw	ra,4(sp)
    2d14:	df000015 	stw	fp,0(sp)
    2d18:	d839883a 	mov	fp,sp

	changeBackVolume(0);
    2d1c:	0009883a 	mov	r4,zero
    2d20:	0002c640 	call	2c64 <changeBackVolume>
	changeBombVolume(3);
    2d24:	010000c4 	movi	r4,3
    2d28:	0002cb80 	call	2cb8 <changeBombVolume>
	*Bomb_Act_ptr = 0;
    2d2c:	d0a00217 	ldw	r2,-32760(gp)
    2d30:	10000015 	stw	zero,0(r2)
	Audio_Select('o');
    2d34:	01001bc4 	movi	r4,111
    2d38:	0002d880 	call	2d88 <Audio_Select>

}
    2d3c:	0001883a 	nop
    2d40:	e037883a 	mov	sp,fp
    2d44:	dfc00117 	ldw	ra,4(sp)
    2d48:	df000017 	ldw	fp,0(sp)
    2d4c:	dec00204 	addi	sp,sp,8
    2d50:	f800283a 	ret

00002d54 <Bomb>:

void Bomb(){
    2d54:	deffff04 	addi	sp,sp,-4
    2d58:	df000015 	stw	fp,0(sp)
    2d5c:	d839883a 	mov	fp,sp
	*Bomb_Act_ptr = 1;
    2d60:	d0a00217 	ldw	r2,-32760(gp)
    2d64:	00c00044 	movi	r3,1
    2d68:	10c00015 	stw	r3,0(r2)
	*Bomb_Act_ptr = 0;
    2d6c:	d0a00217 	ldw	r2,-32760(gp)
    2d70:	10000015 	stw	zero,0(r2)
}
    2d74:	0001883a 	nop
    2d78:	e037883a 	mov	sp,fp
    2d7c:	df000017 	ldw	fp,0(sp)
    2d80:	dec00104 	addi	sp,sp,4
    2d84:	f800283a 	ret

00002d88 <Audio_Select>:

void Audio_Select(char i){
    2d88:	defffe04 	addi	sp,sp,-8
    2d8c:	df000115 	stw	fp,4(sp)
    2d90:	df000104 	addi	fp,sp,4
    2d94:	2005883a 	mov	r2,r4
    2d98:	e0bfff05 	stb	r2,-4(fp)

	switch(i){
    2d9c:	e0bfff07 	ldb	r2,-4(fp)
    2da0:	10c017e0 	cmpeqi	r3,r2,95
    2da4:	1800191e 	bne	r3,zero,2e0c <Audio_Select+0x84>
    2da8:	10c01808 	cmpgei	r3,r2,96
    2dac:	1800051e 	bne	r3,zero,2dc4 <Audio_Select+0x3c>
    2db0:	10c00c60 	cmpeqi	r3,r2,49
    2db4:	18000e1e 	bne	r3,zero,2df0 <Audio_Select+0x68>
    2db8:	10800ca0 	cmpeqi	r2,r2,50
    2dbc:	1000171e 	bne	r2,zero,2e1c <Audio_Select+0x94>
		case 'w': *Audio_Sel_ptr = 4; *Audio_Sel_ptr = 5; break;			//Winner Music
	}



}
    2dc0:	00002106 	br	2e48 <Audio_Select+0xc0>
	*Bomb_Act_ptr = 0;
}

void Audio_Select(char i){

	switch(i){
    2dc4:	10c01be0 	cmpeqi	r3,r2,111
    2dc8:	1800031e 	bne	r3,zero,2dd8 <Audio_Select+0x50>
    2dcc:	10801de0 	cmpeqi	r2,r2,119
    2dd0:	1000161e 	bne	r2,zero,2e2c <Audio_Select+0xa4>
		case 'w': *Audio_Sel_ptr = 4; *Audio_Sel_ptr = 5; break;			//Winner Music
	}



}
    2dd4:	00001c06 	br	2e48 <Audio_Select+0xc0>

void Audio_Select(char i){

	switch(i){

		case 'o': *Audio_Sel_ptr = 0; *Audio_Sel_ptr = 5; break;			//OP //A
    2dd8:	d0a00317 	ldw	r2,-32756(gp)
    2ddc:	10000015 	stw	zero,0(r2)
    2de0:	d0a00317 	ldw	r2,-32756(gp)
    2de4:	00c00144 	movi	r3,5
    2de8:	10c00015 	stw	r3,0(r2)
    2dec:	00001606 	br	2e48 <Audio_Select+0xc0>
		case '1': *Audio_Sel_ptr = 1; *Audio_Sel_ptr = 7;break;			//Game0	//A
    2df0:	d0a00317 	ldw	r2,-32756(gp)
    2df4:	00c00044 	movi	r3,1
    2df8:	10c00015 	stw	r3,0(r2)
    2dfc:	d0a00317 	ldw	r2,-32756(gp)
    2e00:	00c001c4 	movi	r3,7
    2e04:	10c00015 	stw	r3,0(r2)
    2e08:	00000f06 	br	2e48 <Audio_Select+0xc0>
		case '_': *Audio_Sel_ptr = 2; break;			//Game0 to Game1 Transition
    2e0c:	d0a00317 	ldw	r2,-32756(gp)
    2e10:	00c00084 	movi	r3,2
    2e14:	10c00015 	stw	r3,0(r2)
    2e18:	00000b06 	br	2e48 <Audio_Select+0xc0>
		case '2': *Audio_Sel_ptr = 2; break;			//Game1
    2e1c:	d0a00317 	ldw	r2,-32756(gp)
    2e20:	00c00084 	movi	r3,2
    2e24:	10c00015 	stw	r3,0(r2)
    2e28:	00000706 	br	2e48 <Audio_Select+0xc0>
		case 'w': *Audio_Sel_ptr = 4; *Audio_Sel_ptr = 5; break;			//Winner Music
    2e2c:	d0a00317 	ldw	r2,-32756(gp)
    2e30:	00c00104 	movi	r3,4
    2e34:	10c00015 	stw	r3,0(r2)
    2e38:	d0a00317 	ldw	r2,-32756(gp)
    2e3c:	00c00144 	movi	r3,5
    2e40:	10c00015 	stw	r3,0(r2)
    2e44:	0001883a 	nop
	}



}
    2e48:	0001883a 	nop
    2e4c:	e037883a 	mov	sp,fp
    2e50:	df000017 	ldw	fp,0(sp)
    2e54:	dec00104 	addi	sp,sp,4
    2e58:	f800283a 	ret

00002e5c <deleteCoins>:
#include "./header_file/coins.h"

void deleteCoins(unsigned short int X, unsigned short int Y, cellXY **head, cellXY **tail, cell ***stage){
    2e5c:	defff704 	addi	sp,sp,-36
    2e60:	dfc00815 	stw	ra,32(sp)
    2e64:	df000715 	stw	fp,28(sp)
    2e68:	df000704 	addi	fp,sp,28
    2e6c:	2007883a 	mov	r3,r4
    2e70:	2805883a 	mov	r2,r5
    2e74:	e1bffe15 	stw	r6,-8(fp)
    2e78:	e1ffff15 	stw	r7,-4(fp)
    2e7c:	e0fffc0d 	sth	r3,-16(fp)
    2e80:	e0bffd0d 	sth	r2,-12(fp)
	if(*head==NULL){return;}
    2e84:	e0bffe17 	ldw	r2,-8(fp)
    2e88:	10800017 	ldw	r2,0(r2)
    2e8c:	10005726 	beq	r2,zero,2fec <deleteCoins+0x190>
	(*stage)[X][Y].type = 0;
    2e90:	e0800217 	ldw	r2,8(fp)
    2e94:	10c00017 	ldw	r3,0(r2)
    2e98:	e0bffc0b 	ldhu	r2,-16(fp)
    2e9c:	1085883a 	add	r2,r2,r2
    2ea0:	1085883a 	add	r2,r2,r2
    2ea4:	1885883a 	add	r2,r3,r2
    2ea8:	10c00017 	ldw	r3,0(r2)
    2eac:	e0bffd0b 	ldhu	r2,-12(fp)
    2eb0:	100490fa 	slli	r2,r2,3
    2eb4:	1885883a 	add	r2,r3,r2
    2eb8:	1000000d 	sth	zero,0(r2)
	if((*head)->X==X && (*head)->Y==Y){
    2ebc:	e0bffe17 	ldw	r2,-8(fp)
    2ec0:	10800017 	ldw	r2,0(r2)
    2ec4:	1080000b 	ldhu	r2,0(r2)
    2ec8:	10ffffcc 	andi	r3,r2,65535
    2ecc:	e0bffc0b 	ldhu	r2,-16(fp)
    2ed0:	18801a1e 	bne	r3,r2,2f3c <deleteCoins+0xe0>
    2ed4:	e0bffe17 	ldw	r2,-8(fp)
    2ed8:	10800017 	ldw	r2,0(r2)
    2edc:	1080008b 	ldhu	r2,2(r2)
    2ee0:	10ffffcc 	andi	r3,r2,65535
    2ee4:	e0bffd0b 	ldhu	r2,-12(fp)
    2ee8:	1880141e 	bne	r3,r2,2f3c <deleteCoins+0xe0>
		cellXY *temp = *head;
    2eec:	e0bffe17 	ldw	r2,-8(fp)
    2ef0:	10800017 	ldw	r2,0(r2)
    2ef4:	e0bffb15 	stw	r2,-20(fp)
		*head = (*head)->next;
    2ef8:	e0bffe17 	ldw	r2,-8(fp)
    2efc:	10800017 	ldw	r2,0(r2)
    2f00:	10c00217 	ldw	r3,8(r2)
    2f04:	e0bffe17 	ldw	r2,-8(fp)
    2f08:	10c00015 	stw	r3,0(r2)
		free(temp);
    2f0c:	e13ffb17 	ldw	r4,-20(fp)
    2f10:	000dc480 	call	dc48 <free>
		if(*head == NULL){*tail = NULL;}
    2f14:	e0bffe17 	ldw	r2,-8(fp)
    2f18:	10800017 	ldw	r2,0(r2)
    2f1c:	1000031e 	bne	r2,zero,2f2c <deleteCoins+0xd0>
    2f20:	e0bfff17 	ldw	r2,-4(fp)
    2f24:	10000015 	stw	zero,0(r2)
#include "./header_file/coins.h"

void deleteCoins(unsigned short int X, unsigned short int Y, cellXY **head, cellXY **tail, cell ***stage){
	if(*head==NULL){return;}
	(*stage)[X][Y].type = 0;
	if((*head)->X==X && (*head)->Y==Y){
    2f28:	00002a06 	br	2fd4 <deleteCoins+0x178>
		cellXY *temp = *head;
		*head = (*head)->next;
		free(temp);
		if(*head == NULL){*tail = NULL;}
		else{
			(*head)->prev = NULL;
    2f2c:	e0bffe17 	ldw	r2,-8(fp)
    2f30:	10800017 	ldw	r2,0(r2)
    2f34:	10000115 	stw	zero,4(r2)
#include "./header_file/coins.h"

void deleteCoins(unsigned short int X, unsigned short int Y, cellXY **head, cellXY **tail, cell ***stage){
	if(*head==NULL){return;}
	(*stage)[X][Y].type = 0;
	if((*head)->X==X && (*head)->Y==Y){
    2f38:	00002606 	br	2fd4 <deleteCoins+0x178>
		else{
			(*head)->prev = NULL;
		}
	}
	else{
		cellXY *pre = *head;
    2f3c:	e0bffe17 	ldw	r2,-8(fp)
    2f40:	10800017 	ldw	r2,0(r2)
    2f44:	e0bff915 	stw	r2,-28(fp)
		cellXY *nxt = (*head)->next;
    2f48:	e0bffe17 	ldw	r2,-8(fp)
    2f4c:	10800017 	ldw	r2,0(r2)
    2f50:	10800217 	ldw	r2,8(r2)
    2f54:	e0bffa15 	stw	r2,-24(fp)
        while(nxt){
    2f58:	00001c06 	br	2fcc <deleteCoins+0x170>
        	if(nxt->X == X && nxt->Y == Y){
    2f5c:	e0bffa17 	ldw	r2,-24(fp)
    2f60:	1080000b 	ldhu	r2,0(r2)
    2f64:	10ffffcc 	andi	r3,r2,65535
    2f68:	e0bffc0b 	ldhu	r2,-16(fp)
    2f6c:	1880121e 	bne	r3,r2,2fb8 <deleteCoins+0x15c>
    2f70:	e0bffa17 	ldw	r2,-24(fp)
    2f74:	1080008b 	ldhu	r2,2(r2)
    2f78:	10ffffcc 	andi	r3,r2,65535
    2f7c:	e0bffd0b 	ldhu	r2,-12(fp)
    2f80:	18800d1e 	bne	r3,r2,2fb8 <deleteCoins+0x15c>
        		pre->next = nxt->next;
    2f84:	e0bffa17 	ldw	r2,-24(fp)
    2f88:	10c00217 	ldw	r3,8(r2)
    2f8c:	e0bff917 	ldw	r2,-28(fp)
    2f90:	10c00215 	stw	r3,8(r2)
                if(pre->next){
    2f94:	e0bff917 	ldw	r2,-28(fp)
    2f98:	10800217 	ldw	r2,8(r2)
    2f9c:	10000426 	beq	r2,zero,2fb0 <deleteCoins+0x154>
                	pre->next->prev = pre;
    2fa0:	e0bff917 	ldw	r2,-28(fp)
    2fa4:	10800217 	ldw	r2,8(r2)
    2fa8:	e0fff917 	ldw	r3,-28(fp)
    2fac:	10c00115 	stw	r3,4(r2)
                }
                free(nxt);
    2fb0:	e13ffa17 	ldw	r4,-24(fp)
    2fb4:	000dc480 	call	dc48 <free>
        	}
        	pre = nxt;
    2fb8:	e0bffa17 	ldw	r2,-24(fp)
    2fbc:	e0bff915 	stw	r2,-28(fp)
        	nxt = nxt->next;
    2fc0:	e0bffa17 	ldw	r2,-24(fp)
    2fc4:	10800217 	ldw	r2,8(r2)
    2fc8:	e0bffa15 	stw	r2,-24(fp)
		}
	}
	else{
		cellXY *pre = *head;
		cellXY *nxt = (*head)->next;
        while(nxt){
    2fcc:	e0bffa17 	ldw	r2,-24(fp)
    2fd0:	103fe21e 	bne	r2,zero,2f5c <__alt_data_end+0xf8002f5c>
        	pre = nxt;
        	nxt = nxt->next;
        }

	}
	cleanCoin(X,Y);
    2fd4:	e0bffc0b 	ldhu	r2,-16(fp)
    2fd8:	e0fffd0b 	ldhu	r3,-12(fp)
    2fdc:	180b883a 	mov	r5,r3
    2fe0:	1009883a 	mov	r4,r2
    2fe4:	000814c0 	call	814c <cleanCoin>
    2fe8:	00000106 	br	2ff0 <deleteCoins+0x194>
#include "./header_file/coins.h"

void deleteCoins(unsigned short int X, unsigned short int Y, cellXY **head, cellXY **tail, cell ***stage){
	if(*head==NULL){return;}
    2fec:	0001883a 	nop
        	nxt = nxt->next;
        }

	}
	cleanCoin(X,Y);
}
    2ff0:	e037883a 	mov	sp,fp
    2ff4:	dfc00117 	ldw	ra,4(sp)
    2ff8:	df000017 	ldw	fp,0(sp)
    2ffc:	dec00204 	addi	sp,sp,8
    3000:	f800283a 	ret

00003004 <getCoins>:


unsigned int getCoins(unsigned short int x, unsigned short int y, cellXY **head, cellXY **tail, cell ***stage){
    3004:	defff704 	addi	sp,sp,-36
    3008:	dfc00815 	stw	ra,32(sp)
    300c:	df000715 	stw	fp,28(sp)
    3010:	df000704 	addi	fp,sp,28
    3014:	2007883a 	mov	r3,r4
    3018:	2805883a 	mov	r2,r5
    301c:	e1bffe15 	stw	r6,-8(fp)
    3020:	e1ffff15 	stw	r7,-4(fp)
    3024:	e0fffc0d 	sth	r3,-16(fp)
    3028:	e0bffd0d 	sth	r2,-12(fp)
	short int Ax0 = (short int)x;
    302c:	e0bffc0b 	ldhu	r2,-16(fp)
    3030:	e0bffa0d 	sth	r2,-24(fp)
	short int Ay0 = (short int)y;
    3034:	e0bffd0b 	ldhu	r2,-12(fp)
    3038:	e0bffa8d 	sth	r2,-22(fp)
	short int Ax1 = (short int)x+25;
    303c:	e0bffc0b 	ldhu	r2,-16(fp)
    3040:	10800644 	addi	r2,r2,25
    3044:	e0bffb0d 	sth	r2,-20(fp)
	short int Ay1 = (short int)y+25;
    3048:	e0bffd0b 	ldhu	r2,-12(fp)
    304c:	10800644 	addi	r2,r2,25
    3050:	e0bffb8d 	sth	r2,-18(fp)

	if((*stage)[Ax0/32][Ay0/32].type==6){(*stage)[Ax0/32][Ay0/32].type = 0;deleteCoins(Ax0/32, Ay0/32, head, tail, stage);return 1;}
    3054:	e0800217 	ldw	r2,8(fp)
    3058:	10c00017 	ldw	r3,0(r2)
    305c:	e0bffa0f 	ldh	r2,-24(fp)
    3060:	1000010e 	bge	r2,zero,3068 <getCoins+0x64>
    3064:	108007c4 	addi	r2,r2,31
    3068:	1005d17a 	srai	r2,r2,5
    306c:	10bfffcc 	andi	r2,r2,65535
    3070:	10a0001c 	xori	r2,r2,32768
    3074:	10a00004 	addi	r2,r2,-32768
    3078:	1085883a 	add	r2,r2,r2
    307c:	1085883a 	add	r2,r2,r2
    3080:	1885883a 	add	r2,r3,r2
    3084:	10c00017 	ldw	r3,0(r2)
    3088:	e0bffa8f 	ldh	r2,-22(fp)
    308c:	1000010e 	bge	r2,zero,3094 <getCoins+0x90>
    3090:	108007c4 	addi	r2,r2,31
    3094:	1005d17a 	srai	r2,r2,5
    3098:	10bfffcc 	andi	r2,r2,65535
    309c:	10a0001c 	xori	r2,r2,32768
    30a0:	10a00004 	addi	r2,r2,-32768
    30a4:	100490fa 	slli	r2,r2,3
    30a8:	1885883a 	add	r2,r3,r2
    30ac:	1080000b 	ldhu	r2,0(r2)
    30b0:	10bfffcc 	andi	r2,r2,65535
    30b4:	10800198 	cmpnei	r2,r2,6
    30b8:	10002a1e 	bne	r2,zero,3164 <getCoins+0x160>
    30bc:	e0800217 	ldw	r2,8(fp)
    30c0:	10c00017 	ldw	r3,0(r2)
    30c4:	e0bffa0f 	ldh	r2,-24(fp)
    30c8:	1000010e 	bge	r2,zero,30d0 <getCoins+0xcc>
    30cc:	108007c4 	addi	r2,r2,31
    30d0:	1005d17a 	srai	r2,r2,5
    30d4:	10bfffcc 	andi	r2,r2,65535
    30d8:	10a0001c 	xori	r2,r2,32768
    30dc:	10a00004 	addi	r2,r2,-32768
    30e0:	1085883a 	add	r2,r2,r2
    30e4:	1085883a 	add	r2,r2,r2
    30e8:	1885883a 	add	r2,r3,r2
    30ec:	10c00017 	ldw	r3,0(r2)
    30f0:	e0bffa8f 	ldh	r2,-22(fp)
    30f4:	1000010e 	bge	r2,zero,30fc <getCoins+0xf8>
    30f8:	108007c4 	addi	r2,r2,31
    30fc:	1005d17a 	srai	r2,r2,5
    3100:	10bfffcc 	andi	r2,r2,65535
    3104:	10a0001c 	xori	r2,r2,32768
    3108:	10a00004 	addi	r2,r2,-32768
    310c:	100490fa 	slli	r2,r2,3
    3110:	1885883a 	add	r2,r3,r2
    3114:	1000000d 	sth	zero,0(r2)
    3118:	e0bffa0f 	ldh	r2,-24(fp)
    311c:	1000010e 	bge	r2,zero,3124 <getCoins+0x120>
    3120:	108007c4 	addi	r2,r2,31
    3124:	1005d17a 	srai	r2,r2,5
    3128:	10ffffcc 	andi	r3,r2,65535
    312c:	e0bffa8f 	ldh	r2,-22(fp)
    3130:	1000010e 	bge	r2,zero,3138 <getCoins+0x134>
    3134:	108007c4 	addi	r2,r2,31
    3138:	1005d17a 	srai	r2,r2,5
    313c:	113fffcc 	andi	r4,r2,65535
    3140:	e0800217 	ldw	r2,8(fp)
    3144:	d8800015 	stw	r2,0(sp)
    3148:	e1ffff17 	ldw	r7,-4(fp)
    314c:	e1bffe17 	ldw	r6,-8(fp)
    3150:	200b883a 	mov	r5,r4
    3154:	1809883a 	mov	r4,r3
    3158:	0002e5c0 	call	2e5c <deleteCoins>
    315c:	00800044 	movi	r2,1
    3160:	0000cd06 	br	3498 <getCoins+0x494>
	if((*stage)[Ax0/32][Ay1/32].type==6){(*stage)[Ax0/32][Ay1/32].type = 0;deleteCoins(Ax0/32, Ay1/32, head, tail, stage);return 1;}
    3164:	e0800217 	ldw	r2,8(fp)
    3168:	10c00017 	ldw	r3,0(r2)
    316c:	e0bffa0f 	ldh	r2,-24(fp)
    3170:	1000010e 	bge	r2,zero,3178 <getCoins+0x174>
    3174:	108007c4 	addi	r2,r2,31
    3178:	1005d17a 	srai	r2,r2,5
    317c:	10bfffcc 	andi	r2,r2,65535
    3180:	10a0001c 	xori	r2,r2,32768
    3184:	10a00004 	addi	r2,r2,-32768
    3188:	1085883a 	add	r2,r2,r2
    318c:	1085883a 	add	r2,r2,r2
    3190:	1885883a 	add	r2,r3,r2
    3194:	10c00017 	ldw	r3,0(r2)
    3198:	e0bffb8f 	ldh	r2,-18(fp)
    319c:	1000010e 	bge	r2,zero,31a4 <getCoins+0x1a0>
    31a0:	108007c4 	addi	r2,r2,31
    31a4:	1005d17a 	srai	r2,r2,5
    31a8:	10bfffcc 	andi	r2,r2,65535
    31ac:	10a0001c 	xori	r2,r2,32768
    31b0:	10a00004 	addi	r2,r2,-32768
    31b4:	100490fa 	slli	r2,r2,3
    31b8:	1885883a 	add	r2,r3,r2
    31bc:	1080000b 	ldhu	r2,0(r2)
    31c0:	10bfffcc 	andi	r2,r2,65535
    31c4:	10800198 	cmpnei	r2,r2,6
    31c8:	10002a1e 	bne	r2,zero,3274 <getCoins+0x270>
    31cc:	e0800217 	ldw	r2,8(fp)
    31d0:	10c00017 	ldw	r3,0(r2)
    31d4:	e0bffa0f 	ldh	r2,-24(fp)
    31d8:	1000010e 	bge	r2,zero,31e0 <getCoins+0x1dc>
    31dc:	108007c4 	addi	r2,r2,31
    31e0:	1005d17a 	srai	r2,r2,5
    31e4:	10bfffcc 	andi	r2,r2,65535
    31e8:	10a0001c 	xori	r2,r2,32768
    31ec:	10a00004 	addi	r2,r2,-32768
    31f0:	1085883a 	add	r2,r2,r2
    31f4:	1085883a 	add	r2,r2,r2
    31f8:	1885883a 	add	r2,r3,r2
    31fc:	10c00017 	ldw	r3,0(r2)
    3200:	e0bffb8f 	ldh	r2,-18(fp)
    3204:	1000010e 	bge	r2,zero,320c <getCoins+0x208>
    3208:	108007c4 	addi	r2,r2,31
    320c:	1005d17a 	srai	r2,r2,5
    3210:	10bfffcc 	andi	r2,r2,65535
    3214:	10a0001c 	xori	r2,r2,32768
    3218:	10a00004 	addi	r2,r2,-32768
    321c:	100490fa 	slli	r2,r2,3
    3220:	1885883a 	add	r2,r3,r2
    3224:	1000000d 	sth	zero,0(r2)
    3228:	e0bffa0f 	ldh	r2,-24(fp)
    322c:	1000010e 	bge	r2,zero,3234 <getCoins+0x230>
    3230:	108007c4 	addi	r2,r2,31
    3234:	1005d17a 	srai	r2,r2,5
    3238:	10ffffcc 	andi	r3,r2,65535
    323c:	e0bffb8f 	ldh	r2,-18(fp)
    3240:	1000010e 	bge	r2,zero,3248 <getCoins+0x244>
    3244:	108007c4 	addi	r2,r2,31
    3248:	1005d17a 	srai	r2,r2,5
    324c:	113fffcc 	andi	r4,r2,65535
    3250:	e0800217 	ldw	r2,8(fp)
    3254:	d8800015 	stw	r2,0(sp)
    3258:	e1ffff17 	ldw	r7,-4(fp)
    325c:	e1bffe17 	ldw	r6,-8(fp)
    3260:	200b883a 	mov	r5,r4
    3264:	1809883a 	mov	r4,r3
    3268:	0002e5c0 	call	2e5c <deleteCoins>
    326c:	00800044 	movi	r2,1
    3270:	00008906 	br	3498 <getCoins+0x494>
	if((*stage)[Ax1/32][Ay0/32].type==6){(*stage)[Ax1/32][Ay0/32].type = 0;deleteCoins(Ax1/32, Ay0/32, head, tail, stage);return 1;}
    3274:	e0800217 	ldw	r2,8(fp)
    3278:	10c00017 	ldw	r3,0(r2)
    327c:	e0bffb0f 	ldh	r2,-20(fp)
    3280:	1000010e 	bge	r2,zero,3288 <getCoins+0x284>
    3284:	108007c4 	addi	r2,r2,31
    3288:	1005d17a 	srai	r2,r2,5
    328c:	10bfffcc 	andi	r2,r2,65535
    3290:	10a0001c 	xori	r2,r2,32768
    3294:	10a00004 	addi	r2,r2,-32768
    3298:	1085883a 	add	r2,r2,r2
    329c:	1085883a 	add	r2,r2,r2
    32a0:	1885883a 	add	r2,r3,r2
    32a4:	10c00017 	ldw	r3,0(r2)
    32a8:	e0bffa8f 	ldh	r2,-22(fp)
    32ac:	1000010e 	bge	r2,zero,32b4 <getCoins+0x2b0>
    32b0:	108007c4 	addi	r2,r2,31
    32b4:	1005d17a 	srai	r2,r2,5
    32b8:	10bfffcc 	andi	r2,r2,65535
    32bc:	10a0001c 	xori	r2,r2,32768
    32c0:	10a00004 	addi	r2,r2,-32768
    32c4:	100490fa 	slli	r2,r2,3
    32c8:	1885883a 	add	r2,r3,r2
    32cc:	1080000b 	ldhu	r2,0(r2)
    32d0:	10bfffcc 	andi	r2,r2,65535
    32d4:	10800198 	cmpnei	r2,r2,6
    32d8:	10002a1e 	bne	r2,zero,3384 <getCoins+0x380>
    32dc:	e0800217 	ldw	r2,8(fp)
    32e0:	10c00017 	ldw	r3,0(r2)
    32e4:	e0bffb0f 	ldh	r2,-20(fp)
    32e8:	1000010e 	bge	r2,zero,32f0 <getCoins+0x2ec>
    32ec:	108007c4 	addi	r2,r2,31
    32f0:	1005d17a 	srai	r2,r2,5
    32f4:	10bfffcc 	andi	r2,r2,65535
    32f8:	10a0001c 	xori	r2,r2,32768
    32fc:	10a00004 	addi	r2,r2,-32768
    3300:	1085883a 	add	r2,r2,r2
    3304:	1085883a 	add	r2,r2,r2
    3308:	1885883a 	add	r2,r3,r2
    330c:	10c00017 	ldw	r3,0(r2)
    3310:	e0bffa8f 	ldh	r2,-22(fp)
    3314:	1000010e 	bge	r2,zero,331c <getCoins+0x318>
    3318:	108007c4 	addi	r2,r2,31
    331c:	1005d17a 	srai	r2,r2,5
    3320:	10bfffcc 	andi	r2,r2,65535
    3324:	10a0001c 	xori	r2,r2,32768
    3328:	10a00004 	addi	r2,r2,-32768
    332c:	100490fa 	slli	r2,r2,3
    3330:	1885883a 	add	r2,r3,r2
    3334:	1000000d 	sth	zero,0(r2)
    3338:	e0bffb0f 	ldh	r2,-20(fp)
    333c:	1000010e 	bge	r2,zero,3344 <getCoins+0x340>
    3340:	108007c4 	addi	r2,r2,31
    3344:	1005d17a 	srai	r2,r2,5
    3348:	10ffffcc 	andi	r3,r2,65535
    334c:	e0bffa8f 	ldh	r2,-22(fp)
    3350:	1000010e 	bge	r2,zero,3358 <getCoins+0x354>
    3354:	108007c4 	addi	r2,r2,31
    3358:	1005d17a 	srai	r2,r2,5
    335c:	113fffcc 	andi	r4,r2,65535
    3360:	e0800217 	ldw	r2,8(fp)
    3364:	d8800015 	stw	r2,0(sp)
    3368:	e1ffff17 	ldw	r7,-4(fp)
    336c:	e1bffe17 	ldw	r6,-8(fp)
    3370:	200b883a 	mov	r5,r4
    3374:	1809883a 	mov	r4,r3
    3378:	0002e5c0 	call	2e5c <deleteCoins>
    337c:	00800044 	movi	r2,1
    3380:	00004506 	br	3498 <getCoins+0x494>
	if((*stage)[Ax1/32][Ay1/32].type==6){(*stage)[Ax1/32][Ay1/32].type = 0;deleteCoins(Ax1/32, Ay1/32, head, tail, stage);return 1;}
    3384:	e0800217 	ldw	r2,8(fp)
    3388:	10c00017 	ldw	r3,0(r2)
    338c:	e0bffb0f 	ldh	r2,-20(fp)
    3390:	1000010e 	bge	r2,zero,3398 <getCoins+0x394>
    3394:	108007c4 	addi	r2,r2,31
    3398:	1005d17a 	srai	r2,r2,5
    339c:	10bfffcc 	andi	r2,r2,65535
    33a0:	10a0001c 	xori	r2,r2,32768
    33a4:	10a00004 	addi	r2,r2,-32768
    33a8:	1085883a 	add	r2,r2,r2
    33ac:	1085883a 	add	r2,r2,r2
    33b0:	1885883a 	add	r2,r3,r2
    33b4:	10c00017 	ldw	r3,0(r2)
    33b8:	e0bffb8f 	ldh	r2,-18(fp)
    33bc:	1000010e 	bge	r2,zero,33c4 <getCoins+0x3c0>
    33c0:	108007c4 	addi	r2,r2,31
    33c4:	1005d17a 	srai	r2,r2,5
    33c8:	10bfffcc 	andi	r2,r2,65535
    33cc:	10a0001c 	xori	r2,r2,32768
    33d0:	10a00004 	addi	r2,r2,-32768
    33d4:	100490fa 	slli	r2,r2,3
    33d8:	1885883a 	add	r2,r3,r2
    33dc:	1080000b 	ldhu	r2,0(r2)
    33e0:	10bfffcc 	andi	r2,r2,65535
    33e4:	10800198 	cmpnei	r2,r2,6
    33e8:	10002a1e 	bne	r2,zero,3494 <getCoins+0x490>
    33ec:	e0800217 	ldw	r2,8(fp)
    33f0:	10c00017 	ldw	r3,0(r2)
    33f4:	e0bffb0f 	ldh	r2,-20(fp)
    33f8:	1000010e 	bge	r2,zero,3400 <getCoins+0x3fc>
    33fc:	108007c4 	addi	r2,r2,31
    3400:	1005d17a 	srai	r2,r2,5
    3404:	10bfffcc 	andi	r2,r2,65535
    3408:	10a0001c 	xori	r2,r2,32768
    340c:	10a00004 	addi	r2,r2,-32768
    3410:	1085883a 	add	r2,r2,r2
    3414:	1085883a 	add	r2,r2,r2
    3418:	1885883a 	add	r2,r3,r2
    341c:	10c00017 	ldw	r3,0(r2)
    3420:	e0bffb8f 	ldh	r2,-18(fp)
    3424:	1000010e 	bge	r2,zero,342c <getCoins+0x428>
    3428:	108007c4 	addi	r2,r2,31
    342c:	1005d17a 	srai	r2,r2,5
    3430:	10bfffcc 	andi	r2,r2,65535
    3434:	10a0001c 	xori	r2,r2,32768
    3438:	10a00004 	addi	r2,r2,-32768
    343c:	100490fa 	slli	r2,r2,3
    3440:	1885883a 	add	r2,r3,r2
    3444:	1000000d 	sth	zero,0(r2)
    3448:	e0bffb0f 	ldh	r2,-20(fp)
    344c:	1000010e 	bge	r2,zero,3454 <getCoins+0x450>
    3450:	108007c4 	addi	r2,r2,31
    3454:	1005d17a 	srai	r2,r2,5
    3458:	10ffffcc 	andi	r3,r2,65535
    345c:	e0bffb8f 	ldh	r2,-18(fp)
    3460:	1000010e 	bge	r2,zero,3468 <getCoins+0x464>
    3464:	108007c4 	addi	r2,r2,31
    3468:	1005d17a 	srai	r2,r2,5
    346c:	113fffcc 	andi	r4,r2,65535
    3470:	e0800217 	ldw	r2,8(fp)
    3474:	d8800015 	stw	r2,0(sp)
    3478:	e1ffff17 	ldw	r7,-4(fp)
    347c:	e1bffe17 	ldw	r6,-8(fp)
    3480:	200b883a 	mov	r5,r4
    3484:	1809883a 	mov	r4,r3
    3488:	0002e5c0 	call	2e5c <deleteCoins>
    348c:	00800044 	movi	r2,1
    3490:	00000106 	br	3498 <getCoins+0x494>
	return 0;
    3494:	0005883a 	mov	r2,zero
}
    3498:	e037883a 	mov	sp,fp
    349c:	dfc00117 	ldw	ra,4(sp)
    34a0:	df000017 	ldw	fp,0(sp)
    34a4:	dec00204 	addi	sp,sp,8
    34a8:	f800283a 	ret

000034ac <UpdateCoins>:

void UpdateCoins(cellXY **head, cellXY **tail, cell***stage){
    34ac:	defff904 	addi	sp,sp,-28
    34b0:	dfc00615 	stw	ra,24(sp)
    34b4:	df000515 	stw	fp,20(sp)
    34b8:	df000504 	addi	fp,sp,20
    34bc:	e13ffd15 	stw	r4,-12(fp)
    34c0:	e17ffe15 	stw	r5,-8(fp)
    34c4:	e1bfff15 	stw	r6,-4(fp)
	if(*head == NULL){return;}
    34c8:	e0bffd17 	ldw	r2,-12(fp)
    34cc:	10800017 	ldw	r2,0(r2)
    34d0:	10004626 	beq	r2,zero,35ec <UpdateCoins+0x140>
	//printf("Seem the coin list is not empty\n");
	cellXY *temp = *head;
    34d4:	e0bffd17 	ldw	r2,-12(fp)
    34d8:	10800017 	ldw	r2,0(r2)
    34dc:	e0bffb15 	stw	r2,-20(fp)
	while(temp!=NULL){
    34e0:	00003f06 	br	35e0 <UpdateCoins+0x134>
		unsigned short int X = temp->X;
    34e4:	e0bffb17 	ldw	r2,-20(fp)
    34e8:	1080000b 	ldhu	r2,0(r2)
    34ec:	e0bffc0d 	sth	r2,-16(fp)
		unsigned short int Y = temp->Y;
    34f0:	e0bffb17 	ldw	r2,-20(fp)
    34f4:	1080008b 	ldhu	r2,2(r2)
    34f8:	e0bffc8d 	sth	r2,-14(fp)
		if((*stage)[X][Y].ptr->counter%10!=0){
    34fc:	e0bfff17 	ldw	r2,-4(fp)
    3500:	10c00017 	ldw	r3,0(r2)
    3504:	e0bffc0b 	ldhu	r2,-16(fp)
    3508:	1085883a 	add	r2,r2,r2
    350c:	1085883a 	add	r2,r2,r2
    3510:	1885883a 	add	r2,r3,r2
    3514:	10c00017 	ldw	r3,0(r2)
    3518:	e0bffc8b 	ldhu	r2,-14(fp)
    351c:	100490fa 	slli	r2,r2,3
    3520:	1885883a 	add	r2,r3,r2
    3524:	10800117 	ldw	r2,4(r2)
    3528:	10800017 	ldw	r2,0(r2)
    352c:	01400284 	movi	r5,10
    3530:	1009883a 	mov	r4,r2
    3534:	000c6340 	call	c634 <__umodsi3>
    3538:	10001226 	beq	r2,zero,3584 <UpdateCoins+0xd8>
			temp = temp->next;
    353c:	e0bffb17 	ldw	r2,-20(fp)
    3540:	10800217 	ldw	r2,8(r2)
    3544:	e0bffb15 	stw	r2,-20(fp)
			(*stage)[X][Y].ptr->counter++;
    3548:	e0bfff17 	ldw	r2,-4(fp)
    354c:	10c00017 	ldw	r3,0(r2)
    3550:	e0bffc0b 	ldhu	r2,-16(fp)
    3554:	1085883a 	add	r2,r2,r2
    3558:	1085883a 	add	r2,r2,r2
    355c:	1885883a 	add	r2,r3,r2
    3560:	10c00017 	ldw	r3,0(r2)
    3564:	e0bffc8b 	ldhu	r2,-14(fp)
    3568:	100490fa 	slli	r2,r2,3
    356c:	1885883a 	add	r2,r3,r2
    3570:	10800117 	ldw	r2,4(r2)
    3574:	10c00017 	ldw	r3,0(r2)
    3578:	18c00044 	addi	r3,r3,1
    357c:	10c00015 	stw	r3,0(r2)
			continue;
    3580:	00001706 	br	35e0 <UpdateCoins+0x134>
		}
		cleanCoin(X,Y);
    3584:	e0bffc0b 	ldhu	r2,-16(fp)
    3588:	e0fffc8b 	ldhu	r3,-14(fp)
    358c:	180b883a 	mov	r5,r3
    3590:	1009883a 	mov	r4,r2
    3594:	000814c0 	call	814c <cleanCoin>
		drawCoin(X, Y, ((*stage)[X][Y]).ptr);
    3598:	e13ffc0b 	ldhu	r4,-16(fp)
    359c:	e17ffc8b 	ldhu	r5,-14(fp)
    35a0:	e0bfff17 	ldw	r2,-4(fp)
    35a4:	10c00017 	ldw	r3,0(r2)
    35a8:	e0bffc0b 	ldhu	r2,-16(fp)
    35ac:	1085883a 	add	r2,r2,r2
    35b0:	1085883a 	add	r2,r2,r2
    35b4:	1885883a 	add	r2,r3,r2
    35b8:	10c00017 	ldw	r3,0(r2)
    35bc:	e0bffc8b 	ldhu	r2,-14(fp)
    35c0:	100490fa 	slli	r2,r2,3
    35c4:	1885883a 	add	r2,r3,r2
    35c8:	10800117 	ldw	r2,4(r2)
    35cc:	100d883a 	mov	r6,r2
    35d0:	0007e940 	call	7e94 <drawCoin>
		temp = temp->next;
    35d4:	e0bffb17 	ldw	r2,-20(fp)
    35d8:	10800217 	ldw	r2,8(r2)
    35dc:	e0bffb15 	stw	r2,-20(fp)

void UpdateCoins(cellXY **head, cellXY **tail, cell***stage){
	if(*head == NULL){return;}
	//printf("Seem the coin list is not empty\n");
	cellXY *temp = *head;
	while(temp!=NULL){
    35e0:	e0bffb17 	ldw	r2,-20(fp)
    35e4:	103fbf1e 	bne	r2,zero,34e4 <__alt_data_end+0xf80034e4>
    35e8:	00000106 	br	35f0 <UpdateCoins+0x144>
	if((*stage)[Ax1/32][Ay1/32].type==6){(*stage)[Ax1/32][Ay1/32].type = 0;deleteCoins(Ax1/32, Ay1/32, head, tail, stage);return 1;}
	return 0;
}

void UpdateCoins(cellXY **head, cellXY **tail, cell***stage){
	if(*head == NULL){return;}
    35ec:	0001883a 	nop
		}
		cleanCoin(X,Y);
		drawCoin(X, Y, ((*stage)[X][Y]).ptr);
		temp = temp->next;
	}
}
    35f0:	e037883a 	mov	sp,fp
    35f4:	dfc00117 	ldw	ra,4(sp)
    35f8:	df000017 	ldw	fp,0(sp)
    35fc:	dec00204 	addi	sp,sp,8
    3600:	f800283a 	ret

00003604 <draw_driver>:
//     starting x on screen, starting y on screen
//     sheet index 0(0004B000), 1(00070800), 2, 3)
//    x and y belongs to [640, 480]
int draw_driver(	unsigned int Sx, unsigned int Sy, unsigned int Ex,
					unsigned int Ey, unsigned int Tx, unsigned int Ty,
					unsigned int Mem_index){
    3604:	defff704 	addi	sp,sp,-36
    3608:	dfc00815 	stw	ra,32(sp)
    360c:	df000715 	stw	fp,28(sp)
    3610:	df000704 	addi	fp,sp,28
    3614:	e13ffc15 	stw	r4,-16(fp)
    3618:	e17ffd15 	stw	r5,-12(fp)
    361c:	e1bffe15 	stw	r6,-8(fp)
    3620:	e1ffff15 	stw	r7,-4(fp)

	unsigned int Mem_index1 = Mem_index >> 2;
    3624:	e0800417 	ldw	r2,16(fp)
    3628:	1004d0ba 	srli	r2,r2,2
    362c:	e0bff915 	stw	r2,-28(fp)


	unsigned int Hex1 = (Mem_index1 << 30) + (Sx << 20) + (Sy << 10) + (Ex);
    3630:	e0bff917 	ldw	r2,-28(fp)
    3634:	100697ba 	slli	r3,r2,30
    3638:	e0bffc17 	ldw	r2,-16(fp)
    363c:	1004953a 	slli	r2,r2,20
    3640:	1887883a 	add	r3,r3,r2
    3644:	e0bffd17 	ldw	r2,-12(fp)
    3648:	100492ba 	slli	r2,r2,10
    364c:	1887883a 	add	r3,r3,r2
    3650:	e0bffe17 	ldw	r2,-8(fp)
    3654:	1885883a 	add	r2,r3,r2
    3658:	e0bffa15 	stw	r2,-24(fp)
	unsigned int Hex0 = (Mem_index << 30) +(Ey << 20) + (Tx << 10) + (Ty);
    365c:	e0800417 	ldw	r2,16(fp)
    3660:	100697ba 	slli	r3,r2,30
    3664:	e0bfff17 	ldw	r2,-4(fp)
    3668:	1004953a 	slli	r2,r2,20
    366c:	1887883a 	add	r3,r3,r2
    3670:	e0800217 	ldw	r2,8(fp)
    3674:	100492ba 	slli	r2,r2,10
    3678:	1887883a 	add	r3,r3,r2
    367c:	e0800317 	ldw	r2,12(fp)
    3680:	1885883a 	add	r2,r3,r2
    3684:	e0bffb15 	stw	r2,-20(fp)

	//If Blitter Buffer is full, return error
	if(BI[16] == 0xff){
    3688:	d0a00417 	ldw	r2,-32752(gp)
    368c:	10801004 	addi	r2,r2,64
    3690:	10800017 	ldw	r2,0(r2)
    3694:	10803fd8 	cmpnei	r2,r2,255
    3698:	1000051e 	bne	r2,zero,36b0 <draw_driver+0xac>
		printf("Buffer Full");
    369c:	010000b4 	movhi	r4,2
    36a0:	2131ef04 	addi	r4,r4,-14404
    36a4:	000e4980 	call	e498 <printf>
		return -1;
    36a8:	00bfffc4 	movi	r2,-1
    36ac:	00001206 	br	36f8 <draw_driver+0xf4>
	}

	//If still have space:
	BI[2*BI_counter] = Hex1;
    36b0:	d0e00417 	ldw	r3,-32752(gp)
    36b4:	d0a6f817 	ldw	r2,-25632(gp)
    36b8:	100490fa 	slli	r2,r2,3
    36bc:	1885883a 	add	r2,r3,r2
    36c0:	e0fffa17 	ldw	r3,-24(fp)
    36c4:	10c00015 	stw	r3,0(r2)
	BI[2*BI_counter + 1] = Hex0;
    36c8:	d0e00417 	ldw	r3,-32752(gp)
    36cc:	d0a6f817 	ldw	r2,-25632(gp)
    36d0:	100490fa 	slli	r2,r2,3
    36d4:	10800104 	addi	r2,r2,4
    36d8:	1885883a 	add	r2,r3,r2
    36dc:	e0fffb17 	ldw	r3,-20(fp)
    36e0:	10c00015 	stw	r3,0(r2)

	BI_counter = (BI_counter + 1) % 8;
    36e4:	d0a6f817 	ldw	r2,-25632(gp)
    36e8:	10800044 	addi	r2,r2,1
    36ec:	108001cc 	andi	r2,r2,7
    36f0:	d0a6f815 	stw	r2,-25632(gp)


	return 0;
    36f4:	0005883a 	mov	r2,zero
}
    36f8:	e037883a 	mov	sp,fp
    36fc:	dfc00117 	ldw	ra,4(sp)
    3700:	df000017 	ldw	fp,0(sp)
    3704:	dec00204 	addi	sp,sp,8
    3708:	f800283a 	ret

0000370c <draw_driver_init>:

int draw_driver_init(){
    370c:	defffd04 	addi	sp,sp,-12
    3710:	dfc00215 	stw	ra,8(sp)
    3714:	df000115 	stw	fp,4(sp)
    3718:	df000104 	addi	fp,sp,4
	BI[31] = 0xff;
    371c:	d0a00417 	ldw	r2,-32752(gp)
    3720:	10801f04 	addi	r2,r2,124
    3724:	00c03fc4 	movi	r3,255
    3728:	10c00015 	stw	r3,0(r2)

	//Detect Data Initialization
	for (int i = 0; i <8;i++){
    372c:	e03fff15 	stw	zero,-4(fp)
    3730:	00002106 	br	37b8 <draw_driver_init+0xac>
		if (BI[2*i] != 0x0){
    3734:	d0a00417 	ldw	r2,-32752(gp)
    3738:	e0ffff17 	ldw	r3,-4(fp)
    373c:	180690fa 	slli	r3,r3,3
    3740:	10c5883a 	add	r2,r2,r3
    3744:	10800017 	ldw	r2,0(r2)
    3748:	10000826 	beq	r2,zero,376c <draw_driver_init+0x60>
			printf("Data register %i cannot be initialized\n", 2*i);
    374c:	e0bfff17 	ldw	r2,-4(fp)
    3750:	1085883a 	add	r2,r2,r2
    3754:	100b883a 	mov	r5,r2
    3758:	010000b4 	movhi	r4,2
    375c:	2131f204 	addi	r4,r4,-14392
    3760:	000e4980 	call	e498 <printf>
			return -1;
    3764:	00bfffc4 	movi	r2,-1
    3768:	00002a06 	br	3814 <draw_driver_init+0x108>
		}
		else if(BI[2*i+1] != 0x0){
    376c:	d0e00417 	ldw	r3,-32752(gp)
    3770:	e0bfff17 	ldw	r2,-4(fp)
    3774:	100490fa 	slli	r2,r2,3
    3778:	10800104 	addi	r2,r2,4
    377c:	1885883a 	add	r2,r3,r2
    3780:	10800017 	ldw	r2,0(r2)
    3784:	10000926 	beq	r2,zero,37ac <draw_driver_init+0xa0>
			printf("Data register %i cannot be initialized\n", 2*i+1);
    3788:	e0bfff17 	ldw	r2,-4(fp)
    378c:	1085883a 	add	r2,r2,r2
    3790:	10800044 	addi	r2,r2,1
    3794:	100b883a 	mov	r5,r2
    3798:	010000b4 	movhi	r4,2
    379c:	2131f204 	addi	r4,r4,-14392
    37a0:	000e4980 	call	e498 <printf>
			return -1;
    37a4:	00bfffc4 	movi	r2,-1
    37a8:	00001a06 	br	3814 <draw_driver_init+0x108>

int draw_driver_init(){
	BI[31] = 0xff;

	//Detect Data Initialization
	for (int i = 0; i <8;i++){
    37ac:	e0bfff17 	ldw	r2,-4(fp)
    37b0:	10800044 	addi	r2,r2,1
    37b4:	e0bfff15 	stw	r2,-4(fp)
    37b8:	e0bfff17 	ldw	r2,-4(fp)
    37bc:	10800210 	cmplti	r2,r2,8
    37c0:	103fdc1e 	bne	r2,zero,3734 <__alt_data_end+0xf8003734>
			printf("Data register %i cannot be initialized\n", 2*i+1);
			return -1;
		}
	}

	printf("Data register initialization successful\n");
    37c4:	010000b4 	movhi	r4,2
    37c8:	2131fc04 	addi	r4,r4,-14352
    37cc:	000e5940 	call	e594 <puts>

	//Detect Status Initialization
	if (BI[16] != 0x0){
    37d0:	d0a00417 	ldw	r2,-32752(gp)
    37d4:	10801004 	addi	r2,r2,64
    37d8:	10800017 	ldw	r2,0(r2)
    37dc:	10000926 	beq	r2,zero,3804 <draw_driver_init+0xf8>
		printf("Status register cannot be initialized, the content is %02x\n", BI[16]);
    37e0:	d0a00417 	ldw	r2,-32752(gp)
    37e4:	10801004 	addi	r2,r2,64
    37e8:	10800017 	ldw	r2,0(r2)
    37ec:	100b883a 	mov	r5,r2
    37f0:	010000b4 	movhi	r4,2
    37f4:	21320604 	addi	r4,r4,-14312
    37f8:	000e4980 	call	e498 <printf>
		return -1;
    37fc:	00bfffc4 	movi	r2,-1
    3800:	00000406 	br	3814 <draw_driver_init+0x108>
	}
	else
		printf("Status register initialization successful!\n");
    3804:	010000b4 	movhi	r4,2
    3808:	21321504 	addi	r4,r4,-14252
    380c:	000e5940 	call	e594 <puts>

	return 0;
    3810:	0005883a 	mov	r2,zero

}
    3814:	e037883a 	mov	sp,fp
    3818:	dfc00117 	ldw	ra,4(sp)
    381c:	df000017 	ldw	fp,0(sp)
    3820:	dec00204 	addi	sp,sp,8
    3824:	f800283a 	ret

00003828 <draw_driver_speed>:


int draw_driver_speed(){
    3828:	deffff04 	addi	sp,sp,-4
    382c:	df000015 	stw	fp,0(sp)
    3830:	d839883a 	mov	fp,sp
	//BI = 0x1111 => full
	return BI[16];
    3834:	d0a00417 	ldw	r2,-32752(gp)
    3838:	10801004 	addi	r2,r2,64
    383c:	10800017 	ldw	r2,0(r2)
}
    3840:	e037883a 	mov	sp,fp
    3844:	df000017 	ldw	fp,0(sp)
    3848:	dec00104 	addi	sp,sp,4
    384c:	f800283a 	ret

00003850 <delay>:



//very good function
void delay(int milli_seconds)
{
    3850:	defffc04 	addi	sp,sp,-16
    3854:	dfc00315 	stw	ra,12(sp)
    3858:	df000215 	stw	fp,8(sp)
    385c:	df000204 	addi	fp,sp,8
    3860:	e13fff15 	stw	r4,-4(fp)
    // Converting time into milli_seconds
//    int milli_seconds = 1000 * number_of_seconds;

    // Stroing start time
    clock_t start_time = clock();
    3864:	000dbe80 	call	dbe8 <clock>
    3868:	e0bffe15 	stw	r2,-8(fp)

    // looping till required time is not acheived
    while (clock() < start_time + milli_seconds);
    386c:	0001883a 	nop
    3870:	000dbe80 	call	dbe8 <clock>
    3874:	1009883a 	mov	r4,r2
    3878:	e0ffff17 	ldw	r3,-4(fp)
    387c:	e0bffe17 	ldw	r2,-8(fp)
    3880:	1885883a 	add	r2,r3,r2
    3884:	20bffa36 	bltu	r4,r2,3870 <__alt_data_end+0xf8003870>
}
    3888:	0001883a 	nop
    388c:	e037883a 	mov	sp,fp
    3890:	dfc00117 	ldw	ra,4(sp)
    3894:	df000017 	ldw	fp,0(sp)
    3898:	dec00204 	addi	sp,sp,8
    389c:	f800283a 	ret

000038a0 <cleanCell>:
#include "./header_file/drawing.h"

//notice that X and Y corresponds to cell index not pixel index
void cleanCell(unsigned short int X, unsigned short int Y){
    38a0:	defff904 	addi	sp,sp,-28
    38a4:	dfc00615 	stw	ra,24(sp)
    38a8:	df000515 	stw	fp,20(sp)
    38ac:	df000504 	addi	fp,sp,20
    38b0:	2007883a 	mov	r3,r4
    38b4:	2805883a 	mov	r2,r5
    38b8:	e0fffe0d 	sth	r3,-8(fp)
    38bc:	e0bfff0d 	sth	r2,-4(fp)
	draw_driver(X*32, Y*32, X*32+31, Y*32+31, X*32, Y*32,0);
    38c0:	e0bffe0b 	ldhu	r2,-8(fp)
    38c4:	1004917a 	slli	r2,r2,5
    38c8:	1009883a 	mov	r4,r2
    38cc:	e0bfff0b 	ldhu	r2,-4(fp)
    38d0:	1004917a 	slli	r2,r2,5
    38d4:	100b883a 	mov	r5,r2
    38d8:	e0bffe0b 	ldhu	r2,-8(fp)
    38dc:	1004917a 	slli	r2,r2,5
    38e0:	108007c4 	addi	r2,r2,31
    38e4:	100d883a 	mov	r6,r2
    38e8:	e0bfff0b 	ldhu	r2,-4(fp)
    38ec:	1004917a 	slli	r2,r2,5
    38f0:	108007c4 	addi	r2,r2,31
    38f4:	100f883a 	mov	r7,r2
    38f8:	e0bffe0b 	ldhu	r2,-8(fp)
    38fc:	1004917a 	slli	r2,r2,5
    3900:	1007883a 	mov	r3,r2
    3904:	e0bfff0b 	ldhu	r2,-4(fp)
    3908:	1004917a 	slli	r2,r2,5
    390c:	d8000215 	stw	zero,8(sp)
    3910:	d8800115 	stw	r2,4(sp)
    3914:	d8c00015 	stw	r3,0(sp)
    3918:	00036040 	call	3604 <draw_driver>
}
    391c:	0001883a 	nop
    3920:	e037883a 	mov	sp,fp
    3924:	dfc00117 	ldw	ra,4(sp)
    3928:	df000017 	ldw	fp,0(sp)
    392c:	dec00204 	addi	sp,sp,8
    3930:	f800283a 	ret

00003934 <drawSolidWall>:

void drawSolidWall(unsigned short int X, unsigned short int Y, cell **stage){
    3934:	defff804 	addi	sp,sp,-32
    3938:	dfc00715 	stw	ra,28(sp)
    393c:	df000615 	stw	fp,24(sp)
    3940:	df000604 	addi	fp,sp,24
    3944:	2007883a 	mov	r3,r4
    3948:	2805883a 	mov	r2,r5
    394c:	e1bfff15 	stw	r6,-4(fp)
    3950:	e0fffd0d 	sth	r3,-12(fp)
    3954:	e0bffe0d 	sth	r2,-8(fp)
	draw_driver(solid_wall_x0, solid_wall_y0, solid_wall_x1, solid_wall_y1, X*32, Y*32,1);
    3958:	e0bffd0b 	ldhu	r2,-12(fp)
    395c:	1004917a 	slli	r2,r2,5
    3960:	1007883a 	mov	r3,r2
    3964:	e0bffe0b 	ldhu	r2,-8(fp)
    3968:	1004917a 	slli	r2,r2,5
    396c:	1009883a 	mov	r4,r2
    3970:	00800044 	movi	r2,1
    3974:	d8800215 	stw	r2,8(sp)
    3978:	d9000115 	stw	r4,4(sp)
    397c:	d8c00015 	stw	r3,0(sp)
    3980:	01c020c4 	movi	r7,131
    3984:	01801484 	movi	r6,82
    3988:	01401904 	movi	r5,100
    398c:	01000cc4 	movi	r4,51
    3990:	00036040 	call	3604 <draw_driver>
	stage[X][Y].type = 1;
    3994:	e0bffd0b 	ldhu	r2,-12(fp)
    3998:	1085883a 	add	r2,r2,r2
    399c:	1085883a 	add	r2,r2,r2
    39a0:	1007883a 	mov	r3,r2
    39a4:	e0bfff17 	ldw	r2,-4(fp)
    39a8:	10c5883a 	add	r2,r2,r3
    39ac:	10c00017 	ldw	r3,0(r2)
    39b0:	e0bffe0b 	ldhu	r2,-8(fp)
    39b4:	100490fa 	slli	r2,r2,3
    39b8:	1885883a 	add	r2,r3,r2
    39bc:	00c00044 	movi	r3,1
    39c0:	10c0000d 	sth	r3,0(r2)

}
    39c4:	0001883a 	nop
    39c8:	e037883a 	mov	sp,fp
    39cc:	dfc00117 	ldw	ra,4(sp)
    39d0:	df000017 	ldw	fp,0(sp)
    39d4:	dec00204 	addi	sp,sp,8
    39d8:	f800283a 	ret

000039dc <drawSoftWall>:


void drawSoftWall(unsigned short int X, unsigned short int Y, cell **stage){
    39dc:	defff804 	addi	sp,sp,-32
    39e0:	dfc00715 	stw	ra,28(sp)
    39e4:	df000615 	stw	fp,24(sp)
    39e8:	df000604 	addi	fp,sp,24
    39ec:	2007883a 	mov	r3,r4
    39f0:	2805883a 	mov	r2,r5
    39f4:	e1bfff15 	stw	r6,-4(fp)
    39f8:	e0fffd0d 	sth	r3,-12(fp)
    39fc:	e0bffe0d 	sth	r2,-8(fp)
	draw_driver(soft_wall_x0, soft_wall_y0, soft_wall_x1, soft_wall_y1, X*32, Y*32, 1);
    3a00:	e0bffd0b 	ldhu	r2,-12(fp)
    3a04:	1004917a 	slli	r2,r2,5
    3a08:	1007883a 	mov	r3,r2
    3a0c:	e0bffe0b 	ldhu	r2,-8(fp)
    3a10:	1004917a 	slli	r2,r2,5
    3a14:	1009883a 	mov	r4,r2
    3a18:	00800044 	movi	r2,1
    3a1c:	d8800215 	stw	r2,8(sp)
    3a20:	d9000115 	stw	r4,4(sp)
    3a24:	d8c00015 	stw	r3,0(sp)
    3a28:	01c02d44 	movi	r7,181
    3a2c:	01801484 	movi	r6,82
    3a30:	01402584 	movi	r5,150
    3a34:	01000cc4 	movi	r4,51
    3a38:	00036040 	call	3604 <draw_driver>
	stage[X][Y].type = 2;
    3a3c:	e0bffd0b 	ldhu	r2,-12(fp)
    3a40:	1085883a 	add	r2,r2,r2
    3a44:	1085883a 	add	r2,r2,r2
    3a48:	1007883a 	mov	r3,r2
    3a4c:	e0bfff17 	ldw	r2,-4(fp)
    3a50:	10c5883a 	add	r2,r2,r3
    3a54:	10c00017 	ldw	r3,0(r2)
    3a58:	e0bffe0b 	ldhu	r2,-8(fp)
    3a5c:	100490fa 	slli	r2,r2,3
    3a60:	1885883a 	add	r2,r3,r2
    3a64:	00c00084 	movi	r3,2
    3a68:	10c0000d 	sth	r3,0(r2)
}
    3a6c:	0001883a 	nop
    3a70:	e037883a 	mov	sp,fp
    3a74:	dfc00117 	ldw	ra,4(sp)
    3a78:	df000017 	ldw	fp,0(sp)
    3a7c:	dec00204 	addi	sp,sp,8
    3a80:	f800283a 	ret

00003a84 <cleanPlayer>:


void cleanPlayer(player *player1){
    3a84:	defffa04 	addi	sp,sp,-24
    3a88:	dfc00515 	stw	ra,20(sp)
    3a8c:	df000415 	stw	fp,16(sp)
    3a90:	df000404 	addi	fp,sp,16
    3a94:	e13fff15 	stw	r4,-4(fp)
	if(player1->moveCounter==100){player1->moveCounter=0;}
    3a98:	e0bfff17 	ldw	r2,-4(fp)
    3a9c:	1080078b 	ldhu	r2,30(r2)
    3aa0:	10bfffcc 	andi	r2,r2,65535
    3aa4:	10801918 	cmpnei	r2,r2,100
    3aa8:	1000031e 	bne	r2,zero,3ab8 <cleanPlayer+0x34>
    3aac:	e0bfff17 	ldw	r2,-4(fp)
    3ab0:	1000078d 	sth	zero,30(r2)
    3ab4:	00000606 	br	3ad0 <cleanPlayer+0x4c>
	else{player1->moveCounter++;}
    3ab8:	e0bfff17 	ldw	r2,-4(fp)
    3abc:	1080078b 	ldhu	r2,30(r2)
    3ac0:	10800044 	addi	r2,r2,1
    3ac4:	1007883a 	mov	r3,r2
    3ac8:	e0bfff17 	ldw	r2,-4(fp)
    3acc:	10c0078d 	sth	r3,30(r2)
	draw_driver(player1->x, player1->y, player1->x+25, player1->y+25, player1->x, player1->y, 0);
    3ad0:	e0bfff17 	ldw	r2,-4(fp)
    3ad4:	1080008b 	ldhu	r2,2(r2)
    3ad8:	113fffcc 	andi	r4,r2,65535
    3adc:	e0bfff17 	ldw	r2,-4(fp)
    3ae0:	1080010b 	ldhu	r2,4(r2)
    3ae4:	117fffcc 	andi	r5,r2,65535
    3ae8:	e0bfff17 	ldw	r2,-4(fp)
    3aec:	1080008b 	ldhu	r2,2(r2)
    3af0:	10bfffcc 	andi	r2,r2,65535
    3af4:	10800644 	addi	r2,r2,25
    3af8:	100d883a 	mov	r6,r2
    3afc:	e0bfff17 	ldw	r2,-4(fp)
    3b00:	1080010b 	ldhu	r2,4(r2)
    3b04:	10bfffcc 	andi	r2,r2,65535
    3b08:	10800644 	addi	r2,r2,25
    3b0c:	100f883a 	mov	r7,r2
    3b10:	e0bfff17 	ldw	r2,-4(fp)
    3b14:	1080008b 	ldhu	r2,2(r2)
    3b18:	10bfffcc 	andi	r2,r2,65535
    3b1c:	e0ffff17 	ldw	r3,-4(fp)
    3b20:	18c0010b 	ldhu	r3,4(r3)
    3b24:	18ffffcc 	andi	r3,r3,65535
    3b28:	d8000215 	stw	zero,8(sp)
    3b2c:	d8c00115 	stw	r3,4(sp)
    3b30:	d8800015 	stw	r2,0(sp)
    3b34:	00036040 	call	3604 <draw_driver>
}
    3b38:	0001883a 	nop
    3b3c:	e037883a 	mov	sp,fp
    3b40:	dfc00117 	ldw	ra,4(sp)
    3b44:	df000017 	ldw	fp,0(sp)
    3b48:	dec00204 	addi	sp,sp,8
    3b4c:	f800283a 	ret

00003b50 <drawPlayer>:

void drawPlayer(unsigned short int dir, player *player1, unsigned short int moving){
    3b50:	defff704 	addi	sp,sp,-36
    3b54:	dfc00815 	stw	ra,32(sp)
    3b58:	df000715 	stw	fp,28(sp)
    3b5c:	df000704 	addi	fp,sp,28
    3b60:	2007883a 	mov	r3,r4
    3b64:	e17ffe15 	stw	r5,-8(fp)
    3b68:	3005883a 	mov	r2,r6
    3b6c:	e0fffd0d 	sth	r3,-12(fp)
    3b70:	e0bfff0d 	sth	r2,-4(fp)
	unsigned short int index = player1->index;
    3b74:	e0bffe17 	ldw	r2,-8(fp)
    3b78:	1080000b 	ldhu	r2,0(r2)
    3b7c:	e0bffc0d 	sth	r2,-16(fp)
	if(moving == 1){
    3b80:	e0bfff0b 	ldhu	r2,-4(fp)
    3b84:	10800058 	cmpnei	r2,r2,1
    3b88:	1001401e 	bne	r2,zero,408c <drawPlayer+0x53c>
		if(index == 0){
    3b8c:	e0bffc0b 	ldhu	r2,-16(fp)
    3b90:	10009f1e 	bne	r2,zero,3e10 <drawPlayer+0x2c0>
		     if(player1->moveCounter<50){
    3b94:	e0bffe17 	ldw	r2,-8(fp)
    3b98:	1080078b 	ldhu	r2,30(r2)
    3b9c:	10bfffcc 	andi	r2,r2,65535
    3ba0:	10800ca8 	cmpgeui	r2,r2,50
    3ba4:	10004d1e 	bne	r2,zero,3cdc <drawPlayer+0x18c>
				switch(dir){
    3ba8:	e0bffd0b 	ldhu	r2,-12(fp)
    3bac:	10c00060 	cmpeqi	r3,r2,1
    3bb0:	1800191e 	bne	r3,zero,3c18 <drawPlayer+0xc8>
    3bb4:	10c00088 	cmpgei	r3,r2,2
    3bb8:	1800021e 	bne	r3,zero,3bc4 <drawPlayer+0x74>
    3bbc:	10000626 	beq	r2,zero,3bd8 <drawPlayer+0x88>
					draw_driver(player2_right0_x0, player2_right0_y0, player2_right0_x1, player2_right0_y1, player1->x, player1->y, 1);
					break;
			}
		}
	}
}
    3bc0:	0001cd06 	br	42f8 <drawPlayer+0x7a8>
void drawPlayer(unsigned short int dir, player *player1, unsigned short int moving){
	unsigned short int index = player1->index;
	if(moving == 1){
		if(index == 0){
		     if(player1->moveCounter<50){
				switch(dir){
    3bc4:	10c000a0 	cmpeqi	r3,r2,2
    3bc8:	1800231e 	bne	r3,zero,3c58 <drawPlayer+0x108>
    3bcc:	108000e0 	cmpeqi	r2,r2,3
    3bd0:	1000311e 	bne	r2,zero,3c98 <drawPlayer+0x148>
					draw_driver(player2_right0_x0, player2_right0_y0, player2_right0_x1, player2_right0_y1, player1->x, player1->y, 1);
					break;
			}
		}
	}
}
    3bd4:	0001c806 	br	42f8 <drawPlayer+0x7a8>
	if(moving == 1){
		if(index == 0){
		     if(player1->moveCounter<50){
				switch(dir){
					case 0:
						draw_driver(player1_back1_x0, player1_back1_y0, player1_back1_x1, player1_back1_y1, player1->x, player1->y, 1);
    3bd8:	e0bffe17 	ldw	r2,-8(fp)
    3bdc:	1080008b 	ldhu	r2,2(r2)
    3be0:	10bfffcc 	andi	r2,r2,65535
    3be4:	e0fffe17 	ldw	r3,-8(fp)
    3be8:	18c0010b 	ldhu	r3,4(r3)
    3bec:	18ffffcc 	andi	r3,r3,65535
    3bf0:	01000044 	movi	r4,1
    3bf4:	d9000215 	stw	r4,8(sp)
    3bf8:	d8c00115 	stw	r3,4(sp)
    3bfc:	d8800015 	stw	r2,0(sp)
    3c00:	01c05704 	movi	r7,348
    3c04:	018051c4 	movi	r6,327
    3c08:	014050c4 	movi	r5,323
    3c0c:	01004b84 	movi	r4,302
    3c10:	00036040 	call	3604 <draw_driver>
						break;
    3c14:	0001b806 	br	42f8 <drawPlayer+0x7a8>
					case 1:
						draw_driver(player1_front1_x0, player1_front1_y0, player1_front1_x1, player1_front1_y1, player1->x, player1->y, 1);
    3c18:	e0bffe17 	ldw	r2,-8(fp)
    3c1c:	1080008b 	ldhu	r2,2(r2)
    3c20:	10bfffcc 	andi	r2,r2,65535
    3c24:	e0fffe17 	ldw	r3,-8(fp)
    3c28:	18c0010b 	ldhu	r3,4(r3)
    3c2c:	18ffffcc 	andi	r3,r3,65535
    3c30:	01000044 	movi	r4,1
    3c34:	d9000215 	stw	r4,8(sp)
    3c38:	d8c00115 	stw	r3,4(sp)
    3c3c:	d8800015 	stw	r2,0(sp)
    3c40:	01c00f04 	movi	r7,60
    3c44:	01805244 	movi	r6,329
    3c48:	014008c4 	movi	r5,35
    3c4c:	01004c04 	movi	r4,304
    3c50:	00036040 	call	3604 <draw_driver>
						break;
    3c54:	0001a806 	br	42f8 <drawPlayer+0x7a8>
					case 2:
						draw_driver(player1_left1_x0, player1_left1_y0, player1_left1_x1, player1_left1_y1, player1->x, player1->y, 1);
    3c58:	e0bffe17 	ldw	r2,-8(fp)
    3c5c:	1080008b 	ldhu	r2,2(r2)
    3c60:	10bfffcc 	andi	r2,r2,65535
    3c64:	e0fffe17 	ldw	r3,-8(fp)
    3c68:	18c0010b 	ldhu	r3,4(r3)
    3c6c:	18ffffcc 	andi	r3,r3,65535
    3c70:	01000044 	movi	r4,1
    3c74:	d9000215 	stw	r4,8(sp)
    3c78:	d8c00115 	stw	r3,4(sp)
    3c7c:	d8800015 	stw	r2,0(sp)
    3c80:	01c03f04 	movi	r7,252
    3c84:	018051c4 	movi	r6,327
    3c88:	014038c4 	movi	r5,227
    3c8c:	01004b84 	movi	r4,302
    3c90:	00036040 	call	3604 <draw_driver>
						break;
    3c94:	00019806 	br	42f8 <drawPlayer+0x7a8>
					case 3:
						draw_driver(player1_right1_x0, player1_right1_y0, player1_right1_x1, player1_right1_y1, player1->x, player1->y, 1);
    3c98:	e0bffe17 	ldw	r2,-8(fp)
    3c9c:	1080008b 	ldhu	r2,2(r2)
    3ca0:	10bfffcc 	andi	r2,r2,65535
    3ca4:	e0fffe17 	ldw	r3,-8(fp)
    3ca8:	18c0010b 	ldhu	r3,4(r3)
    3cac:	18ffffcc 	andi	r3,r3,65535
    3cb0:	01000044 	movi	r4,1
    3cb4:	d9000215 	stw	r4,8(sp)
    3cb8:	d8c00115 	stw	r3,4(sp)
    3cbc:	d8800015 	stw	r2,0(sp)
    3cc0:	01c02704 	movi	r7,156
    3cc4:	018051c4 	movi	r6,327
    3cc8:	014020c4 	movi	r5,131
    3ccc:	01004b84 	movi	r4,302
    3cd0:	00036040 	call	3604 <draw_driver>
						break;
    3cd4:	0001883a 	nop
    3cd8:	00018706 	br	42f8 <drawPlayer+0x7a8>
				}
			}
			else{
				switch(dir){
    3cdc:	e0bffd0b 	ldhu	r2,-12(fp)
    3ce0:	10c00060 	cmpeqi	r3,r2,1
    3ce4:	1800191e 	bne	r3,zero,3d4c <drawPlayer+0x1fc>
    3ce8:	10c00088 	cmpgei	r3,r2,2
    3cec:	1800021e 	bne	r3,zero,3cf8 <drawPlayer+0x1a8>
    3cf0:	10000626 	beq	r2,zero,3d0c <drawPlayer+0x1bc>
					draw_driver(player2_right0_x0, player2_right0_y0, player2_right0_x1, player2_right0_y1, player1->x, player1->y, 1);
					break;
			}
		}
	}
}
    3cf4:	00018006 	br	42f8 <drawPlayer+0x7a8>
						draw_driver(player1_right1_x0, player1_right1_y0, player1_right1_x1, player1_right1_y1, player1->x, player1->y, 1);
						break;
				}
			}
			else{
				switch(dir){
    3cf8:	10c000a0 	cmpeqi	r3,r2,2
    3cfc:	1800231e 	bne	r3,zero,3d8c <drawPlayer+0x23c>
    3d00:	108000e0 	cmpeqi	r2,r2,3
    3d04:	1000311e 	bne	r2,zero,3dcc <drawPlayer+0x27c>
					draw_driver(player2_right0_x0, player2_right0_y0, player2_right0_x1, player2_right0_y1, player1->x, player1->y, 1);
					break;
			}
		}
	}
}
    3d08:	00017b06 	br	42f8 <drawPlayer+0x7a8>
				}
			}
			else{
				switch(dir){
					case 0:
						draw_driver(player1_back2_x0, player1_back2_y0, player1_back2_x1, player1_back2_y1, player1->x, player1->y, 1);
    3d0c:	e0bffe17 	ldw	r2,-8(fp)
    3d10:	1080008b 	ldhu	r2,2(r2)
    3d14:	10bfffcc 	andi	r2,r2,65535
    3d18:	e0fffe17 	ldw	r3,-8(fp)
    3d1c:	18c0010b 	ldhu	r3,4(r3)
    3d20:	18ffffcc 	andi	r3,r3,65535
    3d24:	01000044 	movi	r4,1
    3d28:	d9000215 	stw	r4,8(sp)
    3d2c:	d8c00115 	stw	r3,4(sp)
    3d30:	d8800015 	stw	r2,0(sp)
    3d34:	01c05f04 	movi	r7,380
    3d38:	01805244 	movi	r6,329
    3d3c:	014058c4 	movi	r5,355
    3d40:	01004c04 	movi	r4,304
    3d44:	00036040 	call	3604 <draw_driver>
						break;
    3d48:	00016b06 	br	42f8 <drawPlayer+0x7a8>
					case 1:
						draw_driver(player1_front2_x0, player1_front2_y0, player1_front2_x1, player1_front2_y1, player1->x, player1->y, 1);
    3d4c:	e0bffe17 	ldw	r2,-8(fp)
    3d50:	1080008b 	ldhu	r2,2(r2)
    3d54:	10bfffcc 	andi	r2,r2,65535
    3d58:	e0fffe17 	ldw	r3,-8(fp)
    3d5c:	18c0010b 	ldhu	r3,4(r3)
    3d60:	18ffffcc 	andi	r3,r3,65535
    3d64:	01000044 	movi	r4,1
    3d68:	d9000215 	stw	r4,8(sp)
    3d6c:	d8c00115 	stw	r3,4(sp)
    3d70:	d8800015 	stw	r2,0(sp)
    3d74:	01c01704 	movi	r7,92
    3d78:	018051c4 	movi	r6,327
    3d7c:	014010c4 	movi	r5,67
    3d80:	01004b84 	movi	r4,302
    3d84:	00036040 	call	3604 <draw_driver>
						break;
    3d88:	00015b06 	br	42f8 <drawPlayer+0x7a8>
					case 2:
						draw_driver(player1_left2_x0, player1_left2_y0, player1_left2_x1, player1_left2_y1, player1->x, player1->y, 1);
    3d8c:	e0bffe17 	ldw	r2,-8(fp)
    3d90:	1080008b 	ldhu	r2,2(r2)
    3d94:	10bfffcc 	andi	r2,r2,65535
    3d98:	e0fffe17 	ldw	r3,-8(fp)
    3d9c:	18c0010b 	ldhu	r3,4(r3)
    3da0:	18ffffcc 	andi	r3,r3,65535
    3da4:	01000044 	movi	r4,1
    3da8:	d9000215 	stw	r4,8(sp)
    3dac:	d8c00115 	stw	r3,4(sp)
    3db0:	d8800015 	stw	r2,0(sp)
    3db4:	01c04704 	movi	r7,284
    3db8:	018051c4 	movi	r6,327
    3dbc:	014040c4 	movi	r5,259
    3dc0:	01004b84 	movi	r4,302
    3dc4:	00036040 	call	3604 <draw_driver>
						break;
    3dc8:	00014b06 	br	42f8 <drawPlayer+0x7a8>
					case 3:
						draw_driver(player1_right2_x0, player1_right2_y0, player1_right2_x1, player1_right2_y1, player1->x, player1->y, 1);
    3dcc:	e0bffe17 	ldw	r2,-8(fp)
    3dd0:	1080008b 	ldhu	r2,2(r2)
    3dd4:	10bfffcc 	andi	r2,r2,65535
    3dd8:	e0fffe17 	ldw	r3,-8(fp)
    3ddc:	18c0010b 	ldhu	r3,4(r3)
    3de0:	18ffffcc 	andi	r3,r3,65535
    3de4:	01000044 	movi	r4,1
    3de8:	d9000215 	stw	r4,8(sp)
    3dec:	d8c00115 	stw	r3,4(sp)
    3df0:	d8800015 	stw	r2,0(sp)
    3df4:	01c02f04 	movi	r7,188
    3df8:	018051c4 	movi	r6,327
    3dfc:	014028c4 	movi	r5,163
    3e00:	01004b84 	movi	r4,302
    3e04:	00036040 	call	3604 <draw_driver>
						break;
    3e08:	0001883a 	nop
    3e0c:	00013a06 	br	42f8 <drawPlayer+0x7a8>
				}
			}
		}
		else{
		     if(player1->moveCounter<50){
    3e10:	e0bffe17 	ldw	r2,-8(fp)
    3e14:	1080078b 	ldhu	r2,30(r2)
    3e18:	10bfffcc 	andi	r2,r2,65535
    3e1c:	10800ca8 	cmpgeui	r2,r2,50
    3e20:	10004d1e 	bne	r2,zero,3f58 <drawPlayer+0x408>
				switch(dir){
    3e24:	e0bffd0b 	ldhu	r2,-12(fp)
    3e28:	10c00060 	cmpeqi	r3,r2,1
    3e2c:	1800191e 	bne	r3,zero,3e94 <drawPlayer+0x344>
    3e30:	10c00088 	cmpgei	r3,r2,2
    3e34:	1800021e 	bne	r3,zero,3e40 <drawPlayer+0x2f0>
    3e38:	10000626 	beq	r2,zero,3e54 <drawPlayer+0x304>
					draw_driver(player2_right0_x0, player2_right0_y0, player2_right0_x1, player2_right0_y1, player1->x, player1->y, 1);
					break;
			}
		}
	}
}
    3e3c:	00012e06 	br	42f8 <drawPlayer+0x7a8>
				}
			}
		}
		else{
		     if(player1->moveCounter<50){
				switch(dir){
    3e40:	10c000a0 	cmpeqi	r3,r2,2
    3e44:	1800231e 	bne	r3,zero,3ed4 <drawPlayer+0x384>
    3e48:	108000e0 	cmpeqi	r2,r2,3
    3e4c:	1000311e 	bne	r2,zero,3f14 <drawPlayer+0x3c4>
					draw_driver(player2_right0_x0, player2_right0_y0, player2_right0_x1, player2_right0_y1, player1->x, player1->y, 1);
					break;
			}
		}
	}
}
    3e50:	00012906 	br	42f8 <drawPlayer+0x7a8>
		}
		else{
		     if(player1->moveCounter<50){
				switch(dir){
					case 0:
						draw_driver(player2_back1_x0, player2_back1_y0, player2_back1_x1, player2_back1_y1, player1->x, player1->y, 1);
    3e54:	e0bffe17 	ldw	r2,-8(fp)
    3e58:	1080008b 	ldhu	r2,2(r2)
    3e5c:	10bfffcc 	andi	r2,r2,65535
    3e60:	e0fffe17 	ldw	r3,-8(fp)
    3e64:	18c0010b 	ldhu	r3,4(r3)
    3e68:	18ffffcc 	andi	r3,r3,65535
    3e6c:	01000044 	movi	r4,1
    3e70:	d9000215 	stw	r4,8(sp)
    3e74:	d8c00115 	stw	r3,4(sp)
    3e78:	d8800015 	stw	r2,0(sp)
    3e7c:	01c05704 	movi	r7,348
    3e80:	01805a44 	movi	r6,361
    3e84:	014050c4 	movi	r5,323
    3e88:	01005404 	movi	r4,336
    3e8c:	00036040 	call	3604 <draw_driver>
						break;
    3e90:	00011906 	br	42f8 <drawPlayer+0x7a8>
					case 1:
						draw_driver(player2_front1_x0, player2_front1_y0, player2_front1_x1, player2_front1_y1, player1->x, player1->y, 1);
    3e94:	e0bffe17 	ldw	r2,-8(fp)
    3e98:	1080008b 	ldhu	r2,2(r2)
    3e9c:	10bfffcc 	andi	r2,r2,65535
    3ea0:	e0fffe17 	ldw	r3,-8(fp)
    3ea4:	18c0010b 	ldhu	r3,4(r3)
    3ea8:	18ffffcc 	andi	r3,r3,65535
    3eac:	01000044 	movi	r4,1
    3eb0:	d9000215 	stw	r4,8(sp)
    3eb4:	d8c00115 	stw	r3,4(sp)
    3eb8:	d8800015 	stw	r2,0(sp)
    3ebc:	01c00f04 	movi	r7,60
    3ec0:	01805a44 	movi	r6,361
    3ec4:	014008c4 	movi	r5,35
    3ec8:	01005404 	movi	r4,336
    3ecc:	00036040 	call	3604 <draw_driver>
						break;
    3ed0:	00010906 	br	42f8 <drawPlayer+0x7a8>
					case 2:
						draw_driver(player2_left1_x0, player2_left1_y0, player2_left1_x1, player2_left1_y1, player1->x, player1->y, 1);
    3ed4:	e0bffe17 	ldw	r2,-8(fp)
    3ed8:	1080008b 	ldhu	r2,2(r2)
    3edc:	10bfffcc 	andi	r2,r2,65535
    3ee0:	e0fffe17 	ldw	r3,-8(fp)
    3ee4:	18c0010b 	ldhu	r3,4(r3)
    3ee8:	18ffffcc 	andi	r3,r3,65535
    3eec:	01000044 	movi	r4,1
    3ef0:	d9000215 	stw	r4,8(sp)
    3ef4:	d8c00115 	stw	r3,4(sp)
    3ef8:	d8800015 	stw	r2,0(sp)
    3efc:	01c03f04 	movi	r7,252
    3f00:	01805a44 	movi	r6,361
    3f04:	014038c4 	movi	r5,227
    3f08:	01005404 	movi	r4,336
    3f0c:	00036040 	call	3604 <draw_driver>
						break;
    3f10:	0000f906 	br	42f8 <drawPlayer+0x7a8>
					case 3:
						draw_driver(player2_right1_x0, player2_right1_y0, player2_right1_x1, player2_right1_y1, player1->x, player1->y, 1);
    3f14:	e0bffe17 	ldw	r2,-8(fp)
    3f18:	1080008b 	ldhu	r2,2(r2)
    3f1c:	10bfffcc 	andi	r2,r2,65535
    3f20:	e0fffe17 	ldw	r3,-8(fp)
    3f24:	18c0010b 	ldhu	r3,4(r3)
    3f28:	18ffffcc 	andi	r3,r3,65535
    3f2c:	01000044 	movi	r4,1
    3f30:	d9000215 	stw	r4,8(sp)
    3f34:	d8c00115 	stw	r3,4(sp)
    3f38:	d8800015 	stw	r2,0(sp)
    3f3c:	01c02704 	movi	r7,156
    3f40:	01805a44 	movi	r6,361
    3f44:	014020c4 	movi	r5,131
    3f48:	01005404 	movi	r4,336
    3f4c:	00036040 	call	3604 <draw_driver>
						break;
    3f50:	0001883a 	nop
    3f54:	0000e806 	br	42f8 <drawPlayer+0x7a8>
				}
			}
			else{
				switch(dir){
    3f58:	e0bffd0b 	ldhu	r2,-12(fp)
    3f5c:	10c00060 	cmpeqi	r3,r2,1
    3f60:	1800191e 	bne	r3,zero,3fc8 <drawPlayer+0x478>
    3f64:	10c00088 	cmpgei	r3,r2,2
    3f68:	1800021e 	bne	r3,zero,3f74 <drawPlayer+0x424>
    3f6c:	10000626 	beq	r2,zero,3f88 <drawPlayer+0x438>
					draw_driver(player2_right0_x0, player2_right0_y0, player2_right0_x1, player2_right0_y1, player1->x, player1->y, 1);
					break;
			}
		}
	}
}
    3f70:	0000e106 	br	42f8 <drawPlayer+0x7a8>
						draw_driver(player2_right1_x0, player2_right1_y0, player2_right1_x1, player2_right1_y1, player1->x, player1->y, 1);
						break;
				}
			}
			else{
				switch(dir){
    3f74:	10c000a0 	cmpeqi	r3,r2,2
    3f78:	1800231e 	bne	r3,zero,4008 <drawPlayer+0x4b8>
    3f7c:	108000e0 	cmpeqi	r2,r2,3
    3f80:	1000311e 	bne	r2,zero,4048 <drawPlayer+0x4f8>
					draw_driver(player2_right0_x0, player2_right0_y0, player2_right0_x1, player2_right0_y1, player1->x, player1->y, 1);
					break;
			}
		}
	}
}
    3f84:	0000dc06 	br	42f8 <drawPlayer+0x7a8>
				}
			}
			else{
				switch(dir){
					case 0:
						draw_driver(player2_back2_x0, player2_back2_y0, player2_back2_x1, player2_back2_y1, player1->x, player1->y, 1);
    3f88:	e0bffe17 	ldw	r2,-8(fp)
    3f8c:	1080008b 	ldhu	r2,2(r2)
    3f90:	10bfffcc 	andi	r2,r2,65535
    3f94:	e0fffe17 	ldw	r3,-8(fp)
    3f98:	18c0010b 	ldhu	r3,4(r3)
    3f9c:	18ffffcc 	andi	r3,r3,65535
    3fa0:	01000044 	movi	r4,1
    3fa4:	d9000215 	stw	r4,8(sp)
    3fa8:	d8c00115 	stw	r3,4(sp)
    3fac:	d8800015 	stw	r2,0(sp)
    3fb0:	01c05f04 	movi	r7,380
    3fb4:	01805a44 	movi	r6,361
    3fb8:	014058c4 	movi	r5,355
    3fbc:	01005404 	movi	r4,336
    3fc0:	00036040 	call	3604 <draw_driver>
						break;
    3fc4:	0000cc06 	br	42f8 <drawPlayer+0x7a8>
					case 1:
						draw_driver(player2_front2_x0, player2_front2_y0, player2_front2_x1, player2_front2_y1, player1->x, player1->y, 1);
    3fc8:	e0bffe17 	ldw	r2,-8(fp)
    3fcc:	1080008b 	ldhu	r2,2(r2)
    3fd0:	10bfffcc 	andi	r2,r2,65535
    3fd4:	e0fffe17 	ldw	r3,-8(fp)
    3fd8:	18c0010b 	ldhu	r3,4(r3)
    3fdc:	18ffffcc 	andi	r3,r3,65535
    3fe0:	01000044 	movi	r4,1
    3fe4:	d9000215 	stw	r4,8(sp)
    3fe8:	d8c00115 	stw	r3,4(sp)
    3fec:	d8800015 	stw	r2,0(sp)
    3ff0:	01c01704 	movi	r7,92
    3ff4:	01805a44 	movi	r6,361
    3ff8:	014010c4 	movi	r5,67
    3ffc:	01005404 	movi	r4,336
    4000:	00036040 	call	3604 <draw_driver>
						break;
    4004:	0000bc06 	br	42f8 <drawPlayer+0x7a8>
					case 2:
						draw_driver(player2_left2_x0, player2_left2_y0, player2_left2_x1, player2_left2_y1, player1->x, player1->y, 1);
    4008:	e0bffe17 	ldw	r2,-8(fp)
    400c:	1080008b 	ldhu	r2,2(r2)
    4010:	10bfffcc 	andi	r2,r2,65535
    4014:	e0fffe17 	ldw	r3,-8(fp)
    4018:	18c0010b 	ldhu	r3,4(r3)
    401c:	18ffffcc 	andi	r3,r3,65535
    4020:	01000044 	movi	r4,1
    4024:	d9000215 	stw	r4,8(sp)
    4028:	d8c00115 	stw	r3,4(sp)
    402c:	d8800015 	stw	r2,0(sp)
    4030:	01c04704 	movi	r7,284
    4034:	01805a44 	movi	r6,361
    4038:	014040c4 	movi	r5,259
    403c:	01005404 	movi	r4,336
    4040:	00036040 	call	3604 <draw_driver>
						break;
    4044:	0000ac06 	br	42f8 <drawPlayer+0x7a8>
					case 3:
						draw_driver(player2_right2_x0, player2_right2_y0, player2_right2_x1, player2_right2_y1, player1->x, player1->y, 1);
    4048:	e0bffe17 	ldw	r2,-8(fp)
    404c:	1080008b 	ldhu	r2,2(r2)
    4050:	10bfffcc 	andi	r2,r2,65535
    4054:	e0fffe17 	ldw	r3,-8(fp)
    4058:	18c0010b 	ldhu	r3,4(r3)
    405c:	18ffffcc 	andi	r3,r3,65535
    4060:	01000044 	movi	r4,1
    4064:	d9000215 	stw	r4,8(sp)
    4068:	d8c00115 	stw	r3,4(sp)
    406c:	d8800015 	stw	r2,0(sp)
    4070:	01c02f04 	movi	r7,188
    4074:	01805a44 	movi	r6,361
    4078:	014028c4 	movi	r5,163
    407c:	01005404 	movi	r4,336
    4080:	00036040 	call	3604 <draw_driver>
						break;
    4084:	0001883a 	nop
    4088:	00009b06 	br	42f8 <drawPlayer+0x7a8>
				}
			}
		}
	}
	else{
		if(index == 0){
    408c:	e0bffc0b 	ldhu	r2,-16(fp)
    4090:	10004d1e 	bne	r2,zero,41c8 <drawPlayer+0x678>
			switch(dir){
    4094:	e0bffd0b 	ldhu	r2,-12(fp)
    4098:	10c00060 	cmpeqi	r3,r2,1
    409c:	1800191e 	bne	r3,zero,4104 <drawPlayer+0x5b4>
    40a0:	10c00088 	cmpgei	r3,r2,2
    40a4:	1800021e 	bne	r3,zero,40b0 <drawPlayer+0x560>
    40a8:	10000626 	beq	r2,zero,40c4 <drawPlayer+0x574>
					draw_driver(player2_right0_x0, player2_right0_y0, player2_right0_x1, player2_right0_y1, player1->x, player1->y, 1);
					break;
			}
		}
	}
}
    40ac:	00009206 	br	42f8 <drawPlayer+0x7a8>
			}
		}
	}
	else{
		if(index == 0){
			switch(dir){
    40b0:	10c000a0 	cmpeqi	r3,r2,2
    40b4:	1800231e 	bne	r3,zero,4144 <drawPlayer+0x5f4>
    40b8:	108000e0 	cmpeqi	r2,r2,3
    40bc:	1000311e 	bne	r2,zero,4184 <drawPlayer+0x634>
					draw_driver(player2_right0_x0, player2_right0_y0, player2_right0_x1, player2_right0_y1, player1->x, player1->y, 1);
					break;
			}
		}
	}
}
    40c0:	00008d06 	br	42f8 <drawPlayer+0x7a8>
	}
	else{
		if(index == 0){
			switch(dir){
				case 0:
					draw_driver(player1_back0_x0, player1_back0_y0, player1_back0_x1, player1_back0_y1, player1->x, player1->y, 1);
    40c4:	e0bffe17 	ldw	r2,-8(fp)
    40c8:	1080008b 	ldhu	r2,2(r2)
    40cc:	10bfffcc 	andi	r2,r2,65535
    40d0:	e0fffe17 	ldw	r3,-8(fp)
    40d4:	18c0010b 	ldhu	r3,4(r3)
    40d8:	18ffffcc 	andi	r3,r3,65535
    40dc:	01000044 	movi	r4,1
    40e0:	d9000215 	stw	r4,8(sp)
    40e4:	d8c00115 	stw	r3,4(sp)
    40e8:	d8800015 	stw	r2,0(sp)
    40ec:	01c04f04 	movi	r7,316
    40f0:	018051c4 	movi	r6,327
    40f4:	014048c4 	movi	r5,291
    40f8:	01004b84 	movi	r4,302
    40fc:	00036040 	call	3604 <draw_driver>
					break;
    4100:	00007d06 	br	42f8 <drawPlayer+0x7a8>
				case 1:
					draw_driver(player1_front0_x0, player1_front0_y0, player1_front0_x1, player1_front0_y1, player1->x, player1->y, 1);
    4104:	e0bffe17 	ldw	r2,-8(fp)
    4108:	1080008b 	ldhu	r2,2(r2)
    410c:	10bfffcc 	andi	r2,r2,65535
    4110:	e0fffe17 	ldw	r3,-8(fp)
    4114:	18c0010b 	ldhu	r3,4(r3)
    4118:	18ffffcc 	andi	r3,r3,65535
    411c:	01000044 	movi	r4,1
    4120:	d9000215 	stw	r4,8(sp)
    4124:	d8c00115 	stw	r3,4(sp)
    4128:	d8800015 	stw	r2,0(sp)
    412c:	01c00704 	movi	r7,28
    4130:	018051c4 	movi	r6,327
    4134:	014000c4 	movi	r5,3
    4138:	01004b84 	movi	r4,302
    413c:	00036040 	call	3604 <draw_driver>
					break;
    4140:	00006d06 	br	42f8 <drawPlayer+0x7a8>
				case 2:
					draw_driver(player1_left0_x0, player1_left0_y0, player1_left0_x1, player1_left0_y1, player1->x, player1->y, 1);
    4144:	e0bffe17 	ldw	r2,-8(fp)
    4148:	1080008b 	ldhu	r2,2(r2)
    414c:	10bfffcc 	andi	r2,r2,65535
    4150:	e0fffe17 	ldw	r3,-8(fp)
    4154:	18c0010b 	ldhu	r3,4(r3)
    4158:	18ffffcc 	andi	r3,r3,65535
    415c:	01000044 	movi	r4,1
    4160:	d9000215 	stw	r4,8(sp)
    4164:	d8c00115 	stw	r3,4(sp)
    4168:	d8800015 	stw	r2,0(sp)
    416c:	01c03704 	movi	r7,220
    4170:	01805244 	movi	r6,329
    4174:	014030c4 	movi	r5,195
    4178:	01004c04 	movi	r4,304
    417c:	00036040 	call	3604 <draw_driver>
					break;
    4180:	00005d06 	br	42f8 <drawPlayer+0x7a8>
				case 3:
					draw_driver(player1_right0_x0, player1_right0_y0, player1_right0_x1, player1_right0_y1, player1->x, player1->y, 1);
    4184:	e0bffe17 	ldw	r2,-8(fp)
    4188:	1080008b 	ldhu	r2,2(r2)
    418c:	10bfffcc 	andi	r2,r2,65535
    4190:	e0fffe17 	ldw	r3,-8(fp)
    4194:	18c0010b 	ldhu	r3,4(r3)
    4198:	18ffffcc 	andi	r3,r3,65535
    419c:	01000044 	movi	r4,1
    41a0:	d9000215 	stw	r4,8(sp)
    41a4:	d8c00115 	stw	r3,4(sp)
    41a8:	d8800015 	stw	r2,0(sp)
    41ac:	01c01f04 	movi	r7,124
    41b0:	018051c4 	movi	r6,327
    41b4:	014018c4 	movi	r5,99
    41b8:	01004b84 	movi	r4,302
    41bc:	00036040 	call	3604 <draw_driver>
					break;
    41c0:	0001883a 	nop
    41c4:	00004c06 	br	42f8 <drawPlayer+0x7a8>
			}
		}
		else{
			switch(dir){
    41c8:	e0bffd0b 	ldhu	r2,-12(fp)
    41cc:	10c00060 	cmpeqi	r3,r2,1
    41d0:	1800191e 	bne	r3,zero,4238 <drawPlayer+0x6e8>
    41d4:	10c00088 	cmpgei	r3,r2,2
    41d8:	1800021e 	bne	r3,zero,41e4 <drawPlayer+0x694>
    41dc:	10000626 	beq	r2,zero,41f8 <drawPlayer+0x6a8>
